ARM GAS  C:\Users\ZTIPRI~1\AppData\Local\Temp\ccBGTz86.s 			page 1


   1              		.syntax unified
   2              		.cpu cortex-m0
   3              		.fpu softvfp
   4              		.eabi_attribute 20, 1
   5              		.eabi_attribute 21, 1
   6              		.eabi_attribute 23, 3
   7              		.eabi_attribute 24, 1
   8              		.eabi_attribute 25, 1
   9              		.eabi_attribute 26, 1
  10              		.eabi_attribute 30, 1
  11              		.eabi_attribute 34, 0
  12              		.eabi_attribute 18, 4
  13              		.thumb
  14              		.syntax unified
  15              		.file	"CapSense_CSD.c"
  16              		.text
  17              	.Ltext0:
  18              		.cfi_sections	.debug_frame
  19              		.section	.text.CapSense_CSD_CsdHwBlockInit,"ax",%progbits
  20              		.align	2
  21              		.global	CapSense_CSD_CsdHwBlockInit
  22              		.code	16
  23              		.thumb_func
  24              		.type	CapSense_CSD_CsdHwBlockInit, %function
  25              	CapSense_CSD_CsdHwBlockInit:
  26              	.LFB33:
  27              		.file 1 "Generated_Source\\PSoC4\\CapSense_CSD.c"
   1:Generated_Source\PSoC4/CapSense_CSD.c **** /*******************************************************************************
   2:Generated_Source\PSoC4/CapSense_CSD.c **** * File Name: CapSense_CSD.c
   3:Generated_Source\PSoC4/CapSense_CSD.c **** * Version 2.60
   4:Generated_Source\PSoC4/CapSense_CSD.c **** *
   5:Generated_Source\PSoC4/CapSense_CSD.c **** * Description:
   6:Generated_Source\PSoC4/CapSense_CSD.c **** *  This file provides the source code for scanning APIs for the CapSense CSD
   7:Generated_Source\PSoC4/CapSense_CSD.c **** *  component.
   8:Generated_Source\PSoC4/CapSense_CSD.c **** *
   9:Generated_Source\PSoC4/CapSense_CSD.c **** * Note:
  10:Generated_Source\PSoC4/CapSense_CSD.c **** *
  11:Generated_Source\PSoC4/CapSense_CSD.c **** ********************************************************************************
  12:Generated_Source\PSoC4/CapSense_CSD.c **** * Copyright 2013-2016, Cypress Semiconductor Corporation.  All rights reserved.
  13:Generated_Source\PSoC4/CapSense_CSD.c **** * You may use this file only in accordance with the license, terms, conditions,
  14:Generated_Source\PSoC4/CapSense_CSD.c **** * disclaimers, and limitations in the end user license agreement accompanying
  15:Generated_Source\PSoC4/CapSense_CSD.c **** * the software package with which this file was provided.
  16:Generated_Source\PSoC4/CapSense_CSD.c **** *******************************************************************************/
  17:Generated_Source\PSoC4/CapSense_CSD.c **** 
  18:Generated_Source\PSoC4/CapSense_CSD.c **** #include "CapSense_CSD.h"
  19:Generated_Source\PSoC4/CapSense_CSD.c **** #include "CapSense_CSD_PVT.h"
  20:Generated_Source\PSoC4/CapSense_CSD.c **** #include "cypins.h"
  21:Generated_Source\PSoC4/CapSense_CSD.c **** #include "cyapicallbacks.h"
  22:Generated_Source\PSoC4/CapSense_CSD.c **** 
  23:Generated_Source\PSoC4/CapSense_CSD.c **** #if(0u != CapSense_CSD_CSHL_API_GENERATE)
  24:Generated_Source\PSoC4/CapSense_CSD.c ****     #include "CapSense_CSD_CSHL.h"
  25:Generated_Source\PSoC4/CapSense_CSD.c **** #endif /* (0u != CapSense_CSD_CSHL_API_GENERATE) */
  26:Generated_Source\PSoC4/CapSense_CSD.c **** 
  27:Generated_Source\PSoC4/CapSense_CSD.c **** /* This definition is intended to prevent unexpected linker error.
  28:Generated_Source\PSoC4/CapSense_CSD.c ****    For more details please see the IAR Technical Note 49981 */
  29:Generated_Source\PSoC4/CapSense_CSD.c **** #if defined(__ICCARM__)
  30:Generated_Source\PSoC4/CapSense_CSD.c ****     extern void CapSense_CSD_EnableSensor(uint32 sensor);
ARM GAS  C:\Users\ZTIPRI~1\AppData\Local\Temp\ccBGTz86.s 			page 2


  31:Generated_Source\PSoC4/CapSense_CSD.c ****     extern void CapSense_CSD_DisableSensor(uint32 sensor);
  32:Generated_Source\PSoC4/CapSense_CSD.c **** #endif /* (__ICCARM__) */
  33:Generated_Source\PSoC4/CapSense_CSD.c **** 
  34:Generated_Source\PSoC4/CapSense_CSD.c **** /* SmartSense functions */
  35:Generated_Source\PSoC4/CapSense_CSD.c **** #if (CapSense_CSD_TUNING_METHOD == CapSense_CSD__TUNING_AUTO)
  36:Generated_Source\PSoC4/CapSense_CSD.c ****     uint8 CapSense_CSD_lowLevelTuningDone = 0u;
  37:Generated_Source\PSoC4/CapSense_CSD.c ****     uint8 CapSense_CSD_scanSpeedTbl[((CapSense_CSD_TOTAL_SENSOR_COUNT - 1u) / 8u) + 1u];
  38:Generated_Source\PSoC4/CapSense_CSD.c **** #endif /* (CapSense_CSD_TUNING_METHOD == CapSense_CSD__TUNING_AUTO) */
  39:Generated_Source\PSoC4/CapSense_CSD.c **** 
  40:Generated_Source\PSoC4/CapSense_CSD.c **** #if(CapSense_CSD_PRS_OPTIONS != CapSense_CSD__PRS_NONE)
  41:Generated_Source\PSoC4/CapSense_CSD.c ****     uint8 CapSense_CSD_prescalersTuningDone = 0u;
  42:Generated_Source\PSoC4/CapSense_CSD.c **** #endif /* (CapSense_CSD_PRS_OPTIONS == CapSense_CSD__PRS_NONE) */
  43:Generated_Source\PSoC4/CapSense_CSD.c **** 
  44:Generated_Source\PSoC4/CapSense_CSD.c **** /* Global software variables */
  45:Generated_Source\PSoC4/CapSense_CSD.c **** volatile uint8 CapSense_CSD_csdStatusVar = 0u;   /* CapSense CSD status, variable */
  46:Generated_Source\PSoC4/CapSense_CSD.c **** volatile uint8 CapSense_CSD_sensorIndex = 0u;    /* Index of scannig sensor */
  47:Generated_Source\PSoC4/CapSense_CSD.c **** 
  48:Generated_Source\PSoC4/CapSense_CSD.c **** /* Global array of Raw Counts */
  49:Generated_Source\PSoC4/CapSense_CSD.c **** uint16 CapSense_CSD_sensorRaw[CapSense_CSD_TOTAL_SENSOR_COUNT] = {0u};
  50:Generated_Source\PSoC4/CapSense_CSD.c **** 
  51:Generated_Source\PSoC4/CapSense_CSD.c **** /* Backup variables for trim registers*/
  52:Generated_Source\PSoC4/CapSense_CSD.c **** #if (CapSense_CSD_IDAC1_POLARITY == CapSense_CSD__IDAC_SINK)
  53:Generated_Source\PSoC4/CapSense_CSD.c ****     uint8 CapSense_CSD_csdTrim2;
  54:Generated_Source\PSoC4/CapSense_CSD.c **** #else
  55:Generated_Source\PSoC4/CapSense_CSD.c ****     uint8 CapSense_CSD_csdTrim1;
  56:Generated_Source\PSoC4/CapSense_CSD.c **** #endif /* (CapSense_CSD_IDAC1_POLARITY == CapSense_CSD__IDAC_SINK) */
  57:Generated_Source\PSoC4/CapSense_CSD.c **** 
  58:Generated_Source\PSoC4/CapSense_CSD.c **** /* Global array of un-scanned sensors state */
  59:Generated_Source\PSoC4/CapSense_CSD.c **** uint8 CapSense_CSD_unscannedSnsDriveMode[CapSense_CSD_PORT_PIN_CONFIG_TBL_ZISE];
  60:Generated_Source\PSoC4/CapSense_CSD.c **** 
  61:Generated_Source\PSoC4/CapSense_CSD.c **** /* Backup array for CapSense_CSD_sensorEnableMask */
  62:Generated_Source\PSoC4/CapSense_CSD.c **** uint8 CapSense_CSD_sensorEnableMaskBackup[(((CapSense_CSD_TOTAL_SENSOR_COUNT - 1u) / 8u) + 1u)];
  63:Generated_Source\PSoC4/CapSense_CSD.c **** 
  64:Generated_Source\PSoC4/CapSense_CSD.c **** /* Configured constants and arrays by Customizer */
  65:Generated_Source\PSoC4/CapSense_CSD.c **** uint8 CapSense_CSD_sensorEnableMask[(((CapSense_CSD_TOTAL_SENSOR_COUNT - 1u) / 8u) + 1u)] = {
  66:Generated_Source\PSoC4/CapSense_CSD.c **** 0x1Fu, };
  67:Generated_Source\PSoC4/CapSense_CSD.c **** 
  68:Generated_Source\PSoC4/CapSense_CSD.c **** reg32 * CapSense_CSD_pcTable[] = {
  69:Generated_Source\PSoC4/CapSense_CSD.c ****     (reg32 *)CapSense_CSD_Sns__Button0__BTN__PC, 
  70:Generated_Source\PSoC4/CapSense_CSD.c ****     (reg32 *)CapSense_CSD_Sns__Button1__BTN__PC, 
  71:Generated_Source\PSoC4/CapSense_CSD.c ****     (reg32 *)CapSense_CSD_Sns__Button2__BTN__PC, 
  72:Generated_Source\PSoC4/CapSense_CSD.c ****     (reg32 *)CapSense_CSD_Sns__Button3__BTN__PC, 
  73:Generated_Source\PSoC4/CapSense_CSD.c ****     (reg32 *)CapSense_CSD_Sns__Button4__BTN__PC, 
  74:Generated_Source\PSoC4/CapSense_CSD.c **** };
  75:Generated_Source\PSoC4/CapSense_CSD.c **** 
  76:Generated_Source\PSoC4/CapSense_CSD.c **** const uint8 CapSense_CSD_portTable[] = {
  77:Generated_Source\PSoC4/CapSense_CSD.c ****     CapSense_CSD_Sns__Button0__BTN__PORT, 
  78:Generated_Source\PSoC4/CapSense_CSD.c ****     CapSense_CSD_Sns__Button1__BTN__PORT, 
  79:Generated_Source\PSoC4/CapSense_CSD.c ****     CapSense_CSD_Sns__Button2__BTN__PORT, 
  80:Generated_Source\PSoC4/CapSense_CSD.c ****     CapSense_CSD_Sns__Button3__BTN__PORT, 
  81:Generated_Source\PSoC4/CapSense_CSD.c ****     CapSense_CSD_Sns__Button4__BTN__PORT, 
  82:Generated_Source\PSoC4/CapSense_CSD.c **** };
  83:Generated_Source\PSoC4/CapSense_CSD.c **** 
  84:Generated_Source\PSoC4/CapSense_CSD.c **** const uint32 CapSense_CSD_maskTable[] = {
  85:Generated_Source\PSoC4/CapSense_CSD.c ****     CapSense_CSD_Sns__Button0__BTN__MASK, 
  86:Generated_Source\PSoC4/CapSense_CSD.c ****     CapSense_CSD_Sns__Button1__BTN__MASK, 
  87:Generated_Source\PSoC4/CapSense_CSD.c ****     CapSense_CSD_Sns__Button2__BTN__MASK, 
ARM GAS  C:\Users\ZTIPRI~1\AppData\Local\Temp\ccBGTz86.s 			page 3


  88:Generated_Source\PSoC4/CapSense_CSD.c ****     CapSense_CSD_Sns__Button3__BTN__MASK, 
  89:Generated_Source\PSoC4/CapSense_CSD.c ****     CapSense_CSD_Sns__Button4__BTN__MASK, 
  90:Generated_Source\PSoC4/CapSense_CSD.c **** };
  91:Generated_Source\PSoC4/CapSense_CSD.c **** 
  92:Generated_Source\PSoC4/CapSense_CSD.c **** const uint8 CapSense_CSD_pinShiftTbl[] = {
  93:Generated_Source\PSoC4/CapSense_CSD.c ****     (uint8) CapSense_CSD_Sns__Button0__BTN__SHIFT, 
  94:Generated_Source\PSoC4/CapSense_CSD.c ****     (uint8) CapSense_CSD_Sns__Button1__BTN__SHIFT, 
  95:Generated_Source\PSoC4/CapSense_CSD.c ****     (uint8) CapSense_CSD_Sns__Button2__BTN__SHIFT, 
  96:Generated_Source\PSoC4/CapSense_CSD.c ****     (uint8) CapSense_CSD_Sns__Button3__BTN__SHIFT, 
  97:Generated_Source\PSoC4/CapSense_CSD.c ****     (uint8) CapSense_CSD_Sns__Button4__BTN__SHIFT, 
  98:Generated_Source\PSoC4/CapSense_CSD.c **** };
  99:Generated_Source\PSoC4/CapSense_CSD.c **** 
 100:Generated_Source\PSoC4/CapSense_CSD.c **** uint8 CapSense_CSD_modulationIDAC[CapSense_CSD_TOTAL_SENSOR_COUNT];
 101:Generated_Source\PSoC4/CapSense_CSD.c **** uint8 CapSense_CSD_compensationIDAC[CapSense_CSD_TOTAL_SENSOR_COUNT];
 102:Generated_Source\PSoC4/CapSense_CSD.c **** 
 103:Generated_Source\PSoC4/CapSense_CSD.c **** uint32 CapSense_CSD_widgetResolution[CapSense_CSD_RESOLUTIONS_TBL_SIZE] = {
 104:Generated_Source\PSoC4/CapSense_CSD.c ****     CapSense_CSD_RESOLUTION_12_BITS,
 105:Generated_Source\PSoC4/CapSense_CSD.c ****     CapSense_CSD_RESOLUTION_12_BITS,
 106:Generated_Source\PSoC4/CapSense_CSD.c ****     CapSense_CSD_RESOLUTION_12_BITS,
 107:Generated_Source\PSoC4/CapSense_CSD.c ****     CapSense_CSD_RESOLUTION_12_BITS,
 108:Generated_Source\PSoC4/CapSense_CSD.c ****     CapSense_CSD_RESOLUTION_12_BITS,
 109:Generated_Source\PSoC4/CapSense_CSD.c **** };
 110:Generated_Source\PSoC4/CapSense_CSD.c **** 
 111:Generated_Source\PSoC4/CapSense_CSD.c **** uint8 CapSense_CSD_senseClkDividerVal[CapSense_CSD_TOTAL_SCANSLOT_COUNT];
 112:Generated_Source\PSoC4/CapSense_CSD.c **** uint8 CapSense_CSD_sampleClkDividerVal[CapSense_CSD_TOTAL_SCANSLOT_COUNT];
 113:Generated_Source\PSoC4/CapSense_CSD.c **** 
 114:Generated_Source\PSoC4/CapSense_CSD.c **** const uint8 CapSense_CSD_widgetNumber[CapSense_CSD_TOTAL_SENSOR_COUNT] = {
 115:Generated_Source\PSoC4/CapSense_CSD.c ****     0u, /* Button0__BTN */
 116:Generated_Source\PSoC4/CapSense_CSD.c ****     1u, /* Button1__BTN */
 117:Generated_Source\PSoC4/CapSense_CSD.c ****     2u, /* Button2__BTN */
 118:Generated_Source\PSoC4/CapSense_CSD.c ****     3u, /* Button3__BTN */
 119:Generated_Source\PSoC4/CapSense_CSD.c ****     4u, /* Button4__BTN */
 120:Generated_Source\PSoC4/CapSense_CSD.c **** };
 121:Generated_Source\PSoC4/CapSense_CSD.c **** 
 122:Generated_Source\PSoC4/CapSense_CSD.c **** reg32* const CapSense_CSD_prtSelTbl[CapSense_CSD_CFG_REG_TBL_SIZE] = {
 123:Generated_Source\PSoC4/CapSense_CSD.c ****     ((reg32 *) CYREG_HSIOM_PORT_SEL0),
 124:Generated_Source\PSoC4/CapSense_CSD.c ****     ((reg32 *) CYREG_HSIOM_PORT_SEL1),
 125:Generated_Source\PSoC4/CapSense_CSD.c ****     ((reg32 *) CYREG_HSIOM_PORT_SEL2),
 126:Generated_Source\PSoC4/CapSense_CSD.c ****     ((reg32 *) CYREG_HSIOM_PORT_SEL3),
 127:Generated_Source\PSoC4/CapSense_CSD.c ****     ((reg32 *) CYREG_HSIOM_PORT_SEL4),
 128:Generated_Source\PSoC4/CapSense_CSD.c **** };
 129:Generated_Source\PSoC4/CapSense_CSD.c **** 
 130:Generated_Source\PSoC4/CapSense_CSD.c **** reg32* const CapSense_CSD_prtCfgTbl[CapSense_CSD_CFG_REG_TBL_SIZE] = {
 131:Generated_Source\PSoC4/CapSense_CSD.c ****     ((reg32 *) CYREG_PRT0_PC),
 132:Generated_Source\PSoC4/CapSense_CSD.c ****     ((reg32 *) CYREG_PRT1_PC),
 133:Generated_Source\PSoC4/CapSense_CSD.c ****     ((reg32 *) CYREG_PRT2_PC),
 134:Generated_Source\PSoC4/CapSense_CSD.c ****     ((reg32 *) CYREG_PRT3_PC),
 135:Generated_Source\PSoC4/CapSense_CSD.c ****     ((reg32 *) CYREG_PRT4_PC),
 136:Generated_Source\PSoC4/CapSense_CSD.c **** };
 137:Generated_Source\PSoC4/CapSense_CSD.c **** 
 138:Generated_Source\PSoC4/CapSense_CSD.c **** reg32* const CapSense_CSD_prtDRTbl[CapSense_CSD_CFG_REG_TBL_SIZE] = {
 139:Generated_Source\PSoC4/CapSense_CSD.c ****     ((reg32 *) CYREG_PRT0_DR),
 140:Generated_Source\PSoC4/CapSense_CSD.c ****     ((reg32 *) CYREG_PRT1_DR),
 141:Generated_Source\PSoC4/CapSense_CSD.c ****     ((reg32 *) CYREG_PRT2_DR),
 142:Generated_Source\PSoC4/CapSense_CSD.c ****     ((reg32 *) CYREG_PRT3_DR),
 143:Generated_Source\PSoC4/CapSense_CSD.c ****     ((reg32 *) CYREG_PRT4_DR),
 144:Generated_Source\PSoC4/CapSense_CSD.c **** };
ARM GAS  C:\Users\ZTIPRI~1\AppData\Local\Temp\ccBGTz86.s 			page 4


 145:Generated_Source\PSoC4/CapSense_CSD.c **** 
 146:Generated_Source\PSoC4/CapSense_CSD.c **** 
 147:Generated_Source\PSoC4/CapSense_CSD.c **** 
 148:Generated_Source\PSoC4/CapSense_CSD.c **** /*******************************************************************************
 149:Generated_Source\PSoC4/CapSense_CSD.c **** * Function Name: CapSense_CSD_Init
 150:Generated_Source\PSoC4/CapSense_CSD.c **** ********************************************************************************
 151:Generated_Source\PSoC4/CapSense_CSD.c **** *
 152:Generated_Source\PSoC4/CapSense_CSD.c **** * Summary:
 153:Generated_Source\PSoC4/CapSense_CSD.c **** *  API initializes default CapSense configuration provided by the customizer that defines
 154:Generated_Source\PSoC4/CapSense_CSD.c **** *  the mode of component operations and resets all the sensors to an inactive state.
 155:Generated_Source\PSoC4/CapSense_CSD.c **** *
 156:Generated_Source\PSoC4/CapSense_CSD.c **** * Parameters:
 157:Generated_Source\PSoC4/CapSense_CSD.c **** *  None
 158:Generated_Source\PSoC4/CapSense_CSD.c **** *
 159:Generated_Source\PSoC4/CapSense_CSD.c **** * Return:
 160:Generated_Source\PSoC4/CapSense_CSD.c **** *  None
 161:Generated_Source\PSoC4/CapSense_CSD.c **** *
 162:Generated_Source\PSoC4/CapSense_CSD.c **** * Global Variables:
 163:Generated_Source\PSoC4/CapSense_CSD.c **** *  CapSense_CSD_immunityIndex - defines immunity level.
 164:Generated_Source\PSoC4/CapSense_CSD.c **** *
 165:Generated_Source\PSoC4/CapSense_CSD.c **** * Side Effects:
 166:Generated_Source\PSoC4/CapSense_CSD.c **** *  None
 167:Generated_Source\PSoC4/CapSense_CSD.c **** *
 168:Generated_Source\PSoC4/CapSense_CSD.c **** *******************************************************************************/
 169:Generated_Source\PSoC4/CapSense_CSD.c **** void CapSense_CSD_Init(void)
 170:Generated_Source\PSoC4/CapSense_CSD.c **** {
 171:Generated_Source\PSoC4/CapSense_CSD.c ****     uint32 curSensor;
 172:Generated_Source\PSoC4/CapSense_CSD.c **** 
 173:Generated_Source\PSoC4/CapSense_CSD.c ****     #if(CapSense_CSD_IS_SHIELD_ENABLE)
 174:Generated_Source\PSoC4/CapSense_CSD.c **** 
 175:Generated_Source\PSoC4/CapSense_CSD.c ****         #if((CapSense_CSD_CSH_TANK_PREGARGE_OPTION == CapSense_CSD__CAPPRIOBUF) || (0u != CapSense_
 176:Generated_Source\PSoC4/CapSense_CSD.c ****             uint32 newRegValue;
 177:Generated_Source\PSoC4/CapSense_CSD.c **** 
 178:Generated_Source\PSoC4/CapSense_CSD.c ****             newRegValue = CapSense_CSD_CTANK_CONNECTION_REG;
 179:Generated_Source\PSoC4/CapSense_CSD.c ****             newRegValue &= ~(CapSense_CSD_CSD_CTANK_CONNECTION_MASK);
 180:Generated_Source\PSoC4/CapSense_CSD.c ****             newRegValue |= CapSense_CSD_CSD_CTANK_TO_AMUXBUS_B;
 181:Generated_Source\PSoC4/CapSense_CSD.c ****             CapSense_CSD_CTANK_CONNECTION_REG = newRegValue;
 182:Generated_Source\PSoC4/CapSense_CSD.c **** 
 183:Generated_Source\PSoC4/CapSense_CSD.c ****             #if(CapSense_CSD_CSH_TANK_PREGARGE_OPTION == CapSense_CSD__CAPPRIOBUF)
 184:Generated_Source\PSoC4/CapSense_CSD.c ****                 newRegValue = CapSense_CSD_CTANK_PORT_PC_REG;
 185:Generated_Source\PSoC4/CapSense_CSD.c ****                 newRegValue &= ~(CapSense_CSD_CSD_CTANK_PC_MASK);
 186:Generated_Source\PSoC4/CapSense_CSD.c ****                 newRegValue |= CapSense_CSD_CTANK_PC_STRONG_MODE;
 187:Generated_Source\PSoC4/CapSense_CSD.c ****                 CapSense_CSD_CTANK_PORT_PC_REG = newRegValue;
 188:Generated_Source\PSoC4/CapSense_CSD.c **** 
 189:Generated_Source\PSoC4/CapSense_CSD.c ****                 newRegValue = CapSense_CSD_CTANK_PORT_DR_REG;
 190:Generated_Source\PSoC4/CapSense_CSD.c ****                 newRegValue &= ~(CapSense_CSD_CTANK_DR_MASK);
 191:Generated_Source\PSoC4/CapSense_CSD.c ****                 newRegValue |= CapSense_CSD_CTANK_DR_CONFIG;
 192:Generated_Source\PSoC4/CapSense_CSD.c ****                 CapSense_CSD_CTANK_PORT_DR_REG = newRegValue;
 193:Generated_Source\PSoC4/CapSense_CSD.c ****             #endif /* (CapSense_CSD_CSH_TANK_PREGARGE_OPTION == CapSense_CSD__CAPPRIOBUF) */
 194:Generated_Source\PSoC4/CapSense_CSD.c **** 
 195:Generated_Source\PSoC4/CapSense_CSD.c ****         #endif /* ((CapSense_CSD_CSH_TANK_PREGARGE_OPTION == CapSense_CSD__CAPPRIOBUF) || (CapSense
 196:Generated_Source\PSoC4/CapSense_CSD.c **** 
 197:Generated_Source\PSoC4/CapSense_CSD.c ****         CapSense_CSD_EnableShieldElectrode((uint32)CapSense_CSD_SHIELD_PIN_NUMBER, (uint32)CapSense
 198:Generated_Source\PSoC4/CapSense_CSD.c **** 
 199:Generated_Source\PSoC4/CapSense_CSD.c ****     #endif /* (CapSense_CSD_IS_SHIELD_ENABLE) */
 200:Generated_Source\PSoC4/CapSense_CSD.c **** 
 201:Generated_Source\PSoC4/CapSense_CSD.c ****     for(curSensor = 0u; curSensor < CapSense_CSD_TOTAL_SENSOR_COUNT; curSensor++)
ARM GAS  C:\Users\ZTIPRI~1\AppData\Local\Temp\ccBGTz86.s 			page 5


 202:Generated_Source\PSoC4/CapSense_CSD.c ****     {
 203:Generated_Source\PSoC4/CapSense_CSD.c ****         CapSense_CSD_SetUnscannedSensorState(curSensor, CapSense_CSD_CONNECT_INACTIVE_SNS);
 204:Generated_Source\PSoC4/CapSense_CSD.c ****     }
 205:Generated_Source\PSoC4/CapSense_CSD.c **** 
 206:Generated_Source\PSoC4/CapSense_CSD.c ****     CapSense_CSD_CsdHwBlockInit();
 207:Generated_Source\PSoC4/CapSense_CSD.c ****     CapSense_CSD_SetShieldDelay(CapSense_CSD_SHIELD_DELAY );
 208:Generated_Source\PSoC4/CapSense_CSD.c **** 
 209:Generated_Source\PSoC4/CapSense_CSD.c ****     /* Clear all sensors */
 210:Generated_Source\PSoC4/CapSense_CSD.c ****     CapSense_CSD_ClearSensors();
 211:Generated_Source\PSoC4/CapSense_CSD.c **** }
 212:Generated_Source\PSoC4/CapSense_CSD.c **** 
 213:Generated_Source\PSoC4/CapSense_CSD.c **** /*******************************************************************************
 214:Generated_Source\PSoC4/CapSense_CSD.c **** * Function Name: CapSense_CSD_CsdHwBlockInit
 215:Generated_Source\PSoC4/CapSense_CSD.c **** ********************************************************************************
 216:Generated_Source\PSoC4/CapSense_CSD.c **** *
 217:Generated_Source\PSoC4/CapSense_CSD.c **** * Summary:
 218:Generated_Source\PSoC4/CapSense_CSD.c **** *  Initialises the hardware parameters of the CSD block
 219:Generated_Source\PSoC4/CapSense_CSD.c **** *
 220:Generated_Source\PSoC4/CapSense_CSD.c **** * Parameters:
 221:Generated_Source\PSoC4/CapSense_CSD.c **** *  None
 222:Generated_Source\PSoC4/CapSense_CSD.c **** *
 223:Generated_Source\PSoC4/CapSense_CSD.c **** * Return:
 224:Generated_Source\PSoC4/CapSense_CSD.c **** *  None
 225:Generated_Source\PSoC4/CapSense_CSD.c **** *
 226:Generated_Source\PSoC4/CapSense_CSD.c **** * Global Variables:
 227:Generated_Source\PSoC4/CapSense_CSD.c **** *  CapSense_CSD_csdTrim1 - Contains IDAC trim register value for Sourcing Mode.
 228:Generated_Source\PSoC4/CapSense_CSD.c **** *  CapSense_CSD_csdTrim2 - Contains IDAC trim register value for Sinking Mode.
 229:Generated_Source\PSoC4/CapSense_CSD.c **** *
 230:Generated_Source\PSoC4/CapSense_CSD.c **** * Side Effects:
 231:Generated_Source\PSoC4/CapSense_CSD.c **** *  None
 232:Generated_Source\PSoC4/CapSense_CSD.c **** *
 233:Generated_Source\PSoC4/CapSense_CSD.c **** *******************************************************************************/
 234:Generated_Source\PSoC4/CapSense_CSD.c **** void CapSense_CSD_CsdHwBlockInit(void)
 235:Generated_Source\PSoC4/CapSense_CSD.c **** {
  28              		.loc 1 235 0
  29              		.cfi_startproc
  30              		@ args = 0, pretend = 0, frame = 0
  31              		@ frame_needed = 0, uses_anonymous_args = 0
  32 0000 70B5     		push	{r4, r5, r6, lr}
  33              		.cfi_def_cfa_offset 16
  34              		.cfi_offset 4, -16
  35              		.cfi_offset 5, -12
  36              		.cfi_offset 6, -8
  37              		.cfi_offset 14, -4
 236:Generated_Source\PSoC4/CapSense_CSD.c ****     uint32 newRegValue;
 237:Generated_Source\PSoC4/CapSense_CSD.c **** 
 238:Generated_Source\PSoC4/CapSense_CSD.c ****         /* Set trim registers for CSD Mode */
 239:Generated_Source\PSoC4/CapSense_CSD.c ****     #if (CapSense_CSD_IDAC1_POLARITY == CapSense_CSD__IDAC_SINK)
 240:Generated_Source\PSoC4/CapSense_CSD.c ****         /* iDAC1 Sinking Mode */
 241:Generated_Source\PSoC4/CapSense_CSD.c ****         CapSense_CSD_csdTrim2 = (uint8)CapSense_CSD_CSD_TRIM2_REG;
 242:Generated_Source\PSoC4/CapSense_CSD.c ****         newRegValue = CapSense_CSD_csdTrim2;
 243:Generated_Source\PSoC4/CapSense_CSD.c ****         newRegValue &= CapSense_CSD_CSD_IDAC1_TRIM_MASK;
 244:Generated_Source\PSoC4/CapSense_CSD.c ****         newRegValue |= (uint32)((uint32)CapSense_CSD_SFLASH_CSD_TRIM2_REG & (uint32)CapSense_CSD_CS
 245:Generated_Source\PSoC4/CapSense_CSD.c **** 
 246:Generated_Source\PSoC4/CapSense_CSD.c ****         #if (CapSense_CSD_IDAC_CNT == 2u)
 247:Generated_Source\PSoC4/CapSense_CSD.c ****             /* iDAC2 Sinking Mode */
 248:Generated_Source\PSoC4/CapSense_CSD.c ****             newRegValue &= CapSense_CSD_CSD_IDAC2_TRIM_MASK;
ARM GAS  C:\Users\ZTIPRI~1\AppData\Local\Temp\ccBGTz86.s 			page 6


 249:Generated_Source\PSoC4/CapSense_CSD.c ****             newRegValue |= (uint32)((uint32)CapSense_CSD_SFLASH_CSD_TRIM2_REG & (uint32)CapSense_CS
 250:Generated_Source\PSoC4/CapSense_CSD.c ****         #endif /* (CapSense_CSD_IDAC_CNT == 2u) */
 251:Generated_Source\PSoC4/CapSense_CSD.c ****         CapSense_CSD_CSD_TRIM2_REG = newRegValue;
 252:Generated_Source\PSoC4/CapSense_CSD.c ****     #else
 253:Generated_Source\PSoC4/CapSense_CSD.c ****         /* iDAC1 Sourcing Mode */
 254:Generated_Source\PSoC4/CapSense_CSD.c ****         CapSense_CSD_csdTrim1 = (uint8)CapSense_CSD_CSD_TRIM1_REG;
  38              		.loc 1 254 0
  39 0002 1648     		ldr	r0, .L2
  40 0004 0368     		ldr	r3, [r0]
  41 0006 DBB2     		uxtb	r3, r3
  42 0008 154A     		ldr	r2, .L2+4
  43 000a 1370     		strb	r3, [r2]
  44              	.LVL0:
 255:Generated_Source\PSoC4/CapSense_CSD.c ****         newRegValue = CapSense_CSD_csdTrim1;
 256:Generated_Source\PSoC4/CapSense_CSD.c ****         newRegValue &= CapSense_CSD_CSD_IDAC1_TRIM_MASK;
  45              		.loc 1 256 0
  46 000c 0F24     		movs	r4, #15
  47 000e A343     		bics	r3, r4
  48              	.LVL1:
  49 0010 1900     		movs	r1, r3
  50              	.LVL2:
 257:Generated_Source\PSoC4/CapSense_CSD.c ****         newRegValue |= (uint32)((uint32)CapSense_CSD_SFLASH_CSD_TRIM1_REG & (uint32)CapSense_CSD_CS
  51              		.loc 1 257 0
  52 0012 144D     		ldr	r5, .L2+8
  53 0014 2B78     		ldrb	r3, [r5]
  54 0016 0F22     		movs	r2, #15
  55 0018 1340     		ands	r3, r2
  56 001a 0B43     		orrs	r3, r1
  57              	.LVL3:
 258:Generated_Source\PSoC4/CapSense_CSD.c ****         #if (CapSense_CSD_IDAC_CNT == 2u)
 259:Generated_Source\PSoC4/CapSense_CSD.c ****              /* iDAC2 Sourcing Mode */
 260:Generated_Source\PSoC4/CapSense_CSD.c ****             newRegValue &= CapSense_CSD_CSD_IDAC2_TRIM_MASK;
  58              		.loc 1 260 0
  59 001c E132     		adds	r2, r2, #225
  60 001e 9343     		bics	r3, r2
  61              	.LVL4:
 261:Generated_Source\PSoC4/CapSense_CSD.c ****             newRegValue |= (uint32)((uint32)CapSense_CSD_SFLASH_CSD_TRIM1_REG & (uint32)CapSense_CS
  62              		.loc 1 261 0
  63 0020 2A78     		ldrb	r2, [r5]
  64 0022 A243     		bics	r2, r4
  65 0024 1343     		orrs	r3, r2
  66              	.LVL5:
 262:Generated_Source\PSoC4/CapSense_CSD.c ****         #endif
 263:Generated_Source\PSoC4/CapSense_CSD.c ****         CapSense_CSD_CSD_TRIM1_REG = newRegValue;
  67              		.loc 1 263 0
  68 0026 0360     		str	r3, [r0]
 264:Generated_Source\PSoC4/CapSense_CSD.c ****     #endif /* (CapSense_CSD_IDAC1_POLARITY == CapSense_CSD__IDAC_SINK) */
 265:Generated_Source\PSoC4/CapSense_CSD.c **** 
 266:Generated_Source\PSoC4/CapSense_CSD.c ****     /* Configure CSD and IDAC */
 267:Generated_Source\PSoC4/CapSense_CSD.c ****     #if (CapSense_CSD_IDAC_CNT > 1u)
 268:Generated_Source\PSoC4/CapSense_CSD.c ****         CapSense_CSD_CSD_IDAC_REG = CapSense_CSD_DEFAULT_CSD_IDAC_CONFIG;
  69              		.loc 1 268 0
  70 0028 0F4A     		ldr	r2, .L2+12
  71 002a 104B     		ldr	r3, .L2+16
  72              	.LVL6:
  73 002c 1A60     		str	r2, [r3]
  74              	.LVL7:
ARM GAS  C:\Users\ZTIPRI~1\AppData\Local\Temp\ccBGTz86.s 			page 7


 269:Generated_Source\PSoC4/CapSense_CSD.c ****         CapSense_CSD_CSD_CFG_REG = CapSense_CSD_DEFAULT_CSD_CONFIG;
  75              		.loc 1 269 0
  76 002e 104A     		ldr	r2, .L2+20
  77 0030 104B     		ldr	r3, .L2+24
  78 0032 1A60     		str	r2, [r3]
 270:Generated_Source\PSoC4/CapSense_CSD.c ****     #else
 271:Generated_Source\PSoC4/CapSense_CSD.c ****         CapSense_CSD_CSD_IDAC_REG &= ~(CapSense_CSD_CSD_IDAC1_MODE_MASK  | CapSense_CSD_CSD_IDAC1_D
 272:Generated_Source\PSoC4/CapSense_CSD.c ****         CapSense_CSD_CSD_IDAC_REG |= CapSense_CSD_DEFAULT_CSD_IDAC_CONFIG;
 273:Generated_Source\PSoC4/CapSense_CSD.c **** 
 274:Generated_Source\PSoC4/CapSense_CSD.c ****         CapSense_CSD_CSD_CFG_REG &= ~(CapSense_CSD_CSD_CONFIG_MASK);
 275:Generated_Source\PSoC4/CapSense_CSD.c ****         CapSense_CSD_CSD_CFG_REG |= (CapSense_CSD_DEFAULT_CSD_CONFIG);
 276:Generated_Source\PSoC4/CapSense_CSD.c ****     #endif /* (CapSense_CSD_IDAC_CNT > 1u) */
 277:Generated_Source\PSoC4/CapSense_CSD.c **** 
 278:Generated_Source\PSoC4/CapSense_CSD.c **** 
 279:Generated_Source\PSoC4/CapSense_CSD.c ****     /* Connect Cmod to AMUX bus */
 280:Generated_Source\PSoC4/CapSense_CSD.c ****     newRegValue = CapSense_CSD_CMOD_CONNECTION_REG;
  79              		.loc 1 280 0
  80 0034 104A     		ldr	r2, .L2+28
  81 0036 1168     		ldr	r1, [r2]
  82              	.LVL8:
 281:Generated_Source\PSoC4/CapSense_CSD.c ****     newRegValue &= ~(CapSense_CSD_CSD_CMOD_CONNECTION_MASK);
  83              		.loc 1 281 0
  84 0038 104B     		ldr	r3, .L2+32
  85 003a 0B40     		ands	r3, r1
  86              	.LVL9:
 282:Generated_Source\PSoC4/CapSense_CSD.c ****     newRegValue |= CapSense_CSD_CSD_CMOD_TO_AMUXBUS_A;
  87              		.loc 1 282 0
  88 003c C021     		movs	r1, #192
  89 003e C900     		lsls	r1, r1, #3
  90 0040 0B43     		orrs	r3, r1
  91              	.LVL10:
 283:Generated_Source\PSoC4/CapSense_CSD.c ****     CapSense_CSD_CMOD_CONNECTION_REG = newRegValue;
  92              		.loc 1 283 0
  93 0042 1360     		str	r3, [r2]
 284:Generated_Source\PSoC4/CapSense_CSD.c **** 
 285:Generated_Source\PSoC4/CapSense_CSD.c ****     /* Configure Dead Band PWM if it is enabled */
 286:Generated_Source\PSoC4/CapSense_CSD.c ****     #if(CapSense_CSD_CSD_4B_PWM_MODE != CapSense_CSD__PWM_OFF)
 287:Generated_Source\PSoC4/CapSense_CSD.c ****         CapSense_CSD_CSD_4B_PWM_REG = CapSense_CSD_DEFAULT_CSD_4B_PWM_CONFIG;
 288:Generated_Source\PSoC4/CapSense_CSD.c ****     #endif /* (CapSense_CSD_CSD_4B_PWM_MODE != CapSense_CSD__PWM_OFF) */
 289:Generated_Source\PSoC4/CapSense_CSD.c **** 
 290:Generated_Source\PSoC4/CapSense_CSD.c ****     /* Setup ISR */
 291:Generated_Source\PSoC4/CapSense_CSD.c ****     CyIntDisable(CapSense_CSD_ISR_NUMBER);
  94              		.loc 1 291 0
  95 0044 0F20     		movs	r0, #15
  96 0046 FFF7FEFF 		bl	CyIntDisable
  97              	.LVL11:
 292:Generated_Source\PSoC4/CapSense_CSD.c ****     #if !defined(CY_EXTERNAL_INTERRUPT_CONFIG)
 293:Generated_Source\PSoC4/CapSense_CSD.c ****         (void)CyIntSetVector(CapSense_CSD_ISR_NUMBER, &CapSense_CSD_ISR);
  98              		.loc 1 293 0
  99 004a 0D49     		ldr	r1, .L2+36
 100 004c 0F20     		movs	r0, #15
 101 004e FFF7FEFF 		bl	CyIntSetVector
 102              	.LVL12:
 294:Generated_Source\PSoC4/CapSense_CSD.c ****         CyIntSetPriority(CapSense_CSD_ISR_NUMBER, CapSense_CSD_ISR_PRIORITY);
 103              		.loc 1 294 0
 104 0052 0321     		movs	r1, #3
 105 0054 0F20     		movs	r0, #15
ARM GAS  C:\Users\ZTIPRI~1\AppData\Local\Temp\ccBGTz86.s 			page 8


 106 0056 FFF7FEFF 		bl	CyIntSetPriority
 107              	.LVL13:
 295:Generated_Source\PSoC4/CapSense_CSD.c ****     #endif /* (CY_EXTERNAL_INTERRUPT_CONFIG) */
 296:Generated_Source\PSoC4/CapSense_CSD.c **** }
 108              		.loc 1 296 0
 109              		@ sp needed
 110 005a 70BD     		pop	{r4, r5, r6, pc}
 111              	.L3:
 112              		.align	2
 113              	.L2:
 114 005c 00FF0840 		.word	1074331392
 115 0060 00000000 		.word	CapSense_CSD_csdTrim1
 116 0064 62F1FF0F 		.word	268431714
 117 0068 00020001 		.word	16777728
 118 006c 08000840 		.word	1074266120
 119 0070 0008A001 		.word	27265024
 120 0074 04000840 		.word	1074266116
 121 0078 10000140 		.word	1073807376
 122 007c FFF0FFFF 		.word	-3841
 123 0080 00000000 		.word	CapSense_CSD_ISR
 124              		.cfi_endproc
 125              	.LFE33:
 126              		.size	CapSense_CSD_CsdHwBlockInit, .-CapSense_CSD_CsdHwBlockInit
 127              		.section	.text.CapSense_CSD_Enable,"ax",%progbits
 128              		.align	2
 129              		.global	CapSense_CSD_Enable
 130              		.code	16
 131              		.thumb_func
 132              		.type	CapSense_CSD_Enable, %function
 133              	CapSense_CSD_Enable:
 134              	.LFB34:
 297:Generated_Source\PSoC4/CapSense_CSD.c **** 
 298:Generated_Source\PSoC4/CapSense_CSD.c **** 
 299:Generated_Source\PSoC4/CapSense_CSD.c **** /*******************************************************************************
 300:Generated_Source\PSoC4/CapSense_CSD.c **** * Function Name: CapSense_CSD_Enable
 301:Generated_Source\PSoC4/CapSense_CSD.c **** ********************************************************************************
 302:Generated_Source\PSoC4/CapSense_CSD.c **** *
 303:Generated_Source\PSoC4/CapSense_CSD.c **** * Summary:
 304:Generated_Source\PSoC4/CapSense_CSD.c **** *  Enables the CSD block and related resources to an active mode.
 305:Generated_Source\PSoC4/CapSense_CSD.c **** *
 306:Generated_Source\PSoC4/CapSense_CSD.c **** * Parameters:
 307:Generated_Source\PSoC4/CapSense_CSD.c **** *  None
 308:Generated_Source\PSoC4/CapSense_CSD.c **** *
 309:Generated_Source\PSoC4/CapSense_CSD.c **** * Return:
 310:Generated_Source\PSoC4/CapSense_CSD.c **** *  None
 311:Generated_Source\PSoC4/CapSense_CSD.c **** *
 312:Generated_Source\PSoC4/CapSense_CSD.c **** * Global Variables:
 313:Generated_Source\PSoC4/CapSense_CSD.c **** *  None.
 314:Generated_Source\PSoC4/CapSense_CSD.c **** *
 315:Generated_Source\PSoC4/CapSense_CSD.c **** * Side Effects:
 316:Generated_Source\PSoC4/CapSense_CSD.c **** *  None
 317:Generated_Source\PSoC4/CapSense_CSD.c **** *
 318:Generated_Source\PSoC4/CapSense_CSD.c **** *******************************************************************************/
 319:Generated_Source\PSoC4/CapSense_CSD.c **** void CapSense_CSD_Enable(void)
 320:Generated_Source\PSoC4/CapSense_CSD.c **** {
 135              		.loc 1 320 0
 136              		.cfi_startproc
ARM GAS  C:\Users\ZTIPRI~1\AppData\Local\Temp\ccBGTz86.s 			page 9


 137              		@ args = 0, pretend = 0, frame = 0
 138              		@ frame_needed = 0, uses_anonymous_args = 0
 139 0000 10B5     		push	{r4, lr}
 140              		.cfi_def_cfa_offset 8
 141              		.cfi_offset 4, -8
 142              		.cfi_offset 14, -4
 321:Generated_Source\PSoC4/CapSense_CSD.c ****     uint32 newRegValue;
 322:Generated_Source\PSoC4/CapSense_CSD.c **** 
 323:Generated_Source\PSoC4/CapSense_CSD.c ****     /* Enable Clocks */
 324:Generated_Source\PSoC4/CapSense_CSD.c ****     CapSense_CSD_SenseClk_Stop();
 143              		.loc 1 324 0
 144 0002 FFF7FEFF 		bl	CapSense_CSD_SenseClk_Stop
 145              	.LVL14:
 325:Generated_Source\PSoC4/CapSense_CSD.c ****     CapSense_CSD_SampleClk_Stop();
 146              		.loc 1 325 0
 147 0006 FFF7FEFF 		bl	CapSense_CSD_SampleClk_Stop
 148              	.LVL15:
 326:Generated_Source\PSoC4/CapSense_CSD.c **** 
 327:Generated_Source\PSoC4/CapSense_CSD.c ****     CapSense_CSD_SampleClk_SetDividerValue((uint16)CapSense_CSD_INITIAL_CLK_DIVIDER);
 149              		.loc 1 327 0
 150 000a 0021     		movs	r1, #0
 151 000c 0020     		movs	r0, #0
 152 000e FFF7FEFF 		bl	CapSense_CSD_SampleClk_SetFractionalDividerRegister
 153              	.LVL16:
 328:Generated_Source\PSoC4/CapSense_CSD.c ****     CapSense_CSD_SenseClk_SetDividerValue((uint16)CapSense_CSD_INITIAL_CLK_DIVIDER);
 154              		.loc 1 328 0
 155 0012 0021     		movs	r1, #0
 156 0014 0020     		movs	r0, #0
 157 0016 FFF7FEFF 		bl	CapSense_CSD_SenseClk_SetFractionalDividerRegister
 158              	.LVL17:
 329:Generated_Source\PSoC4/CapSense_CSD.c **** 
 330:Generated_Source\PSoC4/CapSense_CSD.c ****     #if (0u == CapSense_CSD_IS_M0S8PERI_BLOCK)
 331:Generated_Source\PSoC4/CapSense_CSD.c ****         CapSense_CSD_SenseClk_Start();
 159              		.loc 1 331 0
 160 001a FFF7FEFF 		bl	CapSense_CSD_SenseClk_Start
 161              	.LVL18:
 332:Generated_Source\PSoC4/CapSense_CSD.c ****         CapSense_CSD_SampleClk_Start();
 162              		.loc 1 332 0
 163 001e FFF7FEFF 		bl	CapSense_CSD_SampleClk_Start
 164              	.LVL19:
 333:Generated_Source\PSoC4/CapSense_CSD.c ****     #else
 334:Generated_Source\PSoC4/CapSense_CSD.c ****         CapSense_CSD_SampleClk_Start();
 335:Generated_Source\PSoC4/CapSense_CSD.c ****         CapSense_CSD_SenseClk_StartEx(CapSense_CSD_SampleClk__DIV_ID);
 336:Generated_Source\PSoC4/CapSense_CSD.c ****     #endif /* (0u == CapSense_CSD_IS_M0S8PERI_BLOCK) */
 337:Generated_Source\PSoC4/CapSense_CSD.c **** 
 338:Generated_Source\PSoC4/CapSense_CSD.c ****     /* Enable the CSD block */
 339:Generated_Source\PSoC4/CapSense_CSD.c ****     newRegValue = CapSense_CSD_CSD_CFG_REG;
 165              		.loc 1 339 0
 166 0022 044A     		ldr	r2, .L5
 167 0024 1368     		ldr	r3, [r2]
 168              	.LVL20:
 340:Generated_Source\PSoC4/CapSense_CSD.c ****     newRegValue |= (CapSense_CSD_CSD_CFG_ENABLE | CapSense_CSD_CSD_CFG_SENSE_COMP_EN
 169              		.loc 1 340 0
 170 0026 0449     		ldr	r1, .L5+4
 171 0028 0B43     		orrs	r3, r1
 172              	.LVL21:
 341:Generated_Source\PSoC4/CapSense_CSD.c ****                                                    | CapSense_CSD_CSD_CFG_SENSE_EN);
ARM GAS  C:\Users\ZTIPRI~1\AppData\Local\Temp\ccBGTz86.s 			page 10


 342:Generated_Source\PSoC4/CapSense_CSD.c ****     CapSense_CSD_CSD_CFG_REG = newRegValue;
 173              		.loc 1 342 0
 174 002a 1360     		str	r3, [r2]
 343:Generated_Source\PSoC4/CapSense_CSD.c **** 
 344:Generated_Source\PSoC4/CapSense_CSD.c ****     /* Enable interrupt */
 345:Generated_Source\PSoC4/CapSense_CSD.c ****     CyIntEnable(CapSense_CSD_ISR_NUMBER);
 175              		.loc 1 345 0
 176 002c 0F20     		movs	r0, #15
 177 002e FFF7FEFF 		bl	CyIntEnable
 178              	.LVL22:
 346:Generated_Source\PSoC4/CapSense_CSD.c **** }
 179              		.loc 1 346 0
 180              		@ sp needed
 181 0032 10BD     		pop	{r4, pc}
 182              	.L6:
 183              		.align	2
 184              	.L5:
 185 0034 04000840 		.word	1074266116
 186 0038 00100880 		.word	-2146955264
 187              		.cfi_endproc
 188              	.LFE34:
 189              		.size	CapSense_CSD_Enable, .-CapSense_CSD_Enable
 190              		.section	.text.CapSense_CSD_Stop,"ax",%progbits
 191              		.align	2
 192              		.global	CapSense_CSD_Stop
 193              		.code	16
 194              		.thumb_func
 195              		.type	CapSense_CSD_Stop, %function
 196              	CapSense_CSD_Stop:
 197              	.LFB36:
 347:Generated_Source\PSoC4/CapSense_CSD.c **** 
 348:Generated_Source\PSoC4/CapSense_CSD.c **** 
 349:Generated_Source\PSoC4/CapSense_CSD.c **** /*******************************************************************************
 350:Generated_Source\PSoC4/CapSense_CSD.c **** * Function Name: CapSense_CSD_Start
 351:Generated_Source\PSoC4/CapSense_CSD.c **** ********************************************************************************
 352:Generated_Source\PSoC4/CapSense_CSD.c **** *
 353:Generated_Source\PSoC4/CapSense_CSD.c **** * Summary:
 354:Generated_Source\PSoC4/CapSense_CSD.c **** *  This is the preferred method to begin the component operation. CapSense_Start()
 355:Generated_Source\PSoC4/CapSense_CSD.c **** *  calls the CapSense_Init() function, and then calls the CapSense_Enable()
 356:Generated_Source\PSoC4/CapSense_CSD.c **** *  function. Initializes the registers and starts the CSD method of the CapSense
 357:Generated_Source\PSoC4/CapSense_CSD.c **** *  component. Resets all the sensors to an inactive state. Enables interrupts for
 358:Generated_Source\PSoC4/CapSense_CSD.c **** *  sensors scanning. When the SmartSense tuning mode is selected, the tuning procedure
 359:Generated_Source\PSoC4/CapSense_CSD.c **** *  is applied for all the sensors. The CapSense_Start() routine must be called before
 360:Generated_Source\PSoC4/CapSense_CSD.c **** *  any other API routines.
 361:Generated_Source\PSoC4/CapSense_CSD.c **** *
 362:Generated_Source\PSoC4/CapSense_CSD.c **** * Parameters:
 363:Generated_Source\PSoC4/CapSense_CSD.c **** *  None
 364:Generated_Source\PSoC4/CapSense_CSD.c **** *
 365:Generated_Source\PSoC4/CapSense_CSD.c **** * Return:
 366:Generated_Source\PSoC4/CapSense_CSD.c **** *  None
 367:Generated_Source\PSoC4/CapSense_CSD.c **** *
 368:Generated_Source\PSoC4/CapSense_CSD.c **** * Global Variables:
 369:Generated_Source\PSoC4/CapSense_CSD.c **** *   CapSense_CSD_initVar - used to check the initial configuration,
 370:Generated_Source\PSoC4/CapSense_CSD.c **** *   modified on the first function call.
 371:Generated_Source\PSoC4/CapSense_CSD.c **** *  CapSense_CSD_lowLevelTuningDone - Used to notify the Tuner GUI that
 372:Generated_Source\PSoC4/CapSense_CSD.c **** *   tuning of the scanning parameters is done.
 373:Generated_Source\PSoC4/CapSense_CSD.c **** *
ARM GAS  C:\Users\ZTIPRI~1\AppData\Local\Temp\ccBGTz86.s 			page 11


 374:Generated_Source\PSoC4/CapSense_CSD.c **** * Side Effects:
 375:Generated_Source\PSoC4/CapSense_CSD.c **** *  None
 376:Generated_Source\PSoC4/CapSense_CSD.c **** *
 377:Generated_Source\PSoC4/CapSense_CSD.c **** *******************************************************************************/
 378:Generated_Source\PSoC4/CapSense_CSD.c **** void CapSense_CSD_Start(void)
 379:Generated_Source\PSoC4/CapSense_CSD.c **** {
 380:Generated_Source\PSoC4/CapSense_CSD.c **** 
 381:Generated_Source\PSoC4/CapSense_CSD.c ****     static uint8 CapSense_CSD_initVar = 0u;
 382:Generated_Source\PSoC4/CapSense_CSD.c **** 
 383:Generated_Source\PSoC4/CapSense_CSD.c ****     #if((0u != CapSense_CSD_AUTOCALIBRATION_ENABLE) && (CapSense_CSD_TUNING_METHOD != CapSense_CSD_
 384:Generated_Source\PSoC4/CapSense_CSD.c ****         uint32 curSensor;
 385:Generated_Source\PSoC4/CapSense_CSD.c ****         uint32 rawLevel;
 386:Generated_Source\PSoC4/CapSense_CSD.c ****         uint32 widget;
 387:Generated_Source\PSoC4/CapSense_CSD.c ****     #endif /* ((0u != CapSense_CSD_AUTOCALIBRATION_ENABLE) && (CapSense_CSD_TUNING_METHOD != CapSen
 388:Generated_Source\PSoC4/CapSense_CSD.c **** 
 389:Generated_Source\PSoC4/CapSense_CSD.c ****     if (CapSense_CSD_initVar == 0u)
 390:Generated_Source\PSoC4/CapSense_CSD.c ****     {
 391:Generated_Source\PSoC4/CapSense_CSD.c ****         CapSense_CSD_Init();
 392:Generated_Source\PSoC4/CapSense_CSD.c ****         CapSense_CSD_initVar = 1u;
 393:Generated_Source\PSoC4/CapSense_CSD.c ****     }
 394:Generated_Source\PSoC4/CapSense_CSD.c ****     CapSense_CSD_Enable();
 395:Generated_Source\PSoC4/CapSense_CSD.c **** 
 396:Generated_Source\PSoC4/CapSense_CSD.c ****     /* AutoTunning start */
 397:Generated_Source\PSoC4/CapSense_CSD.c ****     #if(CapSense_CSD_TUNING_METHOD == CapSense_CSD__TUNING_AUTO)
 398:Generated_Source\PSoC4/CapSense_CSD.c ****         #if(0u != CapSense_CSD_CSHL_API_GENERATE)
 399:Generated_Source\PSoC4/CapSense_CSD.c ****             CapSense_CSD_AutoTune();
 400:Generated_Source\PSoC4/CapSense_CSD.c ****             CapSense_CSD_lowLevelTuningDone = 1u;
 401:Generated_Source\PSoC4/CapSense_CSD.c ****         #endif /* (0u != CapSense_CSD_CSHL_API_GENERATE) */
 402:Generated_Source\PSoC4/CapSense_CSD.c ****     #else
 403:Generated_Source\PSoC4/CapSense_CSD.c ****         #if(0u != CapSense_CSD_AUTOCALIBRATION_ENABLE)
 404:Generated_Source\PSoC4/CapSense_CSD.c **** 
 405:Generated_Source\PSoC4/CapSense_CSD.c ****             #if(CapSense_CSD_IDAC_CNT > 1u)
 406:Generated_Source\PSoC4/CapSense_CSD.c ****                 CapSense_CSD_CSD_IDAC_REG &= ~(CapSense_CSD_CSD_IDAC2_MODE_MASK);
 407:Generated_Source\PSoC4/CapSense_CSD.c ****             #endif /* (CapSense_CSD_IDAC_CNT > 1u) */
 408:Generated_Source\PSoC4/CapSense_CSD.c **** 
 409:Generated_Source\PSoC4/CapSense_CSD.c ****             for(curSensor = 0u; curSensor < CapSense_CSD_TOTAL_SCANSLOT_COUNT; curSensor++)
 410:Generated_Source\PSoC4/CapSense_CSD.c ****             {
 411:Generated_Source\PSoC4/CapSense_CSD.c ****                 widget = CapSense_CSD_widgetNumber[curSensor];
 412:Generated_Source\PSoC4/CapSense_CSD.c ****                 rawLevel = CapSense_CSD_widgetResolution[widget] >> CapSense_CSD_RESOLUTION_OFFSET;
 413:Generated_Source\PSoC4/CapSense_CSD.c **** 
 414:Generated_Source\PSoC4/CapSense_CSD.c ****                 /* Calibration level should be equal to 85% from scanning resolution */
 415:Generated_Source\PSoC4/CapSense_CSD.c ****                 rawLevel = (rawLevel * 85u) / 100u;
 416:Generated_Source\PSoC4/CapSense_CSD.c **** 
 417:Generated_Source\PSoC4/CapSense_CSD.c ****                 CapSense_CSD_CalibrateSensor(curSensor, rawLevel, CapSense_CSD_modulationIDAC);
 418:Generated_Source\PSoC4/CapSense_CSD.c ****             }
 419:Generated_Source\PSoC4/CapSense_CSD.c **** 
 420:Generated_Source\PSoC4/CapSense_CSD.c ****             #if(0u != CapSense_CSD_TOTAL_CENTROIDS_COUNT)
 421:Generated_Source\PSoC4/CapSense_CSD.c ****                 CapSense_CSD_NormalizeWidgets(CapSense_CSD_END_OF_WIDGETS_INDEX, CapSense_CSD_modul
 422:Generated_Source\PSoC4/CapSense_CSD.c ****             #endif /* (0u != CapSense_CSD_TOTAL_CENTROIDS_COUNT)  */
 423:Generated_Source\PSoC4/CapSense_CSD.c **** 
 424:Generated_Source\PSoC4/CapSense_CSD.c ****             #if(CapSense_CSD_IDAC_CNT > 1u)
 425:Generated_Source\PSoC4/CapSense_CSD.c ****                 for(curSensor = 0u; curSensor < CapSense_CSD_TOTAL_SCANSLOT_COUNT; curSensor++)
 426:Generated_Source\PSoC4/CapSense_CSD.c ****                 {
 427:Generated_Source\PSoC4/CapSense_CSD.c ****                     CapSense_CSD_compensationIDAC[curSensor] = CapSense_CSD_modulationIDAC[curSenso
 428:Generated_Source\PSoC4/CapSense_CSD.c ****                     CapSense_CSD_modulationIDAC[curSensor] = (CapSense_CSD_modulationIDAC[curSensor
 429:Generated_Source\PSoC4/CapSense_CSD.c ****                 }
 430:Generated_Source\PSoC4/CapSense_CSD.c ****                 CapSense_CSD_CSD_IDAC_REG |= CapSense_CSD_CSD_IDAC2_MODE_FIXED;
ARM GAS  C:\Users\ZTIPRI~1\AppData\Local\Temp\ccBGTz86.s 			page 12


 431:Generated_Source\PSoC4/CapSense_CSD.c ****             #endif /* (CapSense_CSD_IDAC_CNT > 1u) */
 432:Generated_Source\PSoC4/CapSense_CSD.c **** 
 433:Generated_Source\PSoC4/CapSense_CSD.c ****         #endif /* (0u != CapSense_CSD_AUTOCALIBRATION_ENABLE) */
 434:Generated_Source\PSoC4/CapSense_CSD.c **** 
 435:Generated_Source\PSoC4/CapSense_CSD.c ****     #endif /* ((CapSense_CSD_TUNING_METHOD == CapSense_CSD__TUNING_AUTO) */
 436:Generated_Source\PSoC4/CapSense_CSD.c **** 
 437:Generated_Source\PSoC4/CapSense_CSD.c ****     /* Initialize Advanced Centroid */
 438:Generated_Source\PSoC4/CapSense_CSD.c ****     #if(CapSense_CSD_TOTAL_TRACKPAD_GESTURES_COUNT > 0u)
 439:Generated_Source\PSoC4/CapSense_CSD.c ****         CapSense_CSD_AdvancedCentroidInit();
 440:Generated_Source\PSoC4/CapSense_CSD.c ****     #endif /* (CapSense_CSD_TOTAL_TRACKPAD_GESTURES_COUNT > 0u) */
 441:Generated_Source\PSoC4/CapSense_CSD.c **** 
 442:Generated_Source\PSoC4/CapSense_CSD.c ****     /* Connect sense comparator input to AMUXA */
 443:Generated_Source\PSoC4/CapSense_CSD.c ****     CapSense_CSD_CSD_CFG_REG |= CapSense_CSD_CSD_CFG_SENSE_INSEL;
 444:Generated_Source\PSoC4/CapSense_CSD.c **** }
 445:Generated_Source\PSoC4/CapSense_CSD.c **** 
 446:Generated_Source\PSoC4/CapSense_CSD.c **** 
 447:Generated_Source\PSoC4/CapSense_CSD.c **** /*******************************************************************************
 448:Generated_Source\PSoC4/CapSense_CSD.c **** * Function Name: CapSense_CSD_Stop
 449:Generated_Source\PSoC4/CapSense_CSD.c **** ********************************************************************************
 450:Generated_Source\PSoC4/CapSense_CSD.c **** *
 451:Generated_Source\PSoC4/CapSense_CSD.c **** * Summary:
 452:Generated_Source\PSoC4/CapSense_CSD.c **** *  Stops the sensor scanning, disables component interrupts, and resets all the
 453:Generated_Source\PSoC4/CapSense_CSD.c **** *  sensors to an inactive state. Disables the Active mode power template bits for
 454:Generated_Source\PSoC4/CapSense_CSD.c **** *  the subcomponents used within CapSense.
 455:Generated_Source\PSoC4/CapSense_CSD.c **** *
 456:Generated_Source\PSoC4/CapSense_CSD.c **** * Parameters:
 457:Generated_Source\PSoC4/CapSense_CSD.c **** *  None
 458:Generated_Source\PSoC4/CapSense_CSD.c **** *
 459:Generated_Source\PSoC4/CapSense_CSD.c **** * Return:
 460:Generated_Source\PSoC4/CapSense_CSD.c **** *  None
 461:Generated_Source\PSoC4/CapSense_CSD.c **** *
 462:Generated_Source\PSoC4/CapSense_CSD.c **** * Global Variables:
 463:Generated_Source\PSoC4/CapSense_CSD.c **** *  CapSense_CSD_csdTrim1 - Contains the IDAC trim register value for the Sourcing Mode.
 464:Generated_Source\PSoC4/CapSense_CSD.c **** *  CapSense_CSD_csdTrim2 - Contains the IDAC trim register value for vSinking Mode.
 465:Generated_Source\PSoC4/CapSense_CSD.c **** *
 466:Generated_Source\PSoC4/CapSense_CSD.c **** * Side Effects:
 467:Generated_Source\PSoC4/CapSense_CSD.c **** *  This function should be called after scans are completed.
 468:Generated_Source\PSoC4/CapSense_CSD.c **** *
 469:Generated_Source\PSoC4/CapSense_CSD.c **** *******************************************************************************/
 470:Generated_Source\PSoC4/CapSense_CSD.c **** void CapSense_CSD_Stop(void)
 471:Generated_Source\PSoC4/CapSense_CSD.c **** {
 198              		.loc 1 471 0
 199              		.cfi_startproc
 200              		@ args = 0, pretend = 0, frame = 0
 201              		@ frame_needed = 0, uses_anonymous_args = 0
 202 0000 10B5     		push	{r4, lr}
 203              		.cfi_def_cfa_offset 8
 204              		.cfi_offset 4, -8
 205              		.cfi_offset 14, -4
 472:Generated_Source\PSoC4/CapSense_CSD.c ****     /* Disable interrupt */
 473:Generated_Source\PSoC4/CapSense_CSD.c ****     CyIntDisable(CapSense_CSD_ISR_NUMBER);
 206              		.loc 1 473 0
 207 0002 0F20     		movs	r0, #15
 208 0004 FFF7FEFF 		bl	CyIntDisable
 209              	.LVL23:
 474:Generated_Source\PSoC4/CapSense_CSD.c **** 
 475:Generated_Source\PSoC4/CapSense_CSD.c ****     CapSense_CSD_CSD_CFG_REG &= ~(CapSense_CSD_CSD_CFG_SENSE_COMP_EN | CapSense_CSD_CSD_CFG_SENSE_E
ARM GAS  C:\Users\ZTIPRI~1\AppData\Local\Temp\ccBGTz86.s 			page 13


 210              		.loc 1 475 0
 211 0008 064A     		ldr	r2, .L8
 212 000a 1168     		ldr	r1, [r2]
 213 000c 064B     		ldr	r3, .L8+4
 214 000e 0B40     		ands	r3, r1
 215 0010 1360     		str	r3, [r2]
 476:Generated_Source\PSoC4/CapSense_CSD.c **** 
 477:Generated_Source\PSoC4/CapSense_CSD.c ****     #if(CapSense_CSD_IDAC_CNT == 2u)
 478:Generated_Source\PSoC4/CapSense_CSD.c ****         CapSense_CSD_CSD_CFG_REG &= ~(CapSense_CSD_CSD_CFG_ENABLE);
 216              		.loc 1 478 0
 217 0012 1368     		ldr	r3, [r2]
 218 0014 5B00     		lsls	r3, r3, #1
 219 0016 5B08     		lsrs	r3, r3, #1
 220 0018 1360     		str	r3, [r2]
 479:Generated_Source\PSoC4/CapSense_CSD.c ****     #endif /* (CapSense_CSD_IDAC_CNT == 2u) */
 480:Generated_Source\PSoC4/CapSense_CSD.c **** 
 481:Generated_Source\PSoC4/CapSense_CSD.c ****     /* Disable the Clocks */
 482:Generated_Source\PSoC4/CapSense_CSD.c ****     CapSense_CSD_SenseClk_Stop();
 221              		.loc 1 482 0
 222 001a FFF7FEFF 		bl	CapSense_CSD_SenseClk_Stop
 223              	.LVL24:
 483:Generated_Source\PSoC4/CapSense_CSD.c ****     CapSense_CSD_SampleClk_Stop();
 224              		.loc 1 483 0
 225 001e FFF7FEFF 		bl	CapSense_CSD_SampleClk_Stop
 226              	.LVL25:
 484:Generated_Source\PSoC4/CapSense_CSD.c **** }
 227              		.loc 1 484 0
 228              		@ sp needed
 229 0022 10BD     		pop	{r4, pc}
 230              	.L9:
 231              		.align	2
 232              	.L8:
 233 0024 04000840 		.word	1074266116
 234 0028 FFEFF7FF 		.word	-528385
 235              		.cfi_endproc
 236              	.LFE36:
 237              		.size	CapSense_CSD_Stop, .-CapSense_CSD_Stop
 238              		.section	.text.CapSense_CSD_IsBusy,"ax",%progbits
 239              		.align	2
 240              		.global	CapSense_CSD_IsBusy
 241              		.code	16
 242              		.thumb_func
 243              		.type	CapSense_CSD_IsBusy, %function
 244              	CapSense_CSD_IsBusy:
 245              	.LFB41:
 485:Generated_Source\PSoC4/CapSense_CSD.c **** 
 486:Generated_Source\PSoC4/CapSense_CSD.c **** 
 487:Generated_Source\PSoC4/CapSense_CSD.c **** /*******************************************************************************
 488:Generated_Source\PSoC4/CapSense_CSD.c **** * Function Name: CapSense_CSD_FindNextSensor
 489:Generated_Source\PSoC4/CapSense_CSD.c **** ********************************************************************************
 490:Generated_Source\PSoC4/CapSense_CSD.c **** *
 491:Generated_Source\PSoC4/CapSense_CSD.c **** * Summary:
 492:Generated_Source\PSoC4/CapSense_CSD.c **** *  Finds the next sensor to scan.
 493:Generated_Source\PSoC4/CapSense_CSD.c **** *
 494:Generated_Source\PSoC4/CapSense_CSD.c **** * Parameters:
 495:Generated_Source\PSoC4/CapSense_CSD.c **** *  snsIndex:  Current index of sensor.
 496:Generated_Source\PSoC4/CapSense_CSD.c **** *
ARM GAS  C:\Users\ZTIPRI~1\AppData\Local\Temp\ccBGTz86.s 			page 14


 497:Generated_Source\PSoC4/CapSense_CSD.c **** * Return:
 498:Generated_Source\PSoC4/CapSense_CSD.c **** *  Returns the next sensor index to scan.
 499:Generated_Source\PSoC4/CapSense_CSD.c **** *
 500:Generated_Source\PSoC4/CapSense_CSD.c **** * Global Variables:
 501:Generated_Source\PSoC4/CapSense_CSD.c **** *  CapSense_CSD_sensorEnableMask[] - used to store bit masks of the enabled sensors.
 502:Generated_Source\PSoC4/CapSense_CSD.c **** *
 503:Generated_Source\PSoC4/CapSense_CSD.c **** * Side Effects:
 504:Generated_Source\PSoC4/CapSense_CSD.c **** *  This function affects the  current scanning and should not
 505:Generated_Source\PSoC4/CapSense_CSD.c **** *  be used outside the component.
 506:Generated_Source\PSoC4/CapSense_CSD.c **** *
 507:Generated_Source\PSoC4/CapSense_CSD.c **** *******************************************************************************/
 508:Generated_Source\PSoC4/CapSense_CSD.c **** uint8 CapSense_CSD_FindNextSensor(uint8 snsIndex)
 509:Generated_Source\PSoC4/CapSense_CSD.c **** {
 510:Generated_Source\PSoC4/CapSense_CSD.c ****     uint32 enableFlag;
 511:Generated_Source\PSoC4/CapSense_CSD.c **** 
 512:Generated_Source\PSoC4/CapSense_CSD.c ****     /* Check if sensor enabled */
 513:Generated_Source\PSoC4/CapSense_CSD.c ****     do
 514:Generated_Source\PSoC4/CapSense_CSD.c ****     {
 515:Generated_Source\PSoC4/CapSense_CSD.c ****         /* Proceed with next sensor */
 516:Generated_Source\PSoC4/CapSense_CSD.c ****         snsIndex++;
 517:Generated_Source\PSoC4/CapSense_CSD.c ****         if(snsIndex == CapSense_CSD_TOTAL_SENSOR_COUNT)
 518:Generated_Source\PSoC4/CapSense_CSD.c ****         {
 519:Generated_Source\PSoC4/CapSense_CSD.c ****             break;
 520:Generated_Source\PSoC4/CapSense_CSD.c ****         }
 521:Generated_Source\PSoC4/CapSense_CSD.c ****         enableFlag = CapSense_CSD_GetBitValue(CapSense_CSD_sensorEnableMask, (uint32)snsIndex);
 522:Generated_Source\PSoC4/CapSense_CSD.c ****     }
 523:Generated_Source\PSoC4/CapSense_CSD.c ****     while(enableFlag == 0u);
 524:Generated_Source\PSoC4/CapSense_CSD.c **** 
 525:Generated_Source\PSoC4/CapSense_CSD.c ****     return ((uint8)snsIndex);
 526:Generated_Source\PSoC4/CapSense_CSD.c **** }
 527:Generated_Source\PSoC4/CapSense_CSD.c **** 
 528:Generated_Source\PSoC4/CapSense_CSD.c **** 
 529:Generated_Source\PSoC4/CapSense_CSD.c **** /*******************************************************************************
 530:Generated_Source\PSoC4/CapSense_CSD.c **** * Function Name: CapSense_CSD_ScanSensor
 531:Generated_Source\PSoC4/CapSense_CSD.c **** ********************************************************************************
 532:Generated_Source\PSoC4/CapSense_CSD.c **** *
 533:Generated_Source\PSoC4/CapSense_CSD.c **** * Summary:
 534:Generated_Source\PSoC4/CapSense_CSD.c **** *  Sets the scan settings and starts scanning a sensor. After scanning is complete,
 535:Generated_Source\PSoC4/CapSense_CSD.c **** *  the ISR copies the measured sensor raw data to the global raw sensor array.
 536:Generated_Source\PSoC4/CapSense_CSD.c **** *  Use of the ISR ensures this function is non-blocking.
 537:Generated_Source\PSoC4/CapSense_CSD.c **** *  Each sensor has a unique number within the sensor array.
 538:Generated_Source\PSoC4/CapSense_CSD.c **** *  This number is assigned by the CapSense customizer in sequence.
 539:Generated_Source\PSoC4/CapSense_CSD.c **** *
 540:Generated_Source\PSoC4/CapSense_CSD.c **** * Parameters:
 541:Generated_Source\PSoC4/CapSense_CSD.c **** *  sensor:  Sensor number.
 542:Generated_Source\PSoC4/CapSense_CSD.c **** *
 543:Generated_Source\PSoC4/CapSense_CSD.c **** * Return:
 544:Generated_Source\PSoC4/CapSense_CSD.c **** *  None
 545:Generated_Source\PSoC4/CapSense_CSD.c **** *
 546:Generated_Source\PSoC4/CapSense_CSD.c **** * Global Variables:
 547:Generated_Source\PSoC4/CapSense_CSD.c **** *  CapSense_CSD_csdStatusVar - used to provide the status and mode of the scanning process.
 548:Generated_Source\PSoC4/CapSense_CSD.c **** *  Sets the busy status(scan in progress) and mode of scan as single scan.
 549:Generated_Source\PSoC4/CapSense_CSD.c **** *  CapSense_CSD_sensorIndex - used to store a sensor scanning sensor number.
 550:Generated_Source\PSoC4/CapSense_CSD.c **** *  Sets to the provided sensor argument.
 551:Generated_Source\PSoC4/CapSense_CSD.c **** *
 552:Generated_Source\PSoC4/CapSense_CSD.c **** * Side Effects:
 553:Generated_Source\PSoC4/CapSense_CSD.c **** *  None
ARM GAS  C:\Users\ZTIPRI~1\AppData\Local\Temp\ccBGTz86.s 			page 15


 554:Generated_Source\PSoC4/CapSense_CSD.c **** *
 555:Generated_Source\PSoC4/CapSense_CSD.c **** *******************************************************************************/
 556:Generated_Source\PSoC4/CapSense_CSD.c **** void CapSense_CSD_ScanSensor(uint32 sensor)
 557:Generated_Source\PSoC4/CapSense_CSD.c **** {
 558:Generated_Source\PSoC4/CapSense_CSD.c ****     /* Clears status/control variable and set sensorIndex */
 559:Generated_Source\PSoC4/CapSense_CSD.c ****     CapSense_CSD_csdStatusVar = 0u;
 560:Generated_Source\PSoC4/CapSense_CSD.c ****     CapSense_CSD_sensorIndex = (uint8)sensor;
 561:Generated_Source\PSoC4/CapSense_CSD.c **** 
 562:Generated_Source\PSoC4/CapSense_CSD.c ****     /* Start of sensor scan */
 563:Generated_Source\PSoC4/CapSense_CSD.c ****     CapSense_CSD_csdStatusVar = (CapSense_CSD_SW_STS_BUSY | CapSense_CSD_SW_CTRL_SINGLE_SCAN);
 564:Generated_Source\PSoC4/CapSense_CSD.c ****     CapSense_CSD_PreScan(sensor);
 565:Generated_Source\PSoC4/CapSense_CSD.c **** }
 566:Generated_Source\PSoC4/CapSense_CSD.c **** 
 567:Generated_Source\PSoC4/CapSense_CSD.c **** 
 568:Generated_Source\PSoC4/CapSense_CSD.c **** #if(0u != CapSense_CSD_CSHL_API_GENERATE)
 569:Generated_Source\PSoC4/CapSense_CSD.c **** /*******************************************************************************
 570:Generated_Source\PSoC4/CapSense_CSD.c **** * Function Name: CapSense_CSD_ScanWidget
 571:Generated_Source\PSoC4/CapSense_CSD.c **** ********************************************************************************
 572:Generated_Source\PSoC4/CapSense_CSD.c **** *
 573:Generated_Source\PSoC4/CapSense_CSD.c **** * Summary:
 574:Generated_Source\PSoC4/CapSense_CSD.c **** *  Sets the scan settings and starts scanning a widget.
 575:Generated_Source\PSoC4/CapSense_CSD.c **** *
 576:Generated_Source\PSoC4/CapSense_CSD.c **** * Parameters:
 577:Generated_Source\PSoC4/CapSense_CSD.c **** *  uint32 widget: Widget number.
 578:Generated_Source\PSoC4/CapSense_CSD.c **** *
 579:Generated_Source\PSoC4/CapSense_CSD.c **** * Return:
 580:Generated_Source\PSoC4/CapSense_CSD.c **** *  None
 581:Generated_Source\PSoC4/CapSense_CSD.c **** *
 582:Generated_Source\PSoC4/CapSense_CSD.c **** * Global Variables:
 583:Generated_Source\PSoC4/CapSense_CSD.c **** *  CapSense_CSD_csdStatusVar - used to provide the status and mode of the scanning process.
 584:Generated_Source\PSoC4/CapSense_CSD.c **** *  Sets the busy status(scan in progress) and clears the single scan mode.
 585:Generated_Source\PSoC4/CapSense_CSD.c **** *  CapSense_CSD_sensorIndex - used to store a sensor scanning sensor number.
 586:Generated_Source\PSoC4/CapSense_CSD.c **** *  Sets to 0xFF and provided to function CapSense_CSD_FindNextSensor or
 587:Generated_Source\PSoC4/CapSense_CSD.c **** *  CapSense_CSD_sensorEnableMask[] - used to store bit masks of the enabled sensors.
 588:Generated_Source\PSoC4/CapSense_CSD.c **** *  CapSense_CSD_sensorEnableMaskBackup[] - used to backup bit masks of the enabled
 589:Generated_Source\PSoC4/CapSense_CSD.c **** *   sensors.
 590:Generated_Source\PSoC4/CapSense_CSD.c **** *
 591:Generated_Source\PSoC4/CapSense_CSD.c **** * Side Effects:
 592:Generated_Source\PSoC4/CapSense_CSD.c **** *  None
 593:Generated_Source\PSoC4/CapSense_CSD.c **** *
 594:Generated_Source\PSoC4/CapSense_CSD.c **** *******************************************************************************/
 595:Generated_Source\PSoC4/CapSense_CSD.c **** void CapSense_CSD_ScanWidget(uint32 widget)
 596:Generated_Source\PSoC4/CapSense_CSD.c **** {
 597:Generated_Source\PSoC4/CapSense_CSD.c ****     uint32 sensorsPerWidget;
 598:Generated_Source\PSoC4/CapSense_CSD.c ****     uint32 lastSensor;
 599:Generated_Source\PSoC4/CapSense_CSD.c ****     uint32 snsIndex;
 600:Generated_Source\PSoC4/CapSense_CSD.c **** 
 601:Generated_Source\PSoC4/CapSense_CSD.c ****     /* Get first sensor in widget */
 602:Generated_Source\PSoC4/CapSense_CSD.c ****     CapSense_CSD_sensorIndex = CapSense_CSD_rawDataIndex[widget];
 603:Generated_Source\PSoC4/CapSense_CSD.c **** 
 604:Generated_Source\PSoC4/CapSense_CSD.c ****     /* Get number of sensors in widget */
 605:Generated_Source\PSoC4/CapSense_CSD.c ****     sensorsPerWidget = CapSense_CSD_numberOfSensors[widget];
 606:Generated_Source\PSoC4/CapSense_CSD.c **** 
 607:Generated_Source\PSoC4/CapSense_CSD.c ****     /* Check if generic Sensor */
 608:Generated_Source\PSoC4/CapSense_CSD.c ****     if(sensorsPerWidget == 0u)
 609:Generated_Source\PSoC4/CapSense_CSD.c ****     {
 610:Generated_Source\PSoC4/CapSense_CSD.c ****         sensorsPerWidget = 1u;
ARM GAS  C:\Users\ZTIPRI~1\AppData\Local\Temp\ccBGTz86.s 			page 16


 611:Generated_Source\PSoC4/CapSense_CSD.c ****     }
 612:Generated_Source\PSoC4/CapSense_CSD.c **** 
 613:Generated_Source\PSoC4/CapSense_CSD.c ****     /* Get last sensor in widget */
 614:Generated_Source\PSoC4/CapSense_CSD.c ****     lastSensor = (CapSense_CSD_rawDataIndex[widget] + sensorsPerWidget) - 1u;
 615:Generated_Source\PSoC4/CapSense_CSD.c **** 
 616:Generated_Source\PSoC4/CapSense_CSD.c ****     /* Backup sensorEnableMask array */
 617:Generated_Source\PSoC4/CapSense_CSD.c ****     for(snsIndex = 0u; snsIndex < CapSense_CSD_TOTAL_SENSOR_MASK; snsIndex++)
 618:Generated_Source\PSoC4/CapSense_CSD.c ****     {
 619:Generated_Source\PSoC4/CapSense_CSD.c ****         /* Backup sensorEnableMask array */
 620:Generated_Source\PSoC4/CapSense_CSD.c ****         CapSense_CSD_sensorEnableMaskBackup[snsIndex] = CapSense_CSD_sensorEnableMask[snsIndex];
 621:Generated_Source\PSoC4/CapSense_CSD.c ****     }
 622:Generated_Source\PSoC4/CapSense_CSD.c **** 
 623:Generated_Source\PSoC4/CapSense_CSD.c ****     /* Update sensorEnableMask to scan the sensors that belong to widget */
 624:Generated_Source\PSoC4/CapSense_CSD.c ****     for(snsIndex = 0u; snsIndex < CapSense_CSD_TOTAL_SENSOR_COUNT; snsIndex++)
 625:Generated_Source\PSoC4/CapSense_CSD.c ****     {
 626:Generated_Source\PSoC4/CapSense_CSD.c ****         /* Update sensorEnableMask array bits to scan the widget only */
 627:Generated_Source\PSoC4/CapSense_CSD.c ****         if((snsIndex >= CapSense_CSD_sensorIndex) && (snsIndex <= lastSensor))
 628:Generated_Source\PSoC4/CapSense_CSD.c ****         {
 629:Generated_Source\PSoC4/CapSense_CSD.c ****             /* Set sensor bit to scan */
 630:Generated_Source\PSoC4/CapSense_CSD.c ****             CapSense_CSD_SetBitValue(CapSense_CSD_sensorEnableMask, snsIndex, 1u);
 631:Generated_Source\PSoC4/CapSense_CSD.c ****         }
 632:Generated_Source\PSoC4/CapSense_CSD.c ****         else
 633:Generated_Source\PSoC4/CapSense_CSD.c ****         {
 634:Generated_Source\PSoC4/CapSense_CSD.c ****             /* Reset sensor bit to do not scan */
 635:Generated_Source\PSoC4/CapSense_CSD.c ****             CapSense_CSD_SetBitValue(CapSense_CSD_sensorEnableMask, snsIndex, 0u);
 636:Generated_Source\PSoC4/CapSense_CSD.c ****         }
 637:Generated_Source\PSoC4/CapSense_CSD.c ****     }
 638:Generated_Source\PSoC4/CapSense_CSD.c **** 
 639:Generated_Source\PSoC4/CapSense_CSD.c ****     /* Check end of scan condition */
 640:Generated_Source\PSoC4/CapSense_CSD.c ****     if(CapSense_CSD_sensorIndex < CapSense_CSD_TOTAL_SENSOR_COUNT)
 641:Generated_Source\PSoC4/CapSense_CSD.c ****     {
 642:Generated_Source\PSoC4/CapSense_CSD.c ****         /* Set widget busy bit in status/control variable*/
 643:Generated_Source\PSoC4/CapSense_CSD.c ****         CapSense_CSD_csdStatusVar = (CapSense_CSD_SW_STS_BUSY | CapSense_CSD_SW_CTRL_WIDGET_SCAN);
 644:Generated_Source\PSoC4/CapSense_CSD.c ****         /* Scan first sensor of widget*/
 645:Generated_Source\PSoC4/CapSense_CSD.c ****         CapSense_CSD_PreScan((uint32)CapSense_CSD_sensorIndex);
 646:Generated_Source\PSoC4/CapSense_CSD.c ****     }
 647:Generated_Source\PSoC4/CapSense_CSD.c **** }
 648:Generated_Source\PSoC4/CapSense_CSD.c **** #endif /* (0u != CapSense_CSD_CSHL_API_GENERATE) */
 649:Generated_Source\PSoC4/CapSense_CSD.c **** 
 650:Generated_Source\PSoC4/CapSense_CSD.c **** 
 651:Generated_Source\PSoC4/CapSense_CSD.c **** /*******************************************************************************
 652:Generated_Source\PSoC4/CapSense_CSD.c **** * Function Name: CapSense_CSD_ScanEnableWidgets
 653:Generated_Source\PSoC4/CapSense_CSD.c **** ********************************************************************************
 654:Generated_Source\PSoC4/CapSense_CSD.c **** *
 655:Generated_Source\PSoC4/CapSense_CSD.c **** * Summary:
 656:Generated_Source\PSoC4/CapSense_CSD.c **** *  This is the preferred method to scan all of the enabled widgets.
 657:Generated_Source\PSoC4/CapSense_CSD.c **** *  The API starts scanning a sensor within the enabled widgets.
 658:Generated_Source\PSoC4/CapSense_CSD.c **** *  The ISR continues scanning the sensors until all the enabled widgets are scanned.
 659:Generated_Source\PSoC4/CapSense_CSD.c **** *  Use of the ISR ensures this function is non-blocking.
 660:Generated_Source\PSoC4/CapSense_CSD.c **** *  All the widgets are enabled by default except proximity widgets.
 661:Generated_Source\PSoC4/CapSense_CSD.c **** *  The proximity widgets must be manually enabled as their long scan time
 662:Generated_Source\PSoC4/CapSense_CSD.c **** *  is incompatible with a fast response required of other widget types.
 663:Generated_Source\PSoC4/CapSense_CSD.c **** *
 664:Generated_Source\PSoC4/CapSense_CSD.c **** * Parameters:
 665:Generated_Source\PSoC4/CapSense_CSD.c **** *  None
 666:Generated_Source\PSoC4/CapSense_CSD.c **** *
 667:Generated_Source\PSoC4/CapSense_CSD.c **** * Return:
ARM GAS  C:\Users\ZTIPRI~1\AppData\Local\Temp\ccBGTz86.s 			page 17


 668:Generated_Source\PSoC4/CapSense_CSD.c **** *  None
 669:Generated_Source\PSoC4/CapSense_CSD.c **** *
 670:Generated_Source\PSoC4/CapSense_CSD.c **** * Global Variables:
 671:Generated_Source\PSoC4/CapSense_CSD.c **** *  CapSense_CSD_csdStatusVar - used to provide the status and mode of the scanning process.
 672:Generated_Source\PSoC4/CapSense_CSD.c **** *  Sets the busy status(scan in progress) and clears the single scan mode.
 673:Generated_Source\PSoC4/CapSense_CSD.c **** *  CapSense_CSD_sensorIndex - used to store a sensor scanning sensor number.
 674:Generated_Source\PSoC4/CapSense_CSD.c **** *  Sets to 0xFF and provided to function CapSense_CSD_FindNextSensor or
 675:Generated_Source\PSoC4/CapSense_CSD.c **** *
 676:Generated_Source\PSoC4/CapSense_CSD.c **** * Side Effects:
 677:Generated_Source\PSoC4/CapSense_CSD.c **** *  None
 678:Generated_Source\PSoC4/CapSense_CSD.c **** *
 679:Generated_Source\PSoC4/CapSense_CSD.c **** *******************************************************************************/
 680:Generated_Source\PSoC4/CapSense_CSD.c **** void CapSense_CSD_ScanEnabledWidgets(void)
 681:Generated_Source\PSoC4/CapSense_CSD.c **** {
 682:Generated_Source\PSoC4/CapSense_CSD.c ****     /* Clears status/control variable and set sensorIndex */
 683:Generated_Source\PSoC4/CapSense_CSD.c ****     CapSense_CSD_csdStatusVar = 0u;
 684:Generated_Source\PSoC4/CapSense_CSD.c ****     CapSense_CSD_sensorIndex = 0xFFu;
 685:Generated_Source\PSoC4/CapSense_CSD.c **** 
 686:Generated_Source\PSoC4/CapSense_CSD.c ****     /* Find next sensor */
 687:Generated_Source\PSoC4/CapSense_CSD.c ****     CapSense_CSD_sensorIndex = (uint8)CapSense_CSD_FindNextSensor(CapSense_CSD_sensorIndex);
 688:Generated_Source\PSoC4/CapSense_CSD.c **** 
 689:Generated_Source\PSoC4/CapSense_CSD.c ****     /* Check end of scan condition */
 690:Generated_Source\PSoC4/CapSense_CSD.c ****     if(CapSense_CSD_sensorIndex < CapSense_CSD_TOTAL_SENSOR_COUNT)
 691:Generated_Source\PSoC4/CapSense_CSD.c ****     {
 692:Generated_Source\PSoC4/CapSense_CSD.c ****         CapSense_CSD_csdStatusVar |= CapSense_CSD_SW_STS_BUSY;
 693:Generated_Source\PSoC4/CapSense_CSD.c ****         CapSense_CSD_PreScan((uint32)CapSense_CSD_sensorIndex);
 694:Generated_Source\PSoC4/CapSense_CSD.c ****     }
 695:Generated_Source\PSoC4/CapSense_CSD.c **** }
 696:Generated_Source\PSoC4/CapSense_CSD.c **** 
 697:Generated_Source\PSoC4/CapSense_CSD.c **** 
 698:Generated_Source\PSoC4/CapSense_CSD.c **** /*******************************************************************************
 699:Generated_Source\PSoC4/CapSense_CSD.c **** * Function Name: CapSense_CSD_IsBusy
 700:Generated_Source\PSoC4/CapSense_CSD.c **** ********************************************************************************
 701:Generated_Source\PSoC4/CapSense_CSD.c **** *
 702:Generated_Source\PSoC4/CapSense_CSD.c **** * Summary:
 703:Generated_Source\PSoC4/CapSense_CSD.c **** *  Returns the state of the CapSense component. 1 means that scanning in
 704:Generated_Source\PSoC4/CapSense_CSD.c **** *  progress and 0 means that scanning is complete.
 705:Generated_Source\PSoC4/CapSense_CSD.c **** *
 706:Generated_Source\PSoC4/CapSense_CSD.c **** * Parameters:
 707:Generated_Source\PSoC4/CapSense_CSD.c **** *  None
 708:Generated_Source\PSoC4/CapSense_CSD.c **** *
 709:Generated_Source\PSoC4/CapSense_CSD.c **** * Return:
 710:Generated_Source\PSoC4/CapSense_CSD.c **** *  Returns the state of scanning. 1 - scanning in progress, 0 - scanning
 711:Generated_Source\PSoC4/CapSense_CSD.c **** *  completed.
 712:Generated_Source\PSoC4/CapSense_CSD.c **** *
 713:Generated_Source\PSoC4/CapSense_CSD.c **** * Global Variables:
 714:Generated_Source\PSoC4/CapSense_CSD.c **** *  CapSense_CSD_csdStatusVar - used to provide the status and mode of the scanning process.
 715:Generated_Source\PSoC4/CapSense_CSD.c **** *  Checks the busy status.
 716:Generated_Source\PSoC4/CapSense_CSD.c **** *
 717:Generated_Source\PSoC4/CapSense_CSD.c **** * Side Effects:
 718:Generated_Source\PSoC4/CapSense_CSD.c **** *  None
 719:Generated_Source\PSoC4/CapSense_CSD.c **** *
 720:Generated_Source\PSoC4/CapSense_CSD.c **** *******************************************************************************/
 721:Generated_Source\PSoC4/CapSense_CSD.c **** uint32 CapSense_CSD_IsBusy(void)
 722:Generated_Source\PSoC4/CapSense_CSD.c **** {
 246              		.loc 1 722 0
 247              		.cfi_startproc
ARM GAS  C:\Users\ZTIPRI~1\AppData\Local\Temp\ccBGTz86.s 			page 18


 248              		@ args = 0, pretend = 0, frame = 0
 249              		@ frame_needed = 0, uses_anonymous_args = 0
 250              		@ link register save eliminated.
 723:Generated_Source\PSoC4/CapSense_CSD.c ****     return ((uint32)((0u != (CapSense_CSD_csdStatusVar & CapSense_CSD_SW_STS_BUSY)) ? 1u : 0u));
 251              		.loc 1 723 0
 252 0000 024B     		ldr	r3, .L11
 253 0002 1878     		ldrb	r0, [r3]
 254 0004 0123     		movs	r3, #1
 255 0006 1840     		ands	r0, r3
 724:Generated_Source\PSoC4/CapSense_CSD.c **** }
 256              		.loc 1 724 0
 257              		@ sp needed
 258 0008 7047     		bx	lr
 259              	.L12:
 260 000a C046     		.align	2
 261              	.L11:
 262 000c 00000000 		.word	.LANCHOR0
 263              		.cfi_endproc
 264              	.LFE41:
 265              		.size	CapSense_CSD_IsBusy, .-CapSense_CSD_IsBusy
 266              		.section	.text.CapSense_CSD_ReadSensorRaw,"ax",%progbits
 267              		.align	2
 268              		.global	CapSense_CSD_ReadSensorRaw
 269              		.code	16
 270              		.thumb_func
 271              		.type	CapSense_CSD_ReadSensorRaw, %function
 272              	CapSense_CSD_ReadSensorRaw:
 273              	.LFB42:
 725:Generated_Source\PSoC4/CapSense_CSD.c **** 
 726:Generated_Source\PSoC4/CapSense_CSD.c **** 
 727:Generated_Source\PSoC4/CapSense_CSD.c **** /*******************************************************************************
 728:Generated_Source\PSoC4/CapSense_CSD.c **** * Function Name: CapSense_CSD_ReadSensorRaw
 729:Generated_Source\PSoC4/CapSense_CSD.c **** ********************************************************************************
 730:Generated_Source\PSoC4/CapSense_CSD.c **** *
 731:Generated_Source\PSoC4/CapSense_CSD.c **** * Summary:
 732:Generated_Source\PSoC4/CapSense_CSD.c **** *  Returns sensor raw data from the global CapSense_sensorRaw[ ] array.
 733:Generated_Source\PSoC4/CapSense_CSD.c **** *  Each scan sensor has a unique number within the sensor array.
 734:Generated_Source\PSoC4/CapSense_CSD.c **** *  This number is assigned by the CapSense customizer in sequence.
 735:Generated_Source\PSoC4/CapSense_CSD.c **** *  Raw data can be used to perform calculations outside of the CapSense
 736:Generated_Source\PSoC4/CapSense_CSD.c **** *  provided framework.
 737:Generated_Source\PSoC4/CapSense_CSD.c **** *
 738:Generated_Source\PSoC4/CapSense_CSD.c **** * Parameters:
 739:Generated_Source\PSoC4/CapSense_CSD.c **** *  sensor:  Sensor number.
 740:Generated_Source\PSoC4/CapSense_CSD.c **** *
 741:Generated_Source\PSoC4/CapSense_CSD.c **** * Return:
 742:Generated_Source\PSoC4/CapSense_CSD.c **** *  Returns the current raw data value for a defined sensor number.
 743:Generated_Source\PSoC4/CapSense_CSD.c **** *
 744:Generated_Source\PSoC4/CapSense_CSD.c **** * Global Variables:
 745:Generated_Source\PSoC4/CapSense_CSD.c **** *  CapSense_CSD_sensorRaw[] - used to store sensors raw data.
 746:Generated_Source\PSoC4/CapSense_CSD.c **** *
 747:Generated_Source\PSoC4/CapSense_CSD.c **** * Side Effects:
 748:Generated_Source\PSoC4/CapSense_CSD.c **** *  None
 749:Generated_Source\PSoC4/CapSense_CSD.c **** *
 750:Generated_Source\PSoC4/CapSense_CSD.c **** *******************************************************************************/
 751:Generated_Source\PSoC4/CapSense_CSD.c **** uint16 CapSense_CSD_ReadSensorRaw(uint32 sensor)
 752:Generated_Source\PSoC4/CapSense_CSD.c **** {
 274              		.loc 1 752 0
ARM GAS  C:\Users\ZTIPRI~1\AppData\Local\Temp\ccBGTz86.s 			page 19


 275              		.cfi_startproc
 276              		@ args = 0, pretend = 0, frame = 0
 277              		@ frame_needed = 0, uses_anonymous_args = 0
 278              		@ link register save eliminated.
 279              	.LVL26:
 753:Generated_Source\PSoC4/CapSense_CSD.c ****     return CapSense_CSD_sensorRaw[sensor];
 280              		.loc 1 753 0
 281 0000 4000     		lsls	r0, r0, #1
 282              	.LVL27:
 283 0002 024B     		ldr	r3, .L14
 284 0004 1818     		adds	r0, r3, r0
 285 0006 8088     		ldrh	r0, [r0, #4]
 754:Generated_Source\PSoC4/CapSense_CSD.c **** }
 286              		.loc 1 754 0
 287              		@ sp needed
 288 0008 7047     		bx	lr
 289              	.L15:
 290 000a C046     		.align	2
 291              	.L14:
 292 000c 00000000 		.word	.LANCHOR0
 293              		.cfi_endproc
 294              	.LFE42:
 295              		.size	CapSense_CSD_ReadSensorRaw, .-CapSense_CSD_ReadSensorRaw
 296              		.section	.text.CapSense_CSD_WriteSensorRaw,"ax",%progbits
 297              		.align	2
 298              		.global	CapSense_CSD_WriteSensorRaw
 299              		.code	16
 300              		.thumb_func
 301              		.type	CapSense_CSD_WriteSensorRaw, %function
 302              	CapSense_CSD_WriteSensorRaw:
 303              	.LFB43:
 755:Generated_Source\PSoC4/CapSense_CSD.c **** 
 756:Generated_Source\PSoC4/CapSense_CSD.c **** 
 757:Generated_Source\PSoC4/CapSense_CSD.c **** /*******************************************************************************
 758:Generated_Source\PSoC4/CapSense_CSD.c **** * Function Name: CapSense_CSD_WriteSensorRaw
 759:Generated_Source\PSoC4/CapSense_CSD.c **** ********************************************************************************
 760:Generated_Source\PSoC4/CapSense_CSD.c **** *
 761:Generated_Source\PSoC4/CapSense_CSD.c **** * Summary:
 762:Generated_Source\PSoC4/CapSense_CSD.c **** *  This API writes the raw count value passed as an argument to the sensor Raw count array.
 763:Generated_Source\PSoC4/CapSense_CSD.c **** *
 764:Generated_Source\PSoC4/CapSense_CSD.c **** * Parameters:
 765:Generated_Source\PSoC4/CapSense_CSD.c **** *  sensor:  Sensor number.
 766:Generated_Source\PSoC4/CapSense_CSD.c **** *  value: Raw count value.
 767:Generated_Source\PSoC4/CapSense_CSD.c **** *
 768:Generated_Source\PSoC4/CapSense_CSD.c **** * Global Variables:
 769:Generated_Source\PSoC4/CapSense_CSD.c **** *  CapSense_CSD_sensorRaw[] - used to store sensors raw data.
 770:Generated_Source\PSoC4/CapSense_CSD.c **** *
 771:Generated_Source\PSoC4/CapSense_CSD.c **** * Return:
 772:Generated_Source\PSoC4/CapSense_CSD.c **** *  None
 773:Generated_Source\PSoC4/CapSense_CSD.c **** *
 774:Generated_Source\PSoC4/CapSense_CSD.c **** * Side Effects:
 775:Generated_Source\PSoC4/CapSense_CSD.c **** *  None
 776:Generated_Source\PSoC4/CapSense_CSD.c **** *
 777:Generated_Source\PSoC4/CapSense_CSD.c **** *******************************************************************************/
 778:Generated_Source\PSoC4/CapSense_CSD.c **** void CapSense_CSD_WriteSensorRaw(uint32 sensor, uint16 value)
 779:Generated_Source\PSoC4/CapSense_CSD.c **** {
 304              		.loc 1 779 0
ARM GAS  C:\Users\ZTIPRI~1\AppData\Local\Temp\ccBGTz86.s 			page 20


 305              		.cfi_startproc
 306              		@ args = 0, pretend = 0, frame = 0
 307              		@ frame_needed = 0, uses_anonymous_args = 0
 308              		@ link register save eliminated.
 309              	.LVL28:
 780:Generated_Source\PSoC4/CapSense_CSD.c ****     CapSense_CSD_sensorRaw[sensor] = value;
 310              		.loc 1 780 0
 311 0000 4000     		lsls	r0, r0, #1
 312              	.LVL29:
 313 0002 024B     		ldr	r3, .L17
 314 0004 1818     		adds	r0, r3, r0
 315 0006 8180     		strh	r1, [r0, #4]
 781:Generated_Source\PSoC4/CapSense_CSD.c **** }
 316              		.loc 1 781 0
 317              		@ sp needed
 318 0008 7047     		bx	lr
 319              	.L18:
 320 000a C046     		.align	2
 321              	.L17:
 322 000c 00000000 		.word	.LANCHOR0
 323              		.cfi_endproc
 324              	.LFE43:
 325              		.size	CapSense_CSD_WriteSensorRaw, .-CapSense_CSD_WriteSensorRaw
 326              		.section	.text.CapSense_CSD_SetScanResolution,"ax",%progbits
 327              		.align	2
 328              		.global	CapSense_CSD_SetScanResolution
 329              		.code	16
 330              		.thumb_func
 331              		.type	CapSense_CSD_SetScanResolution, %function
 332              	CapSense_CSD_SetScanResolution:
 333              	.LFB44:
 782:Generated_Source\PSoC4/CapSense_CSD.c **** 
 783:Generated_Source\PSoC4/CapSense_CSD.c **** 
 784:Generated_Source\PSoC4/CapSense_CSD.c **** #if (CapSense_CSD_TUNING_METHOD != CapSense_CSD__TUNING_NONE)
 785:Generated_Source\PSoC4/CapSense_CSD.c ****     /*******************************************************************************
 786:Generated_Source\PSoC4/CapSense_CSD.c ****     * Function Name: CapSense_CSD_SetScanResolution
 787:Generated_Source\PSoC4/CapSense_CSD.c ****     ********************************************************************************
 788:Generated_Source\PSoC4/CapSense_CSD.c ****     *
 789:Generated_Source\PSoC4/CapSense_CSD.c ****     * Summary:
 790:Generated_Source\PSoC4/CapSense_CSD.c ****     *  Sets a value of the sensor scan resolution for a widget.
 791:Generated_Source\PSoC4/CapSense_CSD.c ****     *  The MIN resolution can be set 8-bit. The MAX Resolution can be set 16 bit.
 792:Generated_Source\PSoC4/CapSense_CSD.c ****     *  This function is not available for the tuning mode "None".
 793:Generated_Source\PSoC4/CapSense_CSD.c ****     *
 794:Generated_Source\PSoC4/CapSense_CSD.c ****     * Parameters:
 795:Generated_Source\PSoC4/CapSense_CSD.c ****     *  widget:     Widget index.
 796:Generated_Source\PSoC4/CapSense_CSD.c ****     *  resolution: Represents the resolution value. The following defines which are available in th
 797:Generated_Source\PSoC4/CapSense_CSD.c ****     *              CapSense_CSD.h file should be used:
 798:Generated_Source\PSoC4/CapSense_CSD.c ****     *              CapSense_CSD_RESOLUTION_6_BITS
 799:Generated_Source\PSoC4/CapSense_CSD.c ****     *              CapSense_CSD_RESOLUTION_7_BITS
 800:Generated_Source\PSoC4/CapSense_CSD.c ****     *              CapSense_CSD_RESOLUTION_8_BITS
 801:Generated_Source\PSoC4/CapSense_CSD.c ****     *              CapSense_CSD_RESOLUTION_9_BITS
 802:Generated_Source\PSoC4/CapSense_CSD.c ****     *              CapSense_CSD_RESOLUTION_10_BITS
 803:Generated_Source\PSoC4/CapSense_CSD.c ****     *              CapSense_CSD_RESOLUTION_11_BITS
 804:Generated_Source\PSoC4/CapSense_CSD.c ****     *              CapSense_CSD_RESOLUTION_12_BITS
 805:Generated_Source\PSoC4/CapSense_CSD.c ****     *              CapSense_CSD_RESOLUTION_13_BITS
 806:Generated_Source\PSoC4/CapSense_CSD.c ****     *              CapSense_CSD_RESOLUTION_14_BITS
 807:Generated_Source\PSoC4/CapSense_CSD.c ****     *              CapSense_CSD_RESOLUTION_15_BITS
ARM GAS  C:\Users\ZTIPRI~1\AppData\Local\Temp\ccBGTz86.s 			page 21


 808:Generated_Source\PSoC4/CapSense_CSD.c ****     *              CapSense_CSD_RESOLUTION_16_BITS
 809:Generated_Source\PSoC4/CapSense_CSD.c ****     *
 810:Generated_Source\PSoC4/CapSense_CSD.c ****     * Return:
 811:Generated_Source\PSoC4/CapSense_CSD.c ****     *  None
 812:Generated_Source\PSoC4/CapSense_CSD.c ****     *
 813:Generated_Source\PSoC4/CapSense_CSD.c ****     * Global Variables:
 814:Generated_Source\PSoC4/CapSense_CSD.c ****     *  CapSense_CSD_widgetResolution[] - used to store scan resolution of each widget.
 815:Generated_Source\PSoC4/CapSense_CSD.c ****     *
 816:Generated_Source\PSoC4/CapSense_CSD.c ****     * Side Effects:
 817:Generated_Source\PSoC4/CapSense_CSD.c ****     *  None
 818:Generated_Source\PSoC4/CapSense_CSD.c ****     *
 819:Generated_Source\PSoC4/CapSense_CSD.c ****     *******************************************************************************/
 820:Generated_Source\PSoC4/CapSense_CSD.c ****     void CapSense_CSD_SetScanResolution(uint32 widget, uint32 resolution)
 821:Generated_Source\PSoC4/CapSense_CSD.c ****     {
 334              		.loc 1 821 0
 335              		.cfi_startproc
 336              		@ args = 0, pretend = 0, frame = 0
 337              		@ frame_needed = 0, uses_anonymous_args = 0
 338              		@ link register save eliminated.
 339              	.LVL30:
 822:Generated_Source\PSoC4/CapSense_CSD.c ****         CapSense_CSD_widgetResolution[widget] = resolution;
 340              		.loc 1 822 0
 341 0000 8000     		lsls	r0, r0, #2
 342              	.LVL31:
 343 0002 014B     		ldr	r3, .L20
 344 0004 C150     		str	r1, [r0, r3]
 823:Generated_Source\PSoC4/CapSense_CSD.c ****     }
 345              		.loc 1 823 0
 346              		@ sp needed
 347 0006 7047     		bx	lr
 348              	.L21:
 349              		.align	2
 350              	.L20:
 351 0008 00000000 		.word	.LANCHOR1
 352              		.cfi_endproc
 353              	.LFE44:
 354              		.size	CapSense_CSD_SetScanResolution, .-CapSense_CSD_SetScanResolution
 355              		.section	.text.CapSense_CSD_GetScanResolution,"ax",%progbits
 356              		.align	2
 357              		.global	CapSense_CSD_GetScanResolution
 358              		.code	16
 359              		.thumb_func
 360              		.type	CapSense_CSD_GetScanResolution, %function
 361              	CapSense_CSD_GetScanResolution:
 362              	.LFB45:
 824:Generated_Source\PSoC4/CapSense_CSD.c **** #endif /* (CapSense_CSD_TUNING_METHOD != CapSense_CSD__TUNING_NONE) */
 825:Generated_Source\PSoC4/CapSense_CSD.c **** 
 826:Generated_Source\PSoC4/CapSense_CSD.c **** 
 827:Generated_Source\PSoC4/CapSense_CSD.c **** /*******************************************************************************
 828:Generated_Source\PSoC4/CapSense_CSD.c **** * Function Name: CapSense_CSD_GetScanResolution
 829:Generated_Source\PSoC4/CapSense_CSD.c **** ********************************************************************************
 830:Generated_Source\PSoC4/CapSense_CSD.c **** *
 831:Generated_Source\PSoC4/CapSense_CSD.c **** * Summary:
 832:Generated_Source\PSoC4/CapSense_CSD.c **** *  Returns the resolution value for the appropriate sensor.
 833:Generated_Source\PSoC4/CapSense_CSD.c **** *  This function is not available for tuning mode "None".
 834:Generated_Source\PSoC4/CapSense_CSD.c **** *
 835:Generated_Source\PSoC4/CapSense_CSD.c **** * Parameters:
ARM GAS  C:\Users\ZTIPRI~1\AppData\Local\Temp\ccBGTz86.s 			page 22


 836:Generated_Source\PSoC4/CapSense_CSD.c **** *  widget:     Widget index.
 837:Generated_Source\PSoC4/CapSense_CSD.c **** *
 838:Generated_Source\PSoC4/CapSense_CSD.c **** * Return:
 839:Generated_Source\PSoC4/CapSense_CSD.c **** *  resolution: Returns the resolution value for the appropriate sensor.
 840:Generated_Source\PSoC4/CapSense_CSD.c **** *              The resolution values are defined in the CapSense_CSD.h file
 841:Generated_Source\PSoC4/CapSense_CSD.c **** *              The defines are encountered below:
 842:Generated_Source\PSoC4/CapSense_CSD.c **** *              CapSense_CSD_RESOLUTION_6_BITS
 843:Generated_Source\PSoC4/CapSense_CSD.c **** *              CapSense_CSD_RESOLUTION_7_BITS
 844:Generated_Source\PSoC4/CapSense_CSD.c **** *              CapSense_CSD_RESOLUTION_8_BITS
 845:Generated_Source\PSoC4/CapSense_CSD.c **** *              CapSense_CSD_RESOLUTION_9_BITS
 846:Generated_Source\PSoC4/CapSense_CSD.c **** *              CapSense_CSD_RESOLUTION_10_BITS
 847:Generated_Source\PSoC4/CapSense_CSD.c **** *              CapSense_CSD_RESOLUTION_11_BITS
 848:Generated_Source\PSoC4/CapSense_CSD.c **** *              CapSense_CSD_RESOLUTION_12_BITS
 849:Generated_Source\PSoC4/CapSense_CSD.c **** *              CapSense_CSD_RESOLUTION_13_BITS
 850:Generated_Source\PSoC4/CapSense_CSD.c **** *              CapSense_CSD_RESOLUTION_14_BITS
 851:Generated_Source\PSoC4/CapSense_CSD.c **** *              CapSense_CSD_RESOLUTION_15_BITS
 852:Generated_Source\PSoC4/CapSense_CSD.c **** *              CapSense_CSD_RESOLUTION_16_BITS
 853:Generated_Source\PSoC4/CapSense_CSD.c **** *
 854:Generated_Source\PSoC4/CapSense_CSD.c **** * Global Variables:
 855:Generated_Source\PSoC4/CapSense_CSD.c **** *  CapSense_CSD_widgetResolution[] - used to store scan resolution of every widget.
 856:Generated_Source\PSoC4/CapSense_CSD.c **** *
 857:Generated_Source\PSoC4/CapSense_CSD.c **** * Side Effects:
 858:Generated_Source\PSoC4/CapSense_CSD.c **** *  None
 859:Generated_Source\PSoC4/CapSense_CSD.c **** *
 860:Generated_Source\PSoC4/CapSense_CSD.c **** *******************************************************************************/
 861:Generated_Source\PSoC4/CapSense_CSD.c **** uint32 CapSense_CSD_GetScanResolution(uint32 widget)
 862:Generated_Source\PSoC4/CapSense_CSD.c **** {
 363              		.loc 1 862 0
 364              		.cfi_startproc
 365              		@ args = 0, pretend = 0, frame = 0
 366              		@ frame_needed = 0, uses_anonymous_args = 0
 367              		@ link register save eliminated.
 368              	.LVL32:
 863:Generated_Source\PSoC4/CapSense_CSD.c ****     return(CapSense_CSD_widgetResolution[widget]);
 369              		.loc 1 863 0
 370 0000 8000     		lsls	r0, r0, #2
 371              	.LVL33:
 372 0002 014B     		ldr	r3, .L23
 373 0004 C058     		ldr	r0, [r0, r3]
 864:Generated_Source\PSoC4/CapSense_CSD.c **** }
 374              		.loc 1 864 0
 375              		@ sp needed
 376 0006 7047     		bx	lr
 377              	.L24:
 378              		.align	2
 379              	.L23:
 380 0008 00000000 		.word	.LANCHOR1
 381              		.cfi_endproc
 382              	.LFE45:
 383              		.size	CapSense_CSD_GetScanResolution, .-CapSense_CSD_GetScanResolution
 384              		.section	.text.CapSense_CSD_EnableSensor,"ax",%progbits
 385              		.align	2
 386              		.global	CapSense_CSD_EnableSensor
 387              		.code	16
 388              		.thumb_func
 389              		.type	CapSense_CSD_EnableSensor, %function
 390              	CapSense_CSD_EnableSensor:
ARM GAS  C:\Users\ZTIPRI~1\AppData\Local\Temp\ccBGTz86.s 			page 23


 391              	.LFB47:
 865:Generated_Source\PSoC4/CapSense_CSD.c **** 
 866:Generated_Source\PSoC4/CapSense_CSD.c **** 
 867:Generated_Source\PSoC4/CapSense_CSD.c **** /*******************************************************************************
 868:Generated_Source\PSoC4/CapSense_CSD.c **** * Function Name: CapSense_CSD_ClearSensors
 869:Generated_Source\PSoC4/CapSense_CSD.c **** ********************************************************************************
 870:Generated_Source\PSoC4/CapSense_CSD.c **** *
 871:Generated_Source\PSoC4/CapSense_CSD.c **** * Summary:
 872:Generated_Source\PSoC4/CapSense_CSD.c **** *  Resets all the sensors to the non-sampling state by sequentially disconnecting
 873:Generated_Source\PSoC4/CapSense_CSD.c **** *  all the sensors from Analog MUX Bus and putting them to an inactive state.
 874:Generated_Source\PSoC4/CapSense_CSD.c **** *
 875:Generated_Source\PSoC4/CapSense_CSD.c **** * Parameters:
 876:Generated_Source\PSoC4/CapSense_CSD.c **** *  None
 877:Generated_Source\PSoC4/CapSense_CSD.c **** *
 878:Generated_Source\PSoC4/CapSense_CSD.c **** * Return:
 879:Generated_Source\PSoC4/CapSense_CSD.c **** *  None
 880:Generated_Source\PSoC4/CapSense_CSD.c **** *
 881:Generated_Source\PSoC4/CapSense_CSD.c **** * Global Variables:
 882:Generated_Source\PSoC4/CapSense_CSD.c **** *  None
 883:Generated_Source\PSoC4/CapSense_CSD.c **** *
 884:Generated_Source\PSoC4/CapSense_CSD.c **** * Side Effects:
 885:Generated_Source\PSoC4/CapSense_CSD.c **** *  None
 886:Generated_Source\PSoC4/CapSense_CSD.c **** *
 887:Generated_Source\PSoC4/CapSense_CSD.c **** *******************************************************************************/
 888:Generated_Source\PSoC4/CapSense_CSD.c **** void CapSense_CSD_ClearSensors(void)
 889:Generated_Source\PSoC4/CapSense_CSD.c **** {
 890:Generated_Source\PSoC4/CapSense_CSD.c ****     uint32 snsIndex;
 891:Generated_Source\PSoC4/CapSense_CSD.c **** 
 892:Generated_Source\PSoC4/CapSense_CSD.c ****     for (snsIndex = 0u; snsIndex < CapSense_CSD_TOTAL_SENSOR_COUNT; snsIndex++)
 893:Generated_Source\PSoC4/CapSense_CSD.c ****     {
 894:Generated_Source\PSoC4/CapSense_CSD.c ****         CapSense_CSD_DisableScanSlot(snsIndex);
 895:Generated_Source\PSoC4/CapSense_CSD.c ****     }
 896:Generated_Source\PSoC4/CapSense_CSD.c **** }
 897:Generated_Source\PSoC4/CapSense_CSD.c **** 
 898:Generated_Source\PSoC4/CapSense_CSD.c **** 
 899:Generated_Source\PSoC4/CapSense_CSD.c **** #if (CapSense_CSD_IS_COMPLEX_SCANSLOTS)
 900:Generated_Source\PSoC4/CapSense_CSD.c ****     /*******************************************************************************
 901:Generated_Source\PSoC4/CapSense_CSD.c ****     * Function Name: CapSense_CSD_EnableScanSlot
 902:Generated_Source\PSoC4/CapSense_CSD.c ****     ********************************************************************************
 903:Generated_Source\PSoC4/CapSense_CSD.c ****     *
 904:Generated_Source\PSoC4/CapSense_CSD.c ****     * Summary:
 905:Generated_Source\PSoC4/CapSense_CSD.c ****     *  Configures the selected slot to measure during the next measurement
 906:Generated_Source\PSoC4/CapSense_CSD.c ****     *  cycle. The corresponding pin/pins are set to Analog High-Z mode and
 907:Generated_Source\PSoC4/CapSense_CSD.c ****     *  connected to the Analog Mux Bus. This also enables the comparator function.
 908:Generated_Source\PSoC4/CapSense_CSD.c ****     *
 909:Generated_Source\PSoC4/CapSense_CSD.c ****     * Parameters:
 910:Generated_Source\PSoC4/CapSense_CSD.c ****     *  slot:  Slot number.
 911:Generated_Source\PSoC4/CapSense_CSD.c ****     *
 912:Generated_Source\PSoC4/CapSense_CSD.c ****     * Return:
 913:Generated_Source\PSoC4/CapSense_CSD.c ****     *  None
 914:Generated_Source\PSoC4/CapSense_CSD.c ****     *
 915:Generated_Source\PSoC4/CapSense_CSD.c ****     * Global Constants:
 916:Generated_Source\PSoC4/CapSense_CSD.c ****     *  CapSense_CSD_portTable[]  - used to store the port number that pin
 917:Generated_Source\PSoC4/CapSense_CSD.c ****     *  belongs to for each sensor.
 918:Generated_Source\PSoC4/CapSense_CSD.c ****     *  CapSense_CSD_maskTable[]  - used to store the pin within the port for
 919:Generated_Source\PSoC4/CapSense_CSD.c ****     *  each sensor.
 920:Generated_Source\PSoC4/CapSense_CSD.c ****     *  CapSense_CSD_indexTable[] - used to store indexes of complex sensors.
ARM GAS  C:\Users\ZTIPRI~1\AppData\Local\Temp\ccBGTz86.s 			page 24


 921:Generated_Source\PSoC4/CapSense_CSD.c ****     *  The offset and position in this array are stored in a port and mask table for
 922:Generated_Source\PSoC4/CapSense_CSD.c ****     *  complex sensors.
 923:Generated_Source\PSoC4/CapSense_CSD.c ****     *  Bit 7 (msb) is used to define the sensor type: single or complex.
 924:Generated_Source\PSoC4/CapSense_CSD.c ****     *
 925:Generated_Source\PSoC4/CapSense_CSD.c ****     * Side Effects:
 926:Generated_Source\PSoC4/CapSense_CSD.c ****     *  None
 927:Generated_Source\PSoC4/CapSense_CSD.c ****     *
 928:Generated_Source\PSoC4/CapSense_CSD.c ****     *******************************************************************************/
 929:Generated_Source\PSoC4/CapSense_CSD.c ****     void CapSense_CSD_EnableScanSlot(uint32 slot)
 930:Generated_Source\PSoC4/CapSense_CSD.c ****     {
 931:Generated_Source\PSoC4/CapSense_CSD.c ****         uint8 j;
 932:Generated_Source\PSoC4/CapSense_CSD.c ****         uint8 snsNumber;
 933:Generated_Source\PSoC4/CapSense_CSD.c ****         const uint8 *index;
 934:Generated_Source\PSoC4/CapSense_CSD.c ****         /* Read sensor type: single or complex */
 935:Generated_Source\PSoC4/CapSense_CSD.c ****         uint8 snsType = CapSense_CSD_portTable[slot];
 936:Generated_Source\PSoC4/CapSense_CSD.c **** 
 937:Generated_Source\PSoC4/CapSense_CSD.c ****         /* Check if sensor is complex */
 938:Generated_Source\PSoC4/CapSense_CSD.c ****         if ((snsType & CapSense_CSD_COMPLEX_SS_FLAG) == 0u)
 939:Generated_Source\PSoC4/CapSense_CSD.c ****         {
 940:Generated_Source\PSoC4/CapSense_CSD.c ****             /* Enable sensor (single) */
 941:Generated_Source\PSoC4/CapSense_CSD.c ****             CapSense_CSD_EnableSensor(slot);
 942:Generated_Source\PSoC4/CapSense_CSD.c ****         }
 943:Generated_Source\PSoC4/CapSense_CSD.c ****         else
 944:Generated_Source\PSoC4/CapSense_CSD.c ****         {
 945:Generated_Source\PSoC4/CapSense_CSD.c ****             /* Enable complex sensor */
 946:Generated_Source\PSoC4/CapSense_CSD.c ****             snsType &= ~CapSense_CSD_COMPLEX_SS_FLAG;
 947:Generated_Source\PSoC4/CapSense_CSD.c ****             index = &CapSense_CSD_indexTable[snsType];
 948:Generated_Source\PSoC4/CapSense_CSD.c ****             snsNumber = CapSense_CSD_maskTable[slot];
 949:Generated_Source\PSoC4/CapSense_CSD.c **** 
 950:Generated_Source\PSoC4/CapSense_CSD.c ****             for (j = 0u; j < snsNumber; j++)
 951:Generated_Source\PSoC4/CapSense_CSD.c ****             {
 952:Generated_Source\PSoC4/CapSense_CSD.c ****                 CapSense_CSD_EnableSensor(index[j]);
 953:Generated_Source\PSoC4/CapSense_CSD.c ****             }
 954:Generated_Source\PSoC4/CapSense_CSD.c ****         }
 955:Generated_Source\PSoC4/CapSense_CSD.c ****     }
 956:Generated_Source\PSoC4/CapSense_CSD.c **** 
 957:Generated_Source\PSoC4/CapSense_CSD.c **** 
 958:Generated_Source\PSoC4/CapSense_CSD.c ****     /*******************************************************************************
 959:Generated_Source\PSoC4/CapSense_CSD.c ****     * Function Name: CapSense_CSD_DisableScanSlot
 960:Generated_Source\PSoC4/CapSense_CSD.c ****     ********************************************************************************
 961:Generated_Source\PSoC4/CapSense_CSD.c ****     *
 962:Generated_Source\PSoC4/CapSense_CSD.c ****     * Summary:
 963:Generated_Source\PSoC4/CapSense_CSD.c ****     *  Disables the selected slot. The corresponding pin/pins is/are disconnected
 964:Generated_Source\PSoC4/CapSense_CSD.c ****     *  from the Analog Mux Bus and connected to GND, High_Z or Shield electrode.
 965:Generated_Source\PSoC4/CapSense_CSD.c ****     *
 966:Generated_Source\PSoC4/CapSense_CSD.c ****     * Parameters:
 967:Generated_Source\PSoC4/CapSense_CSD.c ****     *  slot:  Slot number.
 968:Generated_Source\PSoC4/CapSense_CSD.c ****     *
 969:Generated_Source\PSoC4/CapSense_CSD.c ****     * Return:
 970:Generated_Source\PSoC4/CapSense_CSD.c ****     *  None
 971:Generated_Source\PSoC4/CapSense_CSD.c ****     *
 972:Generated_Source\PSoC4/CapSense_CSD.c ****     * Global Variables:
 973:Generated_Source\PSoC4/CapSense_CSD.c ****     *  CapSense_CSD_portTable[]  - used to store the port number that pin
 974:Generated_Source\PSoC4/CapSense_CSD.c ****     *  belongs to for each sensor.
 975:Generated_Source\PSoC4/CapSense_CSD.c ****     *  CapSense_CSD_maskTable[]  - used to store the pin within the port for
 976:Generated_Source\PSoC4/CapSense_CSD.c ****     *  each sensor.
 977:Generated_Source\PSoC4/CapSense_CSD.c ****     *  CapSense_CSD_indexTable[] - used to store indexes of complex sensors.
ARM GAS  C:\Users\ZTIPRI~1\AppData\Local\Temp\ccBGTz86.s 			page 25


 978:Generated_Source\PSoC4/CapSense_CSD.c ****     *  The offset and position in this array are stored in a port and mask table for
 979:Generated_Source\PSoC4/CapSense_CSD.c ****     *  complex sensors.
 980:Generated_Source\PSoC4/CapSense_CSD.c ****     *  7bit(msb) is used to define the sensor type: single or complex.
 981:Generated_Source\PSoC4/CapSense_CSD.c ****     *
 982:Generated_Source\PSoC4/CapSense_CSD.c ****     * Side Effects:
 983:Generated_Source\PSoC4/CapSense_CSD.c ****     *  None
 984:Generated_Source\PSoC4/CapSense_CSD.c ****     *
 985:Generated_Source\PSoC4/CapSense_CSD.c ****     *******************************************************************************/
 986:Generated_Source\PSoC4/CapSense_CSD.c ****     void CapSense_CSD_DisableScanSlot(uint32 slot)
 987:Generated_Source\PSoC4/CapSense_CSD.c ****     {
 988:Generated_Source\PSoC4/CapSense_CSD.c ****         uint8 j;
 989:Generated_Source\PSoC4/CapSense_CSD.c ****         uint8 snsNumber;
 990:Generated_Source\PSoC4/CapSense_CSD.c ****         const uint8 *index;
 991:Generated_Source\PSoC4/CapSense_CSD.c **** 
 992:Generated_Source\PSoC4/CapSense_CSD.c ****         /* Read sensor type: single or complex */
 993:Generated_Source\PSoC4/CapSense_CSD.c ****         uint8 snsType = CapSense_CSD_portTable[slot];
 994:Generated_Source\PSoC4/CapSense_CSD.c **** 
 995:Generated_Source\PSoC4/CapSense_CSD.c ****         /* Check if sensor is complex */
 996:Generated_Source\PSoC4/CapSense_CSD.c ****         if ((snsType & CapSense_CSD_COMPLEX_SS_FLAG) == 0u)
 997:Generated_Source\PSoC4/CapSense_CSD.c ****         {
 998:Generated_Source\PSoC4/CapSense_CSD.c ****             /* Disable sensor (single) */
 999:Generated_Source\PSoC4/CapSense_CSD.c ****             CapSense_CSD_DisableSensor(slot);
1000:Generated_Source\PSoC4/CapSense_CSD.c ****         }
1001:Generated_Source\PSoC4/CapSense_CSD.c ****         else
1002:Generated_Source\PSoC4/CapSense_CSD.c ****         {
1003:Generated_Source\PSoC4/CapSense_CSD.c ****             /* Disable complex sensor */
1004:Generated_Source\PSoC4/CapSense_CSD.c ****             snsType &= ~CapSense_CSD_COMPLEX_SS_FLAG;
1005:Generated_Source\PSoC4/CapSense_CSD.c ****             index = &CapSense_CSD_indexTable[snsType];
1006:Generated_Source\PSoC4/CapSense_CSD.c ****             snsNumber = CapSense_CSD_maskTable[slot];
1007:Generated_Source\PSoC4/CapSense_CSD.c **** 
1008:Generated_Source\PSoC4/CapSense_CSD.c ****             for (j=0; j < snsNumber; j++)
1009:Generated_Source\PSoC4/CapSense_CSD.c ****             {
1010:Generated_Source\PSoC4/CapSense_CSD.c ****                 CapSense_CSD_DisableSensor(index[j]);
1011:Generated_Source\PSoC4/CapSense_CSD.c ****             }
1012:Generated_Source\PSoC4/CapSense_CSD.c ****         }
1013:Generated_Source\PSoC4/CapSense_CSD.c ****     }
1014:Generated_Source\PSoC4/CapSense_CSD.c **** #endif  /* CapSense_CSD_IS_COMPLEX_SCANSLOTS */
1015:Generated_Source\PSoC4/CapSense_CSD.c **** 
1016:Generated_Source\PSoC4/CapSense_CSD.c **** 
1017:Generated_Source\PSoC4/CapSense_CSD.c **** /*******************************************************************************
1018:Generated_Source\PSoC4/CapSense_CSD.c **** * Function Name: CapSense_CSD_EnableSensor
1019:Generated_Source\PSoC4/CapSense_CSD.c **** ********************************************************************************
1020:Generated_Source\PSoC4/CapSense_CSD.c **** *
1021:Generated_Source\PSoC4/CapSense_CSD.c **** * Summary:
1022:Generated_Source\PSoC4/CapSense_CSD.c **** *  Configures the selected sensor to measure during the next measurement cycle.
1023:Generated_Source\PSoC4/CapSense_CSD.c **** *  The corresponding pins are set to Analog High-Z mode and connected to the
1024:Generated_Source\PSoC4/CapSense_CSD.c **** *  Analog Mux Bus. This also enables the comparator function.
1025:Generated_Source\PSoC4/CapSense_CSD.c **** *
1026:Generated_Source\PSoC4/CapSense_CSD.c **** * Parameters:
1027:Generated_Source\PSoC4/CapSense_CSD.c **** *  sensor:  Sensor number.
1028:Generated_Source\PSoC4/CapSense_CSD.c **** *
1029:Generated_Source\PSoC4/CapSense_CSD.c **** * Return:
1030:Generated_Source\PSoC4/CapSense_CSD.c **** *  None
1031:Generated_Source\PSoC4/CapSense_CSD.c **** *
1032:Generated_Source\PSoC4/CapSense_CSD.c **** * Global Variables:
1033:Generated_Source\PSoC4/CapSense_CSD.c **** *  CapSense_CSD_portTable[] - used to store the port number that pin
1034:Generated_Source\PSoC4/CapSense_CSD.c **** *  belongs to for each sensor.
ARM GAS  C:\Users\ZTIPRI~1\AppData\Local\Temp\ccBGTz86.s 			page 26


1035:Generated_Source\PSoC4/CapSense_CSD.c **** *  CapSense_CSD_pinShiftTbl[] - used to store position of pin that
1036:Generated_Source\PSoC4/CapSense_CSD.c **** *  configured as sensor in port.
1037:Generated_Source\PSoC4/CapSense_CSD.c **** *  CapSense_CSD_prtSelTbl[] - Contains pointers to the HSIOM
1038:Generated_Source\PSoC4/CapSense_CSD.c **** *  registers for each port.
1039:Generated_Source\PSoC4/CapSense_CSD.c **** *  CapSense_CSD_PrtCfgTb[] - Contains pointers to the port config
1040:Generated_Source\PSoC4/CapSense_CSD.c **** *  registers for each port.
1041:Generated_Source\PSoC4/CapSense_CSD.c **** *
1042:Generated_Source\PSoC4/CapSense_CSD.c **** * Side Effects:
1043:Generated_Source\PSoC4/CapSense_CSD.c **** *  None
1044:Generated_Source\PSoC4/CapSense_CSD.c **** *
1045:Generated_Source\PSoC4/CapSense_CSD.c **** *******************************************************************************/
1046:Generated_Source\PSoC4/CapSense_CSD.c **** void CapSense_CSD_EnableSensor(uint32 sensor)
1047:Generated_Source\PSoC4/CapSense_CSD.c **** {
 392              		.loc 1 1047 0
 393              		.cfi_startproc
 394              		@ args = 0, pretend = 0, frame = 0
 395              		@ frame_needed = 0, uses_anonymous_args = 0
 396              	.LVL34:
 397 0000 F8B5     		push	{r3, r4, r5, r6, r7, lr}
 398              		.cfi_def_cfa_offset 24
 399              		.cfi_offset 3, -24
 400              		.cfi_offset 4, -20
 401              		.cfi_offset 5, -16
 402              		.cfi_offset 6, -12
 403              		.cfi_offset 7, -8
 404              		.cfi_offset 14, -4
1048:Generated_Source\PSoC4/CapSense_CSD.c ****     uint8  pinModeShift;
1049:Generated_Source\PSoC4/CapSense_CSD.c ****     uint8  pinHSIOMShift;
1050:Generated_Source\PSoC4/CapSense_CSD.c ****     uint8 interruptState;
1051:Generated_Source\PSoC4/CapSense_CSD.c ****     uint32 newRegisterValue;
1052:Generated_Source\PSoC4/CapSense_CSD.c ****     uint32 port;
1053:Generated_Source\PSoC4/CapSense_CSD.c **** 
1054:Generated_Source\PSoC4/CapSense_CSD.c ****     port = (uint32) CapSense_CSD_portTable[sensor];
 405              		.loc 1 1054 0
 406 0002 104F     		ldr	r7, .L26
 407 0004 3E5C     		ldrb	r6, [r7, r0]
 408              	.LVL35:
1055:Generated_Source\PSoC4/CapSense_CSD.c ****     pinModeShift = CapSense_CSD_pinShiftTbl[sensor]  * CapSense_CSD_PC_PIN_CFG_SIZE;
 409              		.loc 1 1055 0
 410 0006 3818     		adds	r0, r7, r0
 411              	.LVL36:
 412 0008 037A     		ldrb	r3, [r0, #8]
 413 000a 5D00     		lsls	r5, r3, #1
 414 000c 5D19     		adds	r5, r3, r5
 415 000e EDB2     		uxtb	r5, r5
 416              	.LVL37:
1056:Generated_Source\PSoC4/CapSense_CSD.c ****     pinHSIOMShift = CapSense_CSD_pinShiftTbl[sensor] * CapSense_CSD_HSIOM_PIN_CFG_SIZE;
 417              		.loc 1 1056 0
 418 0010 9B00     		lsls	r3, r3, #2
 419 0012 DCB2     		uxtb	r4, r3
 420              	.LVL38:
1057:Generated_Source\PSoC4/CapSense_CSD.c **** 
1058:Generated_Source\PSoC4/CapSense_CSD.c ****     interruptState = CyEnterCriticalSection();
 421              		.loc 1 1058 0
 422 0014 FFF7FEFF 		bl	CyEnterCriticalSection
 423              	.LVL39:
1059:Generated_Source\PSoC4/CapSense_CSD.c **** 
ARM GAS  C:\Users\ZTIPRI~1\AppData\Local\Temp\ccBGTz86.s 			page 27


1060:Generated_Source\PSoC4/CapSense_CSD.c ****     newRegisterValue = *CapSense_CSD_prtSelTbl[port];
 424              		.loc 1 1060 0
 425 0018 B300     		lsls	r3, r6, #2
 426 001a FB18     		adds	r3, r7, r3
 427 001c 1E69     		ldr	r6, [r3, #16]
 428              	.LVL40:
 429 001e 3268     		ldr	r2, [r6]
 430              	.LVL41:
1061:Generated_Source\PSoC4/CapSense_CSD.c ****     newRegisterValue &= ~(CapSense_CSD_CSD_HSIOM_MASK << pinHSIOMShift);
 431              		.loc 1 1061 0
 432 0020 0F21     		movs	r1, #15
 433 0022 A140     		lsls	r1, r1, r4
 434 0024 8A43     		bics	r2, r1
 435              	.LVL42:
 436 0026 1100     		movs	r1, r2
 437              	.LVL43:
1062:Generated_Source\PSoC4/CapSense_CSD.c ****     newRegisterValue |= (uint32)((uint32)CapSense_CSD_CSD_SENSE_PORT_MODE << pinHSIOMShift);
 438              		.loc 1 1062 0
 439 0028 0422     		movs	r2, #4
 440 002a A240     		lsls	r2, r2, r4
 441 002c 0A43     		orrs	r2, r1
 442              	.LVL44:
1063:Generated_Source\PSoC4/CapSense_CSD.c **** 
1064:Generated_Source\PSoC4/CapSense_CSD.c ****     *CapSense_CSD_prtCfgTbl[port] &= (uint32)~((uint32)CapSense_CSD_CSD_PIN_MODE_MASK << pinModeShi
 443              		.loc 1 1064 0
 444 002e 5C6A     		ldr	r4, [r3, #36]
 445              	.LVL45:
 446 0030 2368     		ldr	r3, [r4]
 447 0032 0721     		movs	r1, #7
 448 0034 A940     		lsls	r1, r1, r5
 449 0036 8B43     		bics	r3, r1
 450 0038 2360     		str	r3, [r4]
1065:Generated_Source\PSoC4/CapSense_CSD.c ****     *CapSense_CSD_prtSelTbl[port] = newRegisterValue;
 451              		.loc 1 1065 0
 452 003a 3260     		str	r2, [r6]
1066:Generated_Source\PSoC4/CapSense_CSD.c **** 
1067:Generated_Source\PSoC4/CapSense_CSD.c ****     CyExitCriticalSection(interruptState);
 453              		.loc 1 1067 0
 454 003c FFF7FEFF 		bl	CyExitCriticalSection
 455              	.LVL46:
1068:Generated_Source\PSoC4/CapSense_CSD.c **** }
 456              		.loc 1 1068 0
 457              		@ sp needed
 458              	.LVL47:
 459              	.LVL48:
 460 0040 F8BD     		pop	{r3, r4, r5, r6, r7, pc}
 461              	.L27:
 462 0042 C046     		.align	2
 463              	.L26:
 464 0044 00000000 		.word	.LANCHOR2
 465              		.cfi_endproc
 466              	.LFE47:
 467              		.size	CapSense_CSD_EnableSensor, .-CapSense_CSD_EnableSensor
 468              		.section	.text.CapSense_CSD_DisableSensor,"ax",%progbits
 469              		.align	2
 470              		.global	CapSense_CSD_DisableSensor
 471              		.code	16
ARM GAS  C:\Users\ZTIPRI~1\AppData\Local\Temp\ccBGTz86.s 			page 28


 472              		.thumb_func
 473              		.type	CapSense_CSD_DisableSensor, %function
 474              	CapSense_CSD_DisableSensor:
 475              	.LFB48:
1069:Generated_Source\PSoC4/CapSense_CSD.c **** 
1070:Generated_Source\PSoC4/CapSense_CSD.c **** 
1071:Generated_Source\PSoC4/CapSense_CSD.c **** /*******************************************************************************
1072:Generated_Source\PSoC4/CapSense_CSD.c **** * Function Name: CapSense_CSD_DisableSensor
1073:Generated_Source\PSoC4/CapSense_CSD.c **** ********************************************************************************
1074:Generated_Source\PSoC4/CapSense_CSD.c **** *
1075:Generated_Source\PSoC4/CapSense_CSD.c **** * Summary:
1076:Generated_Source\PSoC4/CapSense_CSD.c **** *  Disables the selected sensor. The corresponding pin is disconnected from the
1077:Generated_Source\PSoC4/CapSense_CSD.c **** *  Analog Mux Bus and connected to GND, High_Z or Shield electrode.
1078:Generated_Source\PSoC4/CapSense_CSD.c **** *
1079:Generated_Source\PSoC4/CapSense_CSD.c **** * Parameters:
1080:Generated_Source\PSoC4/CapSense_CSD.c **** *  sensor:  Sensor number
1081:Generated_Source\PSoC4/CapSense_CSD.c **** *
1082:Generated_Source\PSoC4/CapSense_CSD.c **** * Return:
1083:Generated_Source\PSoC4/CapSense_CSD.c **** *  None
1084:Generated_Source\PSoC4/CapSense_CSD.c **** *
1085:Generated_Source\PSoC4/CapSense_CSD.c **** * Global Variables:
1086:Generated_Source\PSoC4/CapSense_CSD.c **** *  CapSense_CSD_portTable[] - used to store the port number that pin
1087:Generated_Source\PSoC4/CapSense_CSD.c **** *  belongs to for each sensor.
1088:Generated_Source\PSoC4/CapSense_CSD.c **** *  CapSense_CSD_pinShiftTbl[] - used to store position of pin that
1089:Generated_Source\PSoC4/CapSense_CSD.c **** *  configured as a sensor in the port.
1090:Generated_Source\PSoC4/CapSense_CSD.c **** *  CapSense_CSD_prtSelTbl[] - Contains pointers to the HSIOM
1091:Generated_Source\PSoC4/CapSense_CSD.c **** *  registers for each port.
1092:Generated_Source\PSoC4/CapSense_CSD.c **** *  CapSense_CSD_PrtCfgTb[] - Contains pointers to the port config
1093:Generated_Source\PSoC4/CapSense_CSD.c **** *  registers for each port.
1094:Generated_Source\PSoC4/CapSense_CSD.c **** *
1095:Generated_Source\PSoC4/CapSense_CSD.c **** * Side Effects:
1096:Generated_Source\PSoC4/CapSense_CSD.c **** *  None
1097:Generated_Source\PSoC4/CapSense_CSD.c **** *
1098:Generated_Source\PSoC4/CapSense_CSD.c **** *******************************************************************************/
1099:Generated_Source\PSoC4/CapSense_CSD.c **** void CapSense_CSD_DisableSensor(uint32 sensor)
1100:Generated_Source\PSoC4/CapSense_CSD.c **** {
 476              		.loc 1 1100 0
 477              		.cfi_startproc
 478              		@ args = 0, pretend = 0, frame = 0
 479              		@ frame_needed = 0, uses_anonymous_args = 0
 480              	.LVL49:
 481 0000 F8B5     		push	{r3, r4, r5, r6, r7, lr}
 482              		.cfi_def_cfa_offset 24
 483              		.cfi_offset 3, -24
 484              		.cfi_offset 4, -20
 485              		.cfi_offset 5, -16
 486              		.cfi_offset 6, -12
 487              		.cfi_offset 7, -8
 488              		.cfi_offset 14, -4
1101:Generated_Source\PSoC4/CapSense_CSD.c ****     uint8 interruptState;
1102:Generated_Source\PSoC4/CapSense_CSD.c ****     uint32 newRegisterValue;
1103:Generated_Source\PSoC4/CapSense_CSD.c **** 
1104:Generated_Source\PSoC4/CapSense_CSD.c ****     uint32 port = (uint32) CapSense_CSD_portTable[sensor];
 489              		.loc 1 1104 0
 490 0002 194A     		ldr	r2, .L33
 491 0004 145C     		ldrb	r4, [r2, r0]
 492              	.LVL50:
ARM GAS  C:\Users\ZTIPRI~1\AppData\Local\Temp\ccBGTz86.s 			page 29


1105:Generated_Source\PSoC4/CapSense_CSD.c ****     uint8  pinHSIOMShift = CapSense_CSD_pinShiftTbl[sensor] * CapSense_CSD_HSIOM_PIN_CFG_SIZE;
 493              		.loc 1 1105 0
 494 0006 1318     		adds	r3, r2, r0
 495 0008 1F7A     		ldrb	r7, [r3, #8]
 496 000a B900     		lsls	r1, r7, #2
 497 000c C9B2     		uxtb	r1, r1
 498              	.LVL51:
1106:Generated_Source\PSoC4/CapSense_CSD.c ****     uint8  pinModeShift = CapSense_CSD_pinShiftTbl[sensor]  * CapSense_CSD_PC_PIN_CFG_SIZE;
 499              		.loc 1 1106 0
 500 000e 7D00     		lsls	r5, r7, #1
 501 0010 7D19     		adds	r5, r7, r5
 502 0012 EDB2     		uxtb	r5, r5
 503              	.LVL52:
1107:Generated_Source\PSoC4/CapSense_CSD.c **** 
1108:Generated_Source\PSoC4/CapSense_CSD.c ****     uint32 inactiveConnect = CapSense_CSD_SNS_HIZANALOG_CONNECT;
1109:Generated_Source\PSoC4/CapSense_CSD.c ****     uint32 sensorState = CapSense_CSD_unscannedSnsDriveMode[sensor];
 504              		.loc 1 1109 0
 505 0014 154B     		ldr	r3, .L33+4
 506 0016 185C     		ldrb	r0, [r3, r0]
 507              	.LVL53:
1110:Generated_Source\PSoC4/CapSense_CSD.c **** 
1111:Generated_Source\PSoC4/CapSense_CSD.c ****     *CapSense_CSD_prtSelTbl[port] &= ~(CapSense_CSD_CSD_HSIOM_MASK << pinHSIOMShift);
 508              		.loc 1 1111 0
 509 0018 A300     		lsls	r3, r4, #2
 510 001a D318     		adds	r3, r2, r3
 511 001c 1E69     		ldr	r6, [r3, #16]
 512 001e 3368     		ldr	r3, [r6]
 513 0020 0F22     		movs	r2, #15
 514 0022 8A40     		lsls	r2, r2, r1
 515 0024 9343     		bics	r3, r2
 516 0026 3360     		str	r3, [r6]
1112:Generated_Source\PSoC4/CapSense_CSD.c **** 
1113:Generated_Source\PSoC4/CapSense_CSD.c ****     #if(CapSense_CSD_IS_SHIELD_ENABLE != 0)
1114:Generated_Source\PSoC4/CapSense_CSD.c ****     if(sensorState != (uint32)CapSense_CSD__SHIELD)
1115:Generated_Source\PSoC4/CapSense_CSD.c ****     {
1116:Generated_Source\PSoC4/CapSense_CSD.c ****     #else
1117:Generated_Source\PSoC4/CapSense_CSD.c ****         /* Connected to Ground if shield is disabled */
1118:Generated_Source\PSoC4/CapSense_CSD.c ****         if(sensorState == (uint32)CapSense_CSD__SHIELD)
 517              		.loc 1 1118 0
 518 0028 0228     		cmp	r0, #2
 519 002a 00D1     		bne	.L29
1119:Generated_Source\PSoC4/CapSense_CSD.c ****         {
1120:Generated_Source\PSoC4/CapSense_CSD.c ****             sensorState = (uint32)CapSense_CSD__GROUND;
 520              		.loc 1 1120 0
 521 002c 0020     		movs	r0, #0
 522              	.LVL54:
 523              	.L29:
1121:Generated_Source\PSoC4/CapSense_CSD.c ****         }
1122:Generated_Source\PSoC4/CapSense_CSD.c ****     #endif /* (CapSense_CSD_IS_SHIELD_ENABLE) */
1123:Generated_Source\PSoC4/CapSense_CSD.c ****         if(sensorState != (uint32)CapSense_CSD__HIZ_ANALOG)
 524              		.loc 1 1123 0
 525 002e 0128     		cmp	r0, #1
 526 0030 01D1     		bne	.L32
1108:Generated_Source\PSoC4/CapSense_CSD.c ****     uint32 sensorState = CapSense_CSD_unscannedSnsDriveMode[sensor];
 527              		.loc 1 1108 0
 528 0032 0026     		movs	r6, #0
 529 0034 00E0     		b	.L30
ARM GAS  C:\Users\ZTIPRI~1\AppData\Local\Temp\ccBGTz86.s 			page 30


 530              	.L32:
1124:Generated_Source\PSoC4/CapSense_CSD.c ****         {
1125:Generated_Source\PSoC4/CapSense_CSD.c ****             /* Connected to Ground */
1126:Generated_Source\PSoC4/CapSense_CSD.c ****             inactiveConnect = (uint32)CapSense_CSD_SNS_GROUND_CONNECT;
 531              		.loc 1 1126 0
 532 0036 0626     		movs	r6, #6
 533              	.L30:
 534              	.LVL55:
1127:Generated_Source\PSoC4/CapSense_CSD.c ****         }
1128:Generated_Source\PSoC4/CapSense_CSD.c **** 
1129:Generated_Source\PSoC4/CapSense_CSD.c ****         interruptState = CyEnterCriticalSection();
 535              		.loc 1 1129 0
 536 0038 FFF7FEFF 		bl	CyEnterCriticalSection
 537              	.LVL56:
1130:Generated_Source\PSoC4/CapSense_CSD.c **** 
1131:Generated_Source\PSoC4/CapSense_CSD.c ****         /* Set drive mode */
1132:Generated_Source\PSoC4/CapSense_CSD.c ****         newRegisterValue = *CapSense_CSD_prtCfgTbl[port];
 538              		.loc 1 1132 0
 539 003c A400     		lsls	r4, r4, #2
 540              	.LVL57:
 541 003e 0A4B     		ldr	r3, .L33
 542              	.LVL58:
 543 0040 1C19     		adds	r4, r3, r4
 544 0042 616A     		ldr	r1, [r4, #36]
 545 0044 0B68     		ldr	r3, [r1]
 546              	.LVL59:
1133:Generated_Source\PSoC4/CapSense_CSD.c ****         newRegisterValue &= ~(CapSense_CSD_CSD_PIN_MODE_MASK << pinModeShift);
 547              		.loc 1 1133 0
 548 0046 0722     		movs	r2, #7
 549 0048 AA40     		lsls	r2, r2, r5
 550 004a 9343     		bics	r3, r2
 551              	.LVL60:
 552 004c 1A00     		movs	r2, r3
 553              	.LVL61:
1134:Generated_Source\PSoC4/CapSense_CSD.c ****         newRegisterValue |=  (uint32)(inactiveConnect << pinModeShift);
 554              		.loc 1 1134 0
 555 004e 3300     		movs	r3, r6
 556 0050 AB40     		lsls	r3, r3, r5
 557 0052 1343     		orrs	r3, r2
 558              	.LVL62:
1135:Generated_Source\PSoC4/CapSense_CSD.c ****         *CapSense_CSD_prtCfgTbl[port] =  newRegisterValue;
 559              		.loc 1 1135 0
 560 0054 0B60     		str	r3, [r1]
1136:Generated_Source\PSoC4/CapSense_CSD.c **** 
1137:Generated_Source\PSoC4/CapSense_CSD.c ****         CyExitCriticalSection(interruptState);
 561              		.loc 1 1137 0
 562 0056 FFF7FEFF 		bl	CyExitCriticalSection
 563              	.LVL63:
1138:Generated_Source\PSoC4/CapSense_CSD.c **** 
1139:Generated_Source\PSoC4/CapSense_CSD.c ****         *CapSense_CSD_prtDRTbl[port]  &=  (uint32)~(uint32)((uint32)1u << CapSense_CSD_pinShiftTbl[
 564              		.loc 1 1139 0
 565 005a A16B     		ldr	r1, [r4, #56]
 566 005c 0B68     		ldr	r3, [r1]
 567 005e 0122     		movs	r2, #1
 568 0060 BA40     		lsls	r2, r2, r7
 569 0062 9343     		bics	r3, r2
 570 0064 0B60     		str	r3, [r1]
ARM GAS  C:\Users\ZTIPRI~1\AppData\Local\Temp\ccBGTz86.s 			page 31


1140:Generated_Source\PSoC4/CapSense_CSD.c ****     #if(CapSense_CSD_IS_SHIELD_ENABLE != 0)
1141:Generated_Source\PSoC4/CapSense_CSD.c ****     }
1142:Generated_Source\PSoC4/CapSense_CSD.c ****     else
1143:Generated_Source\PSoC4/CapSense_CSD.c ****     {
1144:Generated_Source\PSoC4/CapSense_CSD.c ****         /* Connect to Shield */
1145:Generated_Source\PSoC4/CapSense_CSD.c ****         *CapSense_CSD_prtSelTbl[port] |= (CapSense_CSD_CSD_SHIELD_PORT_MODE << pinHSIOMShift);
1146:Generated_Source\PSoC4/CapSense_CSD.c ****     }
1147:Generated_Source\PSoC4/CapSense_CSD.c ****     #endif /* (CapSense_CSD_IS_SHIELD_ENABLE) */
1148:Generated_Source\PSoC4/CapSense_CSD.c **** }
 571              		.loc 1 1148 0
 572              		@ sp needed
 573              	.LVL64:
 574              	.LVL65:
 575              	.LVL66:
 576 0066 F8BD     		pop	{r3, r4, r5, r6, r7, pc}
 577              	.L34:
 578              		.align	2
 579              	.L33:
 580 0068 00000000 		.word	.LANCHOR2
 581 006c 00000000 		.word	CapSense_CSD_unscannedSnsDriveMode
 582              		.cfi_endproc
 583              	.LFE48:
 584              		.size	CapSense_CSD_DisableSensor, .-CapSense_CSD_DisableSensor
 585              		.section	.text.CapSense_CSD_ClearSensors,"ax",%progbits
 586              		.align	2
 587              		.global	CapSense_CSD_ClearSensors
 588              		.code	16
 589              		.thumb_func
 590              		.type	CapSense_CSD_ClearSensors, %function
 591              	CapSense_CSD_ClearSensors:
 592              	.LFB46:
 889:Generated_Source\PSoC4/CapSense_CSD.c ****     uint32 snsIndex;
 593              		.loc 1 889 0
 594              		.cfi_startproc
 595              		@ args = 0, pretend = 0, frame = 0
 596              		@ frame_needed = 0, uses_anonymous_args = 0
 597 0000 10B5     		push	{r4, lr}
 598              		.cfi_def_cfa_offset 8
 599              		.cfi_offset 4, -8
 600              		.cfi_offset 14, -4
 601              	.LVL67:
 892:Generated_Source\PSoC4/CapSense_CSD.c ****     {
 602              		.loc 1 892 0
 603 0002 0024     		movs	r4, #0
 604 0004 03E0     		b	.L36
 605              	.LVL68:
 606              	.L37:
 894:Generated_Source\PSoC4/CapSense_CSD.c ****     }
 607              		.loc 1 894 0 discriminator 3
 608 0006 2000     		movs	r0, r4
 609 0008 FFF7FEFF 		bl	CapSense_CSD_DisableSensor
 610              	.LVL69:
 892:Generated_Source\PSoC4/CapSense_CSD.c ****     {
 611              		.loc 1 892 0 discriminator 3
 612 000c 0134     		adds	r4, r4, #1
 613              	.LVL70:
 614              	.L36:
ARM GAS  C:\Users\ZTIPRI~1\AppData\Local\Temp\ccBGTz86.s 			page 32


 892:Generated_Source\PSoC4/CapSense_CSD.c ****     {
 615              		.loc 1 892 0 is_stmt 0 discriminator 1
 616 000e 042C     		cmp	r4, #4
 617 0010 F9D9     		bls	.L37
 896:Generated_Source\PSoC4/CapSense_CSD.c **** 
 618              		.loc 1 896 0 is_stmt 1
 619              		@ sp needed
 620              	.LVL71:
 621 0012 10BD     		pop	{r4, pc}
 622              		.cfi_endproc
 623              	.LFE46:
 624              		.size	CapSense_CSD_ClearSensors, .-CapSense_CSD_ClearSensors
 625              		.section	.text.CapSense_CSD_SetPinDriveMode,"ax",%progbits
 626              		.align	2
 627              		.global	CapSense_CSD_SetPinDriveMode
 628              		.code	16
 629              		.thumb_func
 630              		.type	CapSense_CSD_SetPinDriveMode, %function
 631              	CapSense_CSD_SetPinDriveMode:
 632              	.LFB51:
1149:Generated_Source\PSoC4/CapSense_CSD.c **** 
1150:Generated_Source\PSoC4/CapSense_CSD.c **** 
1151:Generated_Source\PSoC4/CapSense_CSD.c **** /*******************************************************************************
1152:Generated_Source\PSoC4/CapSense_CSD.c **** * Function Name: CapSense_CSD_SetDriveModeAllPins
1153:Generated_Source\PSoC4/CapSense_CSD.c **** ********************************************************************************
1154:Generated_Source\PSoC4/CapSense_CSD.c **** *
1155:Generated_Source\PSoC4/CapSense_CSD.c **** * Summary:
1156:Generated_Source\PSoC4/CapSense_CSD.c **** * This API sets the drive mode of port pins used by the CapSense
1157:Generated_Source\PSoC4/CapSense_CSD.c **** * component (sensors, guard, shield, shield tank and Cmod) to drive the
1158:Generated_Source\PSoC4/CapSense_CSD.c **** * mode specified by the argument.
1159:Generated_Source\PSoC4/CapSense_CSD.c **** *
1160:Generated_Source\PSoC4/CapSense_CSD.c **** * Parameters:
1161:Generated_Source\PSoC4/CapSense_CSD.c **** *  driveMode:  Drive mode definition.
1162:Generated_Source\PSoC4/CapSense_CSD.c **** *
1163:Generated_Source\PSoC4/CapSense_CSD.c **** * Return:
1164:Generated_Source\PSoC4/CapSense_CSD.c **** *  None
1165:Generated_Source\PSoC4/CapSense_CSD.c **** *
1166:Generated_Source\PSoC4/CapSense_CSD.c **** * Global Variables:
1167:Generated_Source\PSoC4/CapSense_CSD.c **** *  CapSense_CSD_portTable[] - used to store the port number that pin
1168:Generated_Source\PSoC4/CapSense_CSD.c **** *  belongs to for each sensor.
1169:Generated_Source\PSoC4/CapSense_CSD.c **** *  CapSense_CSD_pinShiftTbl[] - used to store position of pin that
1170:Generated_Source\PSoC4/CapSense_CSD.c **** *  configured as a sensor in the port.
1171:Generated_Source\PSoC4/CapSense_CSD.c **** *
1172:Generated_Source\PSoC4/CapSense_CSD.c **** * Side Effects:
1173:Generated_Source\PSoC4/CapSense_CSD.c **** *  This API shall be called only after CapSense component is stopped.
1174:Generated_Source\PSoC4/CapSense_CSD.c **** *
1175:Generated_Source\PSoC4/CapSense_CSD.c **** *******************************************************************************/
1176:Generated_Source\PSoC4/CapSense_CSD.c **** void CapSense_CSD_SetDriveModeAllPins(uint32 driveMode)
1177:Generated_Source\PSoC4/CapSense_CSD.c **** {
1178:Generated_Source\PSoC4/CapSense_CSD.c ****     uint8 curSensor;
1179:Generated_Source\PSoC4/CapSense_CSD.c ****     #if (CapSense_CSD_IS_COMPLEX_SCANSLOTS)
1180:Generated_Source\PSoC4/CapSense_CSD.c ****         uint8 snsNumber;
1181:Generated_Source\PSoC4/CapSense_CSD.c ****         uint8 snsType;
1182:Generated_Source\PSoC4/CapSense_CSD.c ****     #endif  /* CapSense_CSD_IS_COMPLEX_SCANSLOTS */
1183:Generated_Source\PSoC4/CapSense_CSD.c ****     uint32 prtNumberTmp;
1184:Generated_Source\PSoC4/CapSense_CSD.c ****     uint32 pinNumberTmp;
1185:Generated_Source\PSoC4/CapSense_CSD.c **** 
ARM GAS  C:\Users\ZTIPRI~1\AppData\Local\Temp\ccBGTz86.s 			page 33


1186:Generated_Source\PSoC4/CapSense_CSD.c ****     for(curSensor = 0u; curSensor < CapSense_CSD_TOTAL_SENSOR_COUNT; curSensor++)
1187:Generated_Source\PSoC4/CapSense_CSD.c ****     {
1188:Generated_Source\PSoC4/CapSense_CSD.c ****         #if (CapSense_CSD_IS_COMPLEX_SCANSLOTS)
1189:Generated_Source\PSoC4/CapSense_CSD.c ****             /* Read sensor type: single or complex */
1190:Generated_Source\PSoC4/CapSense_CSD.c ****             snsType = CapSense_CSD_portTable[curSensor];
1191:Generated_Source\PSoC4/CapSense_CSD.c **** 
1192:Generated_Source\PSoC4/CapSense_CSD.c ****             /* Check if sensor is complex */
1193:Generated_Source\PSoC4/CapSense_CSD.c ****             if ((snsType & CapSense_CSD_COMPLEX_SS_FLAG) == 0u)
1194:Generated_Source\PSoC4/CapSense_CSD.c ****             {
1195:Generated_Source\PSoC4/CapSense_CSD.c ****                 /* The sensor is not complex */
1196:Generated_Source\PSoC4/CapSense_CSD.c ****                 snsNumber = curSensor;
1197:Generated_Source\PSoC4/CapSense_CSD.c ****             }
1198:Generated_Source\PSoC4/CapSense_CSD.c ****             else
1199:Generated_Source\PSoC4/CapSense_CSD.c ****             {
1200:Generated_Source\PSoC4/CapSense_CSD.c ****                 /* Get dedicated sensor ID of the complex sensor */
1201:Generated_Source\PSoC4/CapSense_CSD.c ****                 snsType &= ~CapSense_CSD_COMPLEX_SS_FLAG;
1202:Generated_Source\PSoC4/CapSense_CSD.c ****                 snsNumber = CapSense_CSD_indexTable[snsType];
1203:Generated_Source\PSoC4/CapSense_CSD.c ****             }
1204:Generated_Source\PSoC4/CapSense_CSD.c **** 
1205:Generated_Source\PSoC4/CapSense_CSD.c ****             prtNumberTmp = CapSense_CSD_portTable[snsNumber];
1206:Generated_Source\PSoC4/CapSense_CSD.c ****             pinNumberTmp = CapSense_CSD_pinShiftTbl[snsNumber];
1207:Generated_Source\PSoC4/CapSense_CSD.c ****         #else
1208:Generated_Source\PSoC4/CapSense_CSD.c ****             prtNumberTmp = CapSense_CSD_portTable[curSensor];
1209:Generated_Source\PSoC4/CapSense_CSD.c ****             pinNumberTmp = CapSense_CSD_pinShiftTbl[curSensor];
1210:Generated_Source\PSoC4/CapSense_CSD.c ****         #endif  /* CapSense_CSD_IS_COMPLEX_SCANSLOTS */
1211:Generated_Source\PSoC4/CapSense_CSD.c **** 
1212:Generated_Source\PSoC4/CapSense_CSD.c ****         CapSense_CSD_SetPinDriveMode(driveMode, pinNumberTmp, prtNumberTmp);
1213:Generated_Source\PSoC4/CapSense_CSD.c ****     }
1214:Generated_Source\PSoC4/CapSense_CSD.c **** 
1215:Generated_Source\PSoC4/CapSense_CSD.c ****     CapSense_CSD_SetPinDriveMode(driveMode, (uint32)CapSense_CSD_CMOD_PIN_NUMBER, (uint32)CapSense_
1216:Generated_Source\PSoC4/CapSense_CSD.c **** 
1217:Generated_Source\PSoC4/CapSense_CSD.c ****     #if(0u != CapSense_CSD_CSH_TANK_ENABLE)
1218:Generated_Source\PSoC4/CapSense_CSD.c ****         CapSense_CSD_SetPinDriveMode(driveMode, (uint32)CapSense_CSD_CTANK_PIN_NUMBER, (uint32)CapS
1219:Generated_Source\PSoC4/CapSense_CSD.c ****     #endif /* (0u != CapSense_CSD_CSH_TANK_ENABLE) */
1220:Generated_Source\PSoC4/CapSense_CSD.c **** 
1221:Generated_Source\PSoC4/CapSense_CSD.c ****     #if(0u != CapSense_CSD_IS_SHIELD_ENABLE)
1222:Generated_Source\PSoC4/CapSense_CSD.c ****         CapSense_CSD_SetPinDriveMode(driveMode, (uint32)CapSense_CSD_SHIELD_PIN_NUMBER, (uint32)Cap
1223:Generated_Source\PSoC4/CapSense_CSD.c ****     #endif /* (0u != CapSense_CSD_IS_SHIELD_ENABLE) */
1224:Generated_Source\PSoC4/CapSense_CSD.c **** }
1225:Generated_Source\PSoC4/CapSense_CSD.c **** 
1226:Generated_Source\PSoC4/CapSense_CSD.c **** 
1227:Generated_Source\PSoC4/CapSense_CSD.c **** /*******************************************************************************
1228:Generated_Source\PSoC4/CapSense_CSD.c **** * Function Name: CapSense_CSD_RestoreDriveModeAllPins
1229:Generated_Source\PSoC4/CapSense_CSD.c **** ********************************************************************************
1230:Generated_Source\PSoC4/CapSense_CSD.c **** *
1231:Generated_Source\PSoC4/CapSense_CSD.c **** * Summary:
1232:Generated_Source\PSoC4/CapSense_CSD.c **** *  This API restores the drive for all the CapSense port pins to the original
1233:Generated_Source\PSoC4/CapSense_CSD.c **** *  state.
1234:Generated_Source\PSoC4/CapSense_CSD.c **** *
1235:Generated_Source\PSoC4/CapSense_CSD.c **** * Parameters:
1236:Generated_Source\PSoC4/CapSense_CSD.c **** *  None
1237:Generated_Source\PSoC4/CapSense_CSD.c **** *
1238:Generated_Source\PSoC4/CapSense_CSD.c **** * Return:
1239:Generated_Source\PSoC4/CapSense_CSD.c **** *  None
1240:Generated_Source\PSoC4/CapSense_CSD.c **** *
1241:Generated_Source\PSoC4/CapSense_CSD.c **** * Global Variables:
1242:Generated_Source\PSoC4/CapSense_CSD.c **** *  CapSense_CSD_prtSelTbl[] - Contains pointers to the HSIOM
ARM GAS  C:\Users\ZTIPRI~1\AppData\Local\Temp\ccBGTz86.s 			page 34


1243:Generated_Source\PSoC4/CapSense_CSD.c **** *  registers for each port.
1244:Generated_Source\PSoC4/CapSense_CSD.c **** *
1245:Generated_Source\PSoC4/CapSense_CSD.c **** * Side Effects:
1246:Generated_Source\PSoC4/CapSense_CSD.c **** *  This API is called only after the CapSense component is stopped.
1247:Generated_Source\PSoC4/CapSense_CSD.c **** *
1248:Generated_Source\PSoC4/CapSense_CSD.c **** *******************************************************************************/
1249:Generated_Source\PSoC4/CapSense_CSD.c **** void CapSense_CSD_RestoreDriveModeAllPins(void)
1250:Generated_Source\PSoC4/CapSense_CSD.c **** {
1251:Generated_Source\PSoC4/CapSense_CSD.c ****     uint32 newRegisterValue;
1252:Generated_Source\PSoC4/CapSense_CSD.c **** 
1253:Generated_Source\PSoC4/CapSense_CSD.c ****     CapSense_CSD_SetDriveModeAllPins(CY_SYS_PINS_DM_ALG_HIZ);
1254:Generated_Source\PSoC4/CapSense_CSD.c **** 
1255:Generated_Source\PSoC4/CapSense_CSD.c ****     newRegisterValue = CapSense_CSD_CMOD_CONNECTION_REG;
1256:Generated_Source\PSoC4/CapSense_CSD.c ****     newRegisterValue &= ~(CapSense_CSD_CSD_CMOD_CONNECTION_MASK);
1257:Generated_Source\PSoC4/CapSense_CSD.c ****     newRegisterValue |= CapSense_CSD_CSD_CMOD_TO_AMUXBUS_A;
1258:Generated_Source\PSoC4/CapSense_CSD.c ****     CapSense_CSD_CMOD_CONNECTION_REG = newRegisterValue;
1259:Generated_Source\PSoC4/CapSense_CSD.c **** 
1260:Generated_Source\PSoC4/CapSense_CSD.c ****     #if(0u != CapSense_CSD_CSH_TANK_ENABLE)
1261:Generated_Source\PSoC4/CapSense_CSD.c ****         newRegisterValue = CapSense_CSD_CTANK_CONNECTION_REG;
1262:Generated_Source\PSoC4/CapSense_CSD.c ****         newRegisterValue &= ~(CapSense_CSD_CSD_CTANK_CONNECTION_MASK);
1263:Generated_Source\PSoC4/CapSense_CSD.c ****         newRegisterValue |= CapSense_CSD_CSD_CTANK_TO_AMUXBUS_B;
1264:Generated_Source\PSoC4/CapSense_CSD.c ****         CapSense_CSD_CTANK_CONNECTION_REG = newRegisterValue;
1265:Generated_Source\PSoC4/CapSense_CSD.c ****     #endif/* (0u != CapSense_CSD_CSH_TANK_ENABLE) */
1266:Generated_Source\PSoC4/CapSense_CSD.c **** 
1267:Generated_Source\PSoC4/CapSense_CSD.c ****     #if(0u != CapSense_CSD_IS_SHIELD_ENABLE)
1268:Generated_Source\PSoC4/CapSense_CSD.c ****         newRegisterValue = *CapSense_CSD_prtSelTbl[CapSense_CSD_SHIELD_PORT_NUMBER];
1269:Generated_Source\PSoC4/CapSense_CSD.c ****         newRegisterValue &= ~(CapSense_CSD_CSD_HSIOM_MASK << ((uint32)CapSense_CSD_SHIELD_PIN_NUMBE
1270:Generated_Source\PSoC4/CapSense_CSD.c ****         newRegisterValue |= (CapSense_CSD_CSD_SHIELD_PORT_MODE << ((uint32)CapSense_CSD_SHIELD_PIN_
1271:Generated_Source\PSoC4/CapSense_CSD.c ****         *CapSense_CSD_prtSelTbl[CapSense_CSD_SHIELD_PORT_NUMBER] = newRegisterValue;
1272:Generated_Source\PSoC4/CapSense_CSD.c ****     #endif /* (0u != CapSense_CSD_IS_SHIELD_ENABLE) */
1273:Generated_Source\PSoC4/CapSense_CSD.c **** }
1274:Generated_Source\PSoC4/CapSense_CSD.c **** 
1275:Generated_Source\PSoC4/CapSense_CSD.c **** 
1276:Generated_Source\PSoC4/CapSense_CSD.c **** /*******************************************************************************
1277:Generated_Source\PSoC4/CapSense_CSD.c **** * Function Name: CapSense_CSD_SetPinDriveMode
1278:Generated_Source\PSoC4/CapSense_CSD.c **** ********************************************************************************
1279:Generated_Source\PSoC4/CapSense_CSD.c **** *
1280:Generated_Source\PSoC4/CapSense_CSD.c **** * Summary:
1281:Generated_Source\PSoC4/CapSense_CSD.c **** * This API sets the drive mode for the appropriate port/pin.
1282:Generated_Source\PSoC4/CapSense_CSD.c **** *
1283:Generated_Source\PSoC4/CapSense_CSD.c **** * Parameters:
1284:Generated_Source\PSoC4/CapSense_CSD.c **** *  driveMode:  Drive mode definition.
1285:Generated_Source\PSoC4/CapSense_CSD.c **** *  portNumber: contains port number (0, 1, 2).
1286:Generated_Source\PSoC4/CapSense_CSD.c **** *  pinNumber: contains pin number (0, 1, 2, ... , 7).
1287:Generated_Source\PSoC4/CapSense_CSD.c **** *
1288:Generated_Source\PSoC4/CapSense_CSD.c **** * Return:
1289:Generated_Source\PSoC4/CapSense_CSD.c **** *  None
1290:Generated_Source\PSoC4/CapSense_CSD.c **** *
1291:Generated_Source\PSoC4/CapSense_CSD.c **** * Global Variables:
1292:Generated_Source\PSoC4/CapSense_CSD.c **** *  CapSense_CSD_prtSelTbl[] - Contains pointers to the HSIOM
1293:Generated_Source\PSoC4/CapSense_CSD.c **** *  registers for each port.
1294:Generated_Source\PSoC4/CapSense_CSD.c **** *  CapSense_CSD_prtCfgTb[] - Contains pointers to the port config
1295:Generated_Source\PSoC4/CapSense_CSD.c **** *  registers for each port.
1296:Generated_Source\PSoC4/CapSense_CSD.c **** *
1297:Generated_Source\PSoC4/CapSense_CSD.c **** * Side Effects:
1298:Generated_Source\PSoC4/CapSense_CSD.c **** *  This API is called only after CapSense component is stopped.
1299:Generated_Source\PSoC4/CapSense_CSD.c **** *
ARM GAS  C:\Users\ZTIPRI~1\AppData\Local\Temp\ccBGTz86.s 			page 35


1300:Generated_Source\PSoC4/CapSense_CSD.c **** *******************************************************************************/
1301:Generated_Source\PSoC4/CapSense_CSD.c **** void CapSense_CSD_SetPinDriveMode(uint32 driveMode, uint32 pinNumber, uint32 portNumber)
1302:Generated_Source\PSoC4/CapSense_CSD.c **** {
 633              		.loc 1 1302 0
 634              		.cfi_startproc
 635              		@ args = 0, pretend = 0, frame = 0
 636              		@ frame_needed = 0, uses_anonymous_args = 0
 637              	.LVL72:
 638 0000 10B5     		push	{r4, lr}
 639              		.cfi_def_cfa_offset 8
 640              		.cfi_offset 4, -8
 641              		.cfi_offset 14, -4
1303:Generated_Source\PSoC4/CapSense_CSD.c ****     uint32  pinModeShift;
1304:Generated_Source\PSoC4/CapSense_CSD.c ****     uint32 newRegisterValue;
1305:Generated_Source\PSoC4/CapSense_CSD.c **** 
1306:Generated_Source\PSoC4/CapSense_CSD.c ****     pinModeShift  = pinNumber * CapSense_CSD_PC_PIN_CFG_SIZE;
 642              		.loc 1 1306 0
 643 0002 4B00     		lsls	r3, r1, #1
 644 0004 5918     		adds	r1, r3, r1
 645              	.LVL73:
1307:Generated_Source\PSoC4/CapSense_CSD.c **** 
1308:Generated_Source\PSoC4/CapSense_CSD.c ****     newRegisterValue = *CapSense_CSD_prtCfgTbl[portNumber];
 646              		.loc 1 1308 0
 647 0006 9200     		lsls	r2, r2, #2
 648              	.LVL74:
 649 0008 054B     		ldr	r3, .L39
 650 000a 9A18     		adds	r2, r3, r2
 651 000c 546A     		ldr	r4, [r2, #36]
 652 000e 2368     		ldr	r3, [r4]
 653              	.LVL75:
1309:Generated_Source\PSoC4/CapSense_CSD.c ****     newRegisterValue &= ~(CapSense_CSD_CSD_PIN_MODE_MASK << pinModeShift);
 654              		.loc 1 1309 0
 655 0010 0722     		movs	r2, #7
 656 0012 8A40     		lsls	r2, r2, r1
 657 0014 9343     		bics	r3, r2
 658              	.LVL76:
1310:Generated_Source\PSoC4/CapSense_CSD.c ****     newRegisterValue |=  (uint32)((uint32)driveMode << pinModeShift);
 659              		.loc 1 1310 0
 660 0016 8840     		lsls	r0, r0, r1
 661              	.LVL77:
 662 0018 1843     		orrs	r0, r3
 663              	.LVL78:
1311:Generated_Source\PSoC4/CapSense_CSD.c ****     *CapSense_CSD_prtCfgTbl[portNumber] =  newRegisterValue;
 664              		.loc 1 1311 0
 665 001a 2060     		str	r0, [r4]
1312:Generated_Source\PSoC4/CapSense_CSD.c **** }
 666              		.loc 1 1312 0
 667              		@ sp needed
 668 001c 10BD     		pop	{r4, pc}
 669              	.L40:
 670 001e C046     		.align	2
 671              	.L39:
 672 0020 00000000 		.word	.LANCHOR2
 673              		.cfi_endproc
 674              	.LFE51:
 675              		.size	CapSense_CSD_SetPinDriveMode, .-CapSense_CSD_SetPinDriveMode
 676              		.section	.text.CapSense_CSD_SetDriveModeAllPins,"ax",%progbits
ARM GAS  C:\Users\ZTIPRI~1\AppData\Local\Temp\ccBGTz86.s 			page 36


 677              		.align	2
 678              		.global	CapSense_CSD_SetDriveModeAllPins
 679              		.code	16
 680              		.thumb_func
 681              		.type	CapSense_CSD_SetDriveModeAllPins, %function
 682              	CapSense_CSD_SetDriveModeAllPins:
 683              	.LFB49:
1177:Generated_Source\PSoC4/CapSense_CSD.c ****     uint8 curSensor;
 684              		.loc 1 1177 0
 685              		.cfi_startproc
 686              		@ args = 0, pretend = 0, frame = 0
 687              		@ frame_needed = 0, uses_anonymous_args = 0
 688              	.LVL79:
 689 0000 70B5     		push	{r4, r5, r6, lr}
 690              		.cfi_def_cfa_offset 16
 691              		.cfi_offset 4, -16
 692              		.cfi_offset 5, -12
 693              		.cfi_offset 6, -8
 694              		.cfi_offset 14, -4
 695 0002 0500     		movs	r5, r0
 696              	.LVL80:
1186:Generated_Source\PSoC4/CapSense_CSD.c ****     {
 697              		.loc 1 1186 0
 698 0004 0024     		movs	r4, #0
 699 0006 08E0     		b	.L42
 700              	.LVL81:
 701              	.L43:
1208:Generated_Source\PSoC4/CapSense_CSD.c ****             pinNumberTmp = CapSense_CSD_pinShiftTbl[curSensor];
 702              		.loc 1 1208 0 discriminator 3
 703 0008 084B     		ldr	r3, .L44
 704 000a 1A5D     		ldrb	r2, [r3, r4]
 705              	.LVL82:
1209:Generated_Source\PSoC4/CapSense_CSD.c ****         #endif  /* CapSense_CSD_IS_COMPLEX_SCANSLOTS */
 706              		.loc 1 1209 0 discriminator 3
 707 000c 1B19     		adds	r3, r3, r4
 708 000e 197A     		ldrb	r1, [r3, #8]
 709              	.LVL83:
1212:Generated_Source\PSoC4/CapSense_CSD.c ****     }
 710              		.loc 1 1212 0 discriminator 3
 711 0010 2800     		movs	r0, r5
 712 0012 FFF7FEFF 		bl	CapSense_CSD_SetPinDriveMode
 713              	.LVL84:
1186:Generated_Source\PSoC4/CapSense_CSD.c ****     {
 714              		.loc 1 1186 0 discriminator 3
 715 0016 0134     		adds	r4, r4, #1
 716              	.LVL85:
 717 0018 E4B2     		uxtb	r4, r4
 718              	.LVL86:
 719              	.L42:
1186:Generated_Source\PSoC4/CapSense_CSD.c ****     {
 720              		.loc 1 1186 0 is_stmt 0 discriminator 1
 721 001a 042C     		cmp	r4, #4
 722 001c F4D9     		bls	.L43
1215:Generated_Source\PSoC4/CapSense_CSD.c **** 
 723              		.loc 1 1215 0 is_stmt 1
 724 001e 0422     		movs	r2, #4
 725 0020 0221     		movs	r1, #2
ARM GAS  C:\Users\ZTIPRI~1\AppData\Local\Temp\ccBGTz86.s 			page 37


 726 0022 2800     		movs	r0, r5
 727 0024 FFF7FEFF 		bl	CapSense_CSD_SetPinDriveMode
 728              	.LVL87:
1224:Generated_Source\PSoC4/CapSense_CSD.c **** 
 729              		.loc 1 1224 0
 730              		@ sp needed
 731              	.LVL88:
 732              	.LVL89:
 733 0028 70BD     		pop	{r4, r5, r6, pc}
 734              	.L45:
 735 002a C046     		.align	2
 736              	.L44:
 737 002c 00000000 		.word	.LANCHOR2
 738              		.cfi_endproc
 739              	.LFE49:
 740              		.size	CapSense_CSD_SetDriveModeAllPins, .-CapSense_CSD_SetDriveModeAllPins
 741              		.section	.text.CapSense_CSD_RestoreDriveModeAllPins,"ax",%progbits
 742              		.align	2
 743              		.global	CapSense_CSD_RestoreDriveModeAllPins
 744              		.code	16
 745              		.thumb_func
 746              		.type	CapSense_CSD_RestoreDriveModeAllPins, %function
 747              	CapSense_CSD_RestoreDriveModeAllPins:
 748              	.LFB50:
1250:Generated_Source\PSoC4/CapSense_CSD.c ****     uint32 newRegisterValue;
 749              		.loc 1 1250 0
 750              		.cfi_startproc
 751              		@ args = 0, pretend = 0, frame = 0
 752              		@ frame_needed = 0, uses_anonymous_args = 0
 753 0000 10B5     		push	{r4, lr}
 754              		.cfi_def_cfa_offset 8
 755              		.cfi_offset 4, -8
 756              		.cfi_offset 14, -4
1253:Generated_Source\PSoC4/CapSense_CSD.c **** 
 757              		.loc 1 1253 0
 758 0002 0020     		movs	r0, #0
 759 0004 FFF7FEFF 		bl	CapSense_CSD_SetDriveModeAllPins
 760              	.LVL90:
1255:Generated_Source\PSoC4/CapSense_CSD.c ****     newRegisterValue &= ~(CapSense_CSD_CSD_CMOD_CONNECTION_MASK);
 761              		.loc 1 1255 0
 762 0008 044A     		ldr	r2, .L47
 763 000a 1168     		ldr	r1, [r2]
 764              	.LVL91:
1256:Generated_Source\PSoC4/CapSense_CSD.c ****     newRegisterValue |= CapSense_CSD_CSD_CMOD_TO_AMUXBUS_A;
 765              		.loc 1 1256 0
 766 000c 044B     		ldr	r3, .L47+4
 767 000e 0B40     		ands	r3, r1
 768              	.LVL92:
1257:Generated_Source\PSoC4/CapSense_CSD.c ****     CapSense_CSD_CMOD_CONNECTION_REG = newRegisterValue;
 769              		.loc 1 1257 0
 770 0010 C021     		movs	r1, #192
 771 0012 C900     		lsls	r1, r1, #3
 772 0014 0B43     		orrs	r3, r1
 773              	.LVL93:
1258:Generated_Source\PSoC4/CapSense_CSD.c **** 
 774              		.loc 1 1258 0
 775 0016 1360     		str	r3, [r2]
ARM GAS  C:\Users\ZTIPRI~1\AppData\Local\Temp\ccBGTz86.s 			page 38


1273:Generated_Source\PSoC4/CapSense_CSD.c **** 
 776              		.loc 1 1273 0
 777              		@ sp needed
 778 0018 10BD     		pop	{r4, pc}
 779              	.L48:
 780 001a C046     		.align	2
 781              	.L47:
 782 001c 10000140 		.word	1073807376
 783 0020 FFF0FFFF 		.word	-3841
 784              		.cfi_endproc
 785              	.LFE50:
 786              		.size	CapSense_CSD_RestoreDriveModeAllPins, .-CapSense_CSD_RestoreDriveModeAllPins
 787              		.section	.text.CapSense_CSD_EnableShieldElectrode,"ax",%progbits
 788              		.align	2
 789              		.global	CapSense_CSD_EnableShieldElectrode
 790              		.code	16
 791              		.thumb_func
 792              		.type	CapSense_CSD_EnableShieldElectrode, %function
 793              	CapSense_CSD_EnableShieldElectrode:
 794              	.LFB54:
1313:Generated_Source\PSoC4/CapSense_CSD.c **** 
1314:Generated_Source\PSoC4/CapSense_CSD.c **** 
1315:Generated_Source\PSoC4/CapSense_CSD.c **** /*******************************************************************************
1316:Generated_Source\PSoC4/CapSense_CSD.c **** * Function Name: CapSense_CSD_PreScan
1317:Generated_Source\PSoC4/CapSense_CSD.c **** ********************************************************************************
1318:Generated_Source\PSoC4/CapSense_CSD.c **** *
1319:Generated_Source\PSoC4/CapSense_CSD.c **** * Summary:
1320:Generated_Source\PSoC4/CapSense_CSD.c **** *  Sets required settings, enables a sensor, removes Vref from AMUX and starts the
1321:Generated_Source\PSoC4/CapSense_CSD.c **** *  scanning process of the sensor.
1322:Generated_Source\PSoC4/CapSense_CSD.c **** *
1323:Generated_Source\PSoC4/CapSense_CSD.c **** * Parameters:
1324:Generated_Source\PSoC4/CapSense_CSD.c **** *  sensor:  Sensor number.
1325:Generated_Source\PSoC4/CapSense_CSD.c **** *
1326:Generated_Source\PSoC4/CapSense_CSD.c **** * Return:
1327:Generated_Source\PSoC4/CapSense_CSD.c **** *  None
1328:Generated_Source\PSoC4/CapSense_CSD.c **** *
1329:Generated_Source\PSoC4/CapSense_CSD.c **** * Global Variables:
1330:Generated_Source\PSoC4/CapSense_CSD.c **** * CapSense_CSD_widgetNumber[] - This array contains numbers of widgets for each sensor.
1331:Generated_Source\PSoC4/CapSense_CSD.c **** * CapSense_CSD_widgetResolution[] - Contains the widget resolution.
1332:Generated_Source\PSoC4/CapSense_CSD.c **** *
1333:Generated_Source\PSoC4/CapSense_CSD.c **** * Side Effects:
1334:Generated_Source\PSoC4/CapSense_CSD.c **** *  None
1335:Generated_Source\PSoC4/CapSense_CSD.c **** *
1336:Generated_Source\PSoC4/CapSense_CSD.c **** *******************************************************************************/
1337:Generated_Source\PSoC4/CapSense_CSD.c **** void CapSense_CSD_PreScan(uint32 sensor)
1338:Generated_Source\PSoC4/CapSense_CSD.c **** {
1339:Generated_Source\PSoC4/CapSense_CSD.c ****     uint8 widget;
1340:Generated_Source\PSoC4/CapSense_CSD.c ****     uint8 interruptState;
1341:Generated_Source\PSoC4/CapSense_CSD.c ****     uint32 newRegValue;
1342:Generated_Source\PSoC4/CapSense_CSD.c ****     uint32 counterResolution;
1343:Generated_Source\PSoC4/CapSense_CSD.c **** 
1344:Generated_Source\PSoC4/CapSense_CSD.c ****     #if(CapSense_CSD_PRS_OPTIONS == CapSense_CSD__PRS_AUTO)
1345:Generated_Source\PSoC4/CapSense_CSD.c ****         uint8 senseClkDivMath;
1346:Generated_Source\PSoC4/CapSense_CSD.c ****         uint8 sampleClkDivMath;
1347:Generated_Source\PSoC4/CapSense_CSD.c ****     #endif /* (CapSense_CSD_PRS_OPTIONS == CapSense_CSD__PRS_AUTO) */
1348:Generated_Source\PSoC4/CapSense_CSD.c **** 
1349:Generated_Source\PSoC4/CapSense_CSD.c ****     #if ((CapSense_CSD_TUNING_METHOD == CapSense_CSD__TUNING_AUTO) &&\
ARM GAS  C:\Users\ZTIPRI~1\AppData\Local\Temp\ccBGTz86.s 			page 39


1350:Generated_Source\PSoC4/CapSense_CSD.c ****          (0 != CapSense_CSD_IS_OVERSAMPLING_EN))
1351:Generated_Source\PSoC4/CapSense_CSD.c ****         uint32 oversamplingFactor;
1352:Generated_Source\PSoC4/CapSense_CSD.c ****     #endif /* ((CapSense_CSD_TUNING_METHOD == CapSense_CSD__TUNING_AUTO) &&\
1353:Generated_Source\PSoC4/CapSense_CSD.c ****                (0 != CapSense_CSD_IS_OVERSAMPLING_EN)) */
1354:Generated_Source\PSoC4/CapSense_CSD.c **** 
1355:Generated_Source\PSoC4/CapSense_CSD.c ****     /* Define widget sensor belongs to */
1356:Generated_Source\PSoC4/CapSense_CSD.c ****     widget = CapSense_CSD_widgetNumber[sensor];
1357:Generated_Source\PSoC4/CapSense_CSD.c **** 
1358:Generated_Source\PSoC4/CapSense_CSD.c ****     /* Recalculate Counter Resolution to MSB 16 bits */
1359:Generated_Source\PSoC4/CapSense_CSD.c ****     counterResolution = CapSense_CSD_widgetResolution[widget];
1360:Generated_Source\PSoC4/CapSense_CSD.c **** 
1361:Generated_Source\PSoC4/CapSense_CSD.c ****     #if ((CapSense_CSD_TUNING_METHOD == CapSense_CSD__TUNING_AUTO) &&\
1362:Generated_Source\PSoC4/CapSense_CSD.c ****          (0 != CapSense_CSD_IS_OVERSAMPLING_EN))
1363:Generated_Source\PSoC4/CapSense_CSD.c ****         oversamplingFactor = CapSense_CSD_GetBitValue(CapSense_CSD_scanSpeedTbl, sensor);
1364:Generated_Source\PSoC4/CapSense_CSD.c **** 
1365:Generated_Source\PSoC4/CapSense_CSD.c ****         if(counterResolution < CapSense_CSD_RESOLUTION_16_BITS)
1366:Generated_Source\PSoC4/CapSense_CSD.c ****         {
1367:Generated_Source\PSoC4/CapSense_CSD.c ****             counterResolution <<= oversamplingFactor;
1368:Generated_Source\PSoC4/CapSense_CSD.c ****             counterResolution |= (uint32)(CapSense_CSD_RESOLUTION_8_BITS);
1369:Generated_Source\PSoC4/CapSense_CSD.c ****         }
1370:Generated_Source\PSoC4/CapSense_CSD.c ****     #endif /* ((CapSense_CSD_TUNING_METHOD == CapSense_CSD__TUNING_AUTO) &&\
1371:Generated_Source\PSoC4/CapSense_CSD.c ****                (0 != CapSense_CSD_IS_OVERSAMPLING_EN)) */
1372:Generated_Source\PSoC4/CapSense_CSD.c **** 
1373:Generated_Source\PSoC4/CapSense_CSD.c ****     #if (0u != CapSense_CSD_IS_M0S8PERI_BLOCK)
1374:Generated_Source\PSoC4/CapSense_CSD.c ****         CapSense_CSD_SenseClk_Stop();
1375:Generated_Source\PSoC4/CapSense_CSD.c ****         CapSense_CSD_SampleClk_Stop();
1376:Generated_Source\PSoC4/CapSense_CSD.c ****     #endif /* (0u != CapSense_CSD_IS_M0S8PERI_BLOCK) */
1377:Generated_Source\PSoC4/CapSense_CSD.c **** 
1378:Generated_Source\PSoC4/CapSense_CSD.c ****     #if (0u != CapSense_CSD_MULTIPLE_FREQUENCY_SET)
1379:Generated_Source\PSoC4/CapSense_CSD.c ****         CapSense_CSD_SampleClk_SetDividerValue((uint16)CapSense_CSD_sampleClkDividerVal[sensor]);
1380:Generated_Source\PSoC4/CapSense_CSD.c ****         CapSense_CSD_SenseClk_SetDividerValue((uint16)CapSense_CSD_senseClkDividerVal[sensor]);
1381:Generated_Source\PSoC4/CapSense_CSD.c ****     #else
1382:Generated_Source\PSoC4/CapSense_CSD.c ****         CapSense_CSD_SampleClk_SetDividerValue((uint16)CapSense_CSD_sampleClkDividerVal);
1383:Generated_Source\PSoC4/CapSense_CSD.c ****         CapSense_CSD_SenseClk_SetDividerValue((uint16)CapSense_CSD_senseClkDividerVal);
1384:Generated_Source\PSoC4/CapSense_CSD.c ****     #endif /* (0u != CapSense_CSD_MULTIPLE_FREQUENCY_SET) */
1385:Generated_Source\PSoC4/CapSense_CSD.c **** 
1386:Generated_Source\PSoC4/CapSense_CSD.c ****     #if (0u != CapSense_CSD_IS_M0S8PERI_BLOCK)
1387:Generated_Source\PSoC4/CapSense_CSD.c ****         CapSense_CSD_SampleClk_Start();
1388:Generated_Source\PSoC4/CapSense_CSD.c ****         CapSense_CSD_SenseClk_StartEx(CapSense_CSD_SampleClk__DIV_ID);
1389:Generated_Source\PSoC4/CapSense_CSD.c **** 
1390:Generated_Source\PSoC4/CapSense_CSD.c ****         #if(CapSense_CSD_PRS_OPTIONS == CapSense_CSD__PRS_NONE)
1391:Generated_Source\PSoC4/CapSense_CSD.c ****             CyIntDisable(CapSense_CSD_ISR_NUMBER);
1392:Generated_Source\PSoC4/CapSense_CSD.c ****             CapSense_CSD_CSD_CNT_REG = CapSense_CSD_ONE_CYCLE;
1393:Generated_Source\PSoC4/CapSense_CSD.c ****             while(0u != (CapSense_CSD_CSD_CNT_REG & CapSense_CSD_RESOLUTION_16_BITS))
1394:Generated_Source\PSoC4/CapSense_CSD.c ****             {
1395:Generated_Source\PSoC4/CapSense_CSD.c ****             /* Wait until scanning is complete */
1396:Generated_Source\PSoC4/CapSense_CSD.c ****             }
1397:Generated_Source\PSoC4/CapSense_CSD.c ****             CapSense_CSD_CSD_INTR_REG = 1u;
1398:Generated_Source\PSoC4/CapSense_CSD.c ****             CyIntClearPending(CapSense_CSD_ISR_NUMBER);
1399:Generated_Source\PSoC4/CapSense_CSD.c ****             CyIntEnable(CapSense_CSD_ISR_NUMBER);
1400:Generated_Source\PSoC4/CapSense_CSD.c ****         #endif /* CapSense_CSD_PRS_OPTIONS == CapSense_CSD__PRS_NONE */
1401:Generated_Source\PSoC4/CapSense_CSD.c ****     #endif /* (0u != CapSense_CSD_IS_M0S8PERI_BLOCK) */
1402:Generated_Source\PSoC4/CapSense_CSD.c **** 
1403:Generated_Source\PSoC4/CapSense_CSD.c **** #if(CapSense_CSD_PRS_OPTIONS != CapSense_CSD__PRS_NONE)
1404:Generated_Source\PSoC4/CapSense_CSD.c **** 
1405:Generated_Source\PSoC4/CapSense_CSD.c ****     #if(CapSense_CSD_TUNING_METHOD == CapSense_CSD__TUNING_AUTO)
1406:Generated_Source\PSoC4/CapSense_CSD.c ****         if(CapSense_CSD_prescalersTuningDone != 0u)
ARM GAS  C:\Users\ZTIPRI~1\AppData\Local\Temp\ccBGTz86.s 			page 40


1407:Generated_Source\PSoC4/CapSense_CSD.c ****         {
1408:Generated_Source\PSoC4/CapSense_CSD.c ****     #endif /* (CapSense_CSD_TUNING_METHOD == CapSense_CSD__TUNING_AUTO) */
1409:Generated_Source\PSoC4/CapSense_CSD.c **** 
1410:Generated_Source\PSoC4/CapSense_CSD.c ****             CyIntDisable(CapSense_CSD_ISR_NUMBER);
1411:Generated_Source\PSoC4/CapSense_CSD.c **** 
1412:Generated_Source\PSoC4/CapSense_CSD.c ****             newRegValue = CapSense_CSD_CSD_CFG_REG;
1413:Generated_Source\PSoC4/CapSense_CSD.c ****             newRegValue |= CapSense_CSD_CSD_CFG_PRS_SELECT;
1414:Generated_Source\PSoC4/CapSense_CSD.c **** 
1415:Generated_Source\PSoC4/CapSense_CSD.c ****             #if(CapSense_CSD_PRS_OPTIONS == CapSense_CSD__PRS_AUTO)
1416:Generated_Source\PSoC4/CapSense_CSD.c **** 
1417:Generated_Source\PSoC4/CapSense_CSD.c ****                 newRegValue &= ~(CapSense_CSD_PRS_MODE_MASK);
1418:Generated_Source\PSoC4/CapSense_CSD.c **** 
1419:Generated_Source\PSoC4/CapSense_CSD.c ****                 #if (0u != CapSense_CSD_MULTIPLE_FREQUENCY_SET)
1420:Generated_Source\PSoC4/CapSense_CSD.c ****                     senseClkDivMath = CapSense_CSD_senseClkDividerVal[sensor];
1421:Generated_Source\PSoC4/CapSense_CSD.c ****                     sampleClkDivMath = CapSense_CSD_sampleClkDividerVal[sensor];
1422:Generated_Source\PSoC4/CapSense_CSD.c ****                 #else
1423:Generated_Source\PSoC4/CapSense_CSD.c ****                     senseClkDivMath = CapSense_CSD_senseClkDividerVal;
1424:Generated_Source\PSoC4/CapSense_CSD.c ****                     sampleClkDivMath = CapSense_CSD_sampleClkDividerVal;
1425:Generated_Source\PSoC4/CapSense_CSD.c ****                 #endif /* ( CapSense_CSD_MULTIPLE_FREQUENCY_SET) */
1426:Generated_Source\PSoC4/CapSense_CSD.c **** 
1427:Generated_Source\PSoC4/CapSense_CSD.c ****                 #if(0u == CapSense_CSD_IS_M0S8PERI_BLOCK)
1428:Generated_Source\PSoC4/CapSense_CSD.c ****                     senseClkDivMath *= sampleClkDivMath;
1429:Generated_Source\PSoC4/CapSense_CSD.c ****                 #endif /* (0u == CapSense_CSD_IS_M0S8PERI_BLOCK) */
1430:Generated_Source\PSoC4/CapSense_CSD.c **** 
1431:Generated_Source\PSoC4/CapSense_CSD.c ****                 if((senseClkDivMath * CapSense_CSD_RESOLUTION_12_BITS) <
1432:Generated_Source\PSoC4/CapSense_CSD.c ****                    (sampleClkDivMath * CapSense_CSD_widgetResolution[widget]))
1433:Generated_Source\PSoC4/CapSense_CSD.c ****                 {
1434:Generated_Source\PSoC4/CapSense_CSD.c ****                     newRegValue |= CapSense_CSD_CSD_PRS_12_BIT;
1435:Generated_Source\PSoC4/CapSense_CSD.c ****                 }
1436:Generated_Source\PSoC4/CapSense_CSD.c ****             #endif /* (CapSense_CSD_PRS_OPTIONS == CapSense_CSD__PRS_AUTO) */
1437:Generated_Source\PSoC4/CapSense_CSD.c **** 
1438:Generated_Source\PSoC4/CapSense_CSD.c ****             CapSense_CSD_CSD_CFG_REG = newRegValue;
1439:Generated_Source\PSoC4/CapSense_CSD.c **** 
1440:Generated_Source\PSoC4/CapSense_CSD.c ****             CyIntEnable(CapSense_CSD_ISR_NUMBER);
1441:Generated_Source\PSoC4/CapSense_CSD.c **** 
1442:Generated_Source\PSoC4/CapSense_CSD.c ****     #if(CapSense_CSD_TUNING_METHOD == CapSense_CSD__TUNING_AUTO)
1443:Generated_Source\PSoC4/CapSense_CSD.c ****         }
1444:Generated_Source\PSoC4/CapSense_CSD.c ****     #endif /* (CapSense_CSD_PRS_OPTIONS != CapSense_CSD__PRS_NONE) */
1445:Generated_Source\PSoC4/CapSense_CSD.c **** 
1446:Generated_Source\PSoC4/CapSense_CSD.c **** #endif /* (CapSense_CSD_PRS_OPTIONS == CapSense_CSD__PRS_NONE) */
1447:Generated_Source\PSoC4/CapSense_CSD.c **** 
1448:Generated_Source\PSoC4/CapSense_CSD.c ****     /* Set Idac Value */
1449:Generated_Source\PSoC4/CapSense_CSD.c ****     CyIntDisable(CapSense_CSD_ISR_NUMBER);
1450:Generated_Source\PSoC4/CapSense_CSD.c ****     newRegValue = CapSense_CSD_CSD_IDAC_REG;
1451:Generated_Source\PSoC4/CapSense_CSD.c **** 
1452:Generated_Source\PSoC4/CapSense_CSD.c **** #if (CapSense_CSD_IDAC_CNT == 1u)
1453:Generated_Source\PSoC4/CapSense_CSD.c ****     newRegValue &= ~(CapSense_CSD_CSD_IDAC1_DATA_MASK);
1454:Generated_Source\PSoC4/CapSense_CSD.c ****     newRegValue |= CapSense_CSD_modulationIDAC[sensor];
1455:Generated_Source\PSoC4/CapSense_CSD.c **** #else
1456:Generated_Source\PSoC4/CapSense_CSD.c ****     newRegValue &= ~(CapSense_CSD_CSD_IDAC1_DATA_MASK | CapSense_CSD_CSD_IDAC2_DATA_MASK);
1457:Generated_Source\PSoC4/CapSense_CSD.c ****     newRegValue |= (CapSense_CSD_modulationIDAC[sensor] |
1458:Generated_Source\PSoC4/CapSense_CSD.c ****                             (uint32)((uint32)CapSense_CSD_compensationIDAC[sensor] <<
1459:Generated_Source\PSoC4/CapSense_CSD.c ****                             CapSense_CSD_CSD_IDAC2_DATA_OFFSET));
1460:Generated_Source\PSoC4/CapSense_CSD.c **** #endif /* (CapSense_CSD_IDAC_CNT == 1u) */
1461:Generated_Source\PSoC4/CapSense_CSD.c **** 
1462:Generated_Source\PSoC4/CapSense_CSD.c ****     CapSense_CSD_CSD_IDAC_REG = newRegValue;
1463:Generated_Source\PSoC4/CapSense_CSD.c **** 
ARM GAS  C:\Users\ZTIPRI~1\AppData\Local\Temp\ccBGTz86.s 			page 41


1464:Generated_Source\PSoC4/CapSense_CSD.c **** #if(CapSense_CSD_CMOD_PREGARGE_OPTION == CapSense_CSD__CAPPRIOBUF)
1465:Generated_Source\PSoC4/CapSense_CSD.c ****     newRegValue = CapSense_CSD_CMOD_CONNECTION_REG;
1466:Generated_Source\PSoC4/CapSense_CSD.c ****     newRegValue &= ~(CapSense_CSD_CSD_CMOD_CONNECTION_MASK);
1467:Generated_Source\PSoC4/CapSense_CSD.c ****     newRegValue |= CapSense_CSD_CSD_CMOD_TO_AMUXBUS_A;
1468:Generated_Source\PSoC4/CapSense_CSD.c ****     CapSense_CSD_CMOD_CONNECTION_REG = newRegValue;
1469:Generated_Source\PSoC4/CapSense_CSD.c **** 
1470:Generated_Source\PSoC4/CapSense_CSD.c ****     newRegValue = CapSense_CSD_CMOD_PORT_PC_REG;
1471:Generated_Source\PSoC4/CapSense_CSD.c ****     newRegValue &= ~(CapSense_CSD_CSD_CMOD_PC_MASK);
1472:Generated_Source\PSoC4/CapSense_CSD.c ****     newRegValue |= CapSense_CSD_CMOD_PC_HIGH_Z_MODE;
1473:Generated_Source\PSoC4/CapSense_CSD.c ****     CapSense_CSD_CMOD_PORT_PC_REG = newRegValue;
1474:Generated_Source\PSoC4/CapSense_CSD.c **** #endif /* (CapSense_CSD_CMOD_PREGARGE_OPTION == CapSense_CSD__CAPPRIOBUF) */
1475:Generated_Source\PSoC4/CapSense_CSD.c **** 
1476:Generated_Source\PSoC4/CapSense_CSD.c ****     /* Disconnect Vref Buffer from AMUX */
1477:Generated_Source\PSoC4/CapSense_CSD.c ****     newRegValue = CapSense_CSD_CSD_CFG_REG;
1478:Generated_Source\PSoC4/CapSense_CSD.c ****     newRegValue &= ~(CapSense_CSD_PRECHARGE_CONFIG_MASK);
1479:Generated_Source\PSoC4/CapSense_CSD.c ****     newRegValue |= CapSense_CSD_CTANK_PRECHARGE_CONFIG;
1480:Generated_Source\PSoC4/CapSense_CSD.c **** 
1481:Generated_Source\PSoC4/CapSense_CSD.c ****     CyIntEnable(CapSense_CSD_ISR_NUMBER);
1482:Generated_Source\PSoC4/CapSense_CSD.c **** 
1483:Generated_Source\PSoC4/CapSense_CSD.c ****     /* Enable Sensor */
1484:Generated_Source\PSoC4/CapSense_CSD.c ****     CapSense_CSD_EnableScanSlot(sensor);
1485:Generated_Source\PSoC4/CapSense_CSD.c **** 
1486:Generated_Source\PSoC4/CapSense_CSD.c ****     interruptState = CyEnterCriticalSection();
1487:Generated_Source\PSoC4/CapSense_CSD.c ****     CapSense_CSD_CSD_CFG_REG = newRegValue;
1488:Generated_Source\PSoC4/CapSense_CSD.c **** 
1489:Generated_Source\PSoC4/CapSense_CSD.c ****     /* `#START CapSense_CSD_PreSettlingDelay_Debug` */
1490:Generated_Source\PSoC4/CapSense_CSD.c **** 
1491:Generated_Source\PSoC4/CapSense_CSD.c ****     /* `#END` */
1492:Generated_Source\PSoC4/CapSense_CSD.c **** 
1493:Generated_Source\PSoC4/CapSense_CSD.c **** #ifdef CapSense_CSD_PRE_SCAN_PRE_SETTLING_DELAY_DEBUG_CALLBACK
1494:Generated_Source\PSoC4/CapSense_CSD.c ****     CapSense_CSD_PreScan_Pre_SettlingDelay_Debug_Callback();
1495:Generated_Source\PSoC4/CapSense_CSD.c **** #endif /* CapSense_CSD_PRE_SCAN_PRE_SETTLING_DELAY_DEBUG_CALLBACK */
1496:Generated_Source\PSoC4/CapSense_CSD.c **** 
1497:Generated_Source\PSoC4/CapSense_CSD.c ****     CyDelayCycles(CapSense_CSD_GLITCH_ELIMINATION_CYCLES);
1498:Generated_Source\PSoC4/CapSense_CSD.c **** 
1499:Generated_Source\PSoC4/CapSense_CSD.c ****     /* `#START CapSense_CSD_PreScan_Debug` */
1500:Generated_Source\PSoC4/CapSense_CSD.c **** 
1501:Generated_Source\PSoC4/CapSense_CSD.c ****     /* `#END` */
1502:Generated_Source\PSoC4/CapSense_CSD.c **** 
1503:Generated_Source\PSoC4/CapSense_CSD.c **** #ifdef CapSense_CSD_PRE_SCAN_DEBUG_CALLBACK
1504:Generated_Source\PSoC4/CapSense_CSD.c ****     CapSense_CSD_PreScan_Debug_Callback();
1505:Generated_Source\PSoC4/CapSense_CSD.c **** #endif /* CapSense_CSD_PRE_SCAN_DEBUG_CALLBACK */
1506:Generated_Source\PSoC4/CapSense_CSD.c **** 
1507:Generated_Source\PSoC4/CapSense_CSD.c ****     CapSense_CSD_CSD_CNT_REG = counterResolution;
1508:Generated_Source\PSoC4/CapSense_CSD.c ****     CyExitCriticalSection(interruptState);
1509:Generated_Source\PSoC4/CapSense_CSD.c **** }
1510:Generated_Source\PSoC4/CapSense_CSD.c **** 
1511:Generated_Source\PSoC4/CapSense_CSD.c **** 
1512:Generated_Source\PSoC4/CapSense_CSD.c **** /*******************************************************************************
1513:Generated_Source\PSoC4/CapSense_CSD.c **** * Function Name: CapSense_CSD_PostScan
1514:Generated_Source\PSoC4/CapSense_CSD.c **** ********************************************************************************
1515:Generated_Source\PSoC4/CapSense_CSD.c **** *
1516:Generated_Source\PSoC4/CapSense_CSD.c **** * Summary:
1517:Generated_Source\PSoC4/CapSense_CSD.c **** *  Stores the results of measurement in the CapSense_CSD_sensorRaw[] array,
1518:Generated_Source\PSoC4/CapSense_CSD.c **** *  sets the scanning sensor in the non-sampling state, turns off Idac(Current Source IDAC),
1519:Generated_Source\PSoC4/CapSense_CSD.c **** *  disconnects the IDAC(Sink mode), and applies Vref on AMUX.
1520:Generated_Source\PSoC4/CapSense_CSD.c **** *
ARM GAS  C:\Users\ZTIPRI~1\AppData\Local\Temp\ccBGTz86.s 			page 42


1521:Generated_Source\PSoC4/CapSense_CSD.c **** * Parameters:
1522:Generated_Source\PSoC4/CapSense_CSD.c **** *  sensor:  Sensor number.
1523:Generated_Source\PSoC4/CapSense_CSD.c **** *
1524:Generated_Source\PSoC4/CapSense_CSD.c **** * Return:
1525:Generated_Source\PSoC4/CapSense_CSD.c **** *  None
1526:Generated_Source\PSoC4/CapSense_CSD.c **** *
1527:Generated_Source\PSoC4/CapSense_CSD.c **** * Global Variables:
1528:Generated_Source\PSoC4/CapSense_CSD.c **** *  CapSense_CSD_sensorRaw[] - used to store sensors raw data.
1529:Generated_Source\PSoC4/CapSense_CSD.c **** *
1530:Generated_Source\PSoC4/CapSense_CSD.c **** * Side Effects:
1531:Generated_Source\PSoC4/CapSense_CSD.c **** *  None
1532:Generated_Source\PSoC4/CapSense_CSD.c **** *
1533:Generated_Source\PSoC4/CapSense_CSD.c **** *******************************************************************************/
1534:Generated_Source\PSoC4/CapSense_CSD.c **** void CapSense_CSD_PostScan(uint32 sensor)
1535:Generated_Source\PSoC4/CapSense_CSD.c **** {
1536:Generated_Source\PSoC4/CapSense_CSD.c ****     uint32 newRegValue;
1537:Generated_Source\PSoC4/CapSense_CSD.c **** #if ((CapSense_CSD_TUNING_METHOD == CapSense_CSD__TUNING_AUTO) &&\
1538:Generated_Source\PSoC4/CapSense_CSD.c ****      (0 != CapSense_CSD_IS_OVERSAMPLING_EN))
1539:Generated_Source\PSoC4/CapSense_CSD.c ****     uint32 oversamplingFactor;
1540:Generated_Source\PSoC4/CapSense_CSD.c ****     uint32 widget;
1541:Generated_Source\PSoC4/CapSense_CSD.c **** #endif /* ((CapSense_CSD_TUNING_METHOD == CapSense_CSD__TUNING_AUTO) &&\
1542:Generated_Source\PSoC4/CapSense_CSD.c ****            (0 != CapSense_CSD_IS_OVERSAMPLING_EN)) */
1543:Generated_Source\PSoC4/CapSense_CSD.c **** 
1544:Generated_Source\PSoC4/CapSense_CSD.c ****     /* `#START CapSense_CSD_PostScan_Debug` */
1545:Generated_Source\PSoC4/CapSense_CSD.c **** 
1546:Generated_Source\PSoC4/CapSense_CSD.c ****     /* `#END` */
1547:Generated_Source\PSoC4/CapSense_CSD.c **** 
1548:Generated_Source\PSoC4/CapSense_CSD.c **** #ifdef CapSense_CSD_POST_SCAN_DEBUG_CALLBACK
1549:Generated_Source\PSoC4/CapSense_CSD.c ****     CapSense_CSD_PostScan_Debug_Callback();
1550:Generated_Source\PSoC4/CapSense_CSD.c **** #endif /* CapSense_CSD_POST_SCAN_DEBUG_Callback */
1551:Generated_Source\PSoC4/CapSense_CSD.c **** 
1552:Generated_Source\PSoC4/CapSense_CSD.c ****     /* Read SlotResult from Raw Counter */
1553:Generated_Source\PSoC4/CapSense_CSD.c ****     CapSense_CSD_sensorRaw[sensor]  = (uint16)CapSense_CSD_CSD_CNT_REG;
1554:Generated_Source\PSoC4/CapSense_CSD.c **** 
1555:Generated_Source\PSoC4/CapSense_CSD.c **** #if ((CapSense_CSD_TUNING_METHOD == CapSense_CSD__TUNING_AUTO) &&\
1556:Generated_Source\PSoC4/CapSense_CSD.c ****      (0 != CapSense_CSD_IS_OVERSAMPLING_EN))
1557:Generated_Source\PSoC4/CapSense_CSD.c ****     widget = CapSense_CSD_widgetNumber[sensor];
1558:Generated_Source\PSoC4/CapSense_CSD.c ****     if(CapSense_CSD_widgetResolution[widget] < CapSense_CSD_RESOLUTION_16_BITS)
1559:Generated_Source\PSoC4/CapSense_CSD.c ****     {
1560:Generated_Source\PSoC4/CapSense_CSD.c ****         oversamplingFactor = CapSense_CSD_GetBitValue(CapSense_CSD_scanSpeedTbl, sensor);
1561:Generated_Source\PSoC4/CapSense_CSD.c ****         CapSense_CSD_sensorRaw[sensor] >>= oversamplingFactor;
1562:Generated_Source\PSoC4/CapSense_CSD.c ****     }
1563:Generated_Source\PSoC4/CapSense_CSD.c **** #endif /* ((CapSense_CSD_TUNING_METHOD == CapSense_CSD__TUNING_AUTO) &&\
1564:Generated_Source\PSoC4/CapSense_CSD.c ****            (0 != CapSense_CSD_IS_OVERSAMPLING_EN)) */
1565:Generated_Source\PSoC4/CapSense_CSD.c **** 
1566:Generated_Source\PSoC4/CapSense_CSD.c ****     /* Disable Sensor */
1567:Generated_Source\PSoC4/CapSense_CSD.c ****     CapSense_CSD_DisableScanSlot(sensor);
1568:Generated_Source\PSoC4/CapSense_CSD.c **** 
1569:Generated_Source\PSoC4/CapSense_CSD.c ****     CyIntDisable(CapSense_CSD_ISR_NUMBER);
1570:Generated_Source\PSoC4/CapSense_CSD.c **** 
1571:Generated_Source\PSoC4/CapSense_CSD.c **** #if(CapSense_CSD_CMOD_PREGARGE_OPTION == CapSense_CSD__CAPPRIOBUF)
1572:Generated_Source\PSoC4/CapSense_CSD.c ****     newRegValue = CapSense_CSD_CMOD_CONNECTION_REG;
1573:Generated_Source\PSoC4/CapSense_CSD.c ****     newRegValue &= ~(CapSense_CSD_CSD_CMOD_CONNECTION_MASK);
1574:Generated_Source\PSoC4/CapSense_CSD.c ****     newRegValue |= CapSense_CSD_CSD_CMOD_TO_AMUXBUS_B;
1575:Generated_Source\PSoC4/CapSense_CSD.c ****     CapSense_CSD_CMOD_CONNECTION_REG = newRegValue;
1576:Generated_Source\PSoC4/CapSense_CSD.c **** 
1577:Generated_Source\PSoC4/CapSense_CSD.c ****     newRegValue = CapSense_CSD_CMOD_PORT_PC_REG;
ARM GAS  C:\Users\ZTIPRI~1\AppData\Local\Temp\ccBGTz86.s 			page 43


1578:Generated_Source\PSoC4/CapSense_CSD.c ****     newRegValue &= ~(CapSense_CSD_CSD_CMOD_PC_MASK);
1579:Generated_Source\PSoC4/CapSense_CSD.c ****     newRegValue |= CapSense_CSD_CMOD_PC_STRONG_MODE;
1580:Generated_Source\PSoC4/CapSense_CSD.c ****     CapSense_CSD_CMOD_PORT_PC_REG = newRegValue;
1581:Generated_Source\PSoC4/CapSense_CSD.c **** 
1582:Generated_Source\PSoC4/CapSense_CSD.c ****     newRegValue = CapSense_CSD_CMOD_PORT_DR_REG;
1583:Generated_Source\PSoC4/CapSense_CSD.c ****     newRegValue &= ~(CapSense_CSD_CMOD_DR_MASK);
1584:Generated_Source\PSoC4/CapSense_CSD.c ****     newRegValue |= CapSense_CSD_CMOD_DR_CONFIG;
1585:Generated_Source\PSoC4/CapSense_CSD.c ****     CapSense_CSD_CMOD_PORT_DR_REG = newRegValue;
1586:Generated_Source\PSoC4/CapSense_CSD.c **** #endif /* (CapSense_CSD_CMOD_PREGARGE_OPTION == CapSense_CSD__CAPPRIOBUF) */
1587:Generated_Source\PSoC4/CapSense_CSD.c **** 
1588:Generated_Source\PSoC4/CapSense_CSD.c ****     /* Connect Vref Buffer to AMUX bus  */
1589:Generated_Source\PSoC4/CapSense_CSD.c ****     newRegValue = CapSense_CSD_CSD_CFG_REG;
1590:Generated_Source\PSoC4/CapSense_CSD.c ****     newRegValue &= ~(CapSense_CSD_PRECHARGE_CONFIG_MASK);
1591:Generated_Source\PSoC4/CapSense_CSD.c ****     newRegValue |= CapSense_CSD_CMOD_PRECHARGE_CONFIG;
1592:Generated_Source\PSoC4/CapSense_CSD.c ****     CapSense_CSD_CSD_CFG_REG = newRegValue;
1593:Generated_Source\PSoC4/CapSense_CSD.c **** 
1594:Generated_Source\PSoC4/CapSense_CSD.c ****     /* Set Idac Value = 0 */
1595:Generated_Source\PSoC4/CapSense_CSD.c **** #if (CapSense_CSD_IDAC_CNT == 1u)
1596:Generated_Source\PSoC4/CapSense_CSD.c ****     CapSense_CSD_CSD_IDAC_REG &= ~(CapSense_CSD_CSD_IDAC1_DATA_MASK);
1597:Generated_Source\PSoC4/CapSense_CSD.c **** #else
1598:Generated_Source\PSoC4/CapSense_CSD.c ****     CapSense_CSD_CSD_IDAC_REG &= ~(CapSense_CSD_CSD_IDAC1_DATA_MASK | CapSense_CSD_CSD_IDAC2_DATA_M
1599:Generated_Source\PSoC4/CapSense_CSD.c **** #endif /* (CapSense_CSD_IDAC_CNT == 1u) */
1600:Generated_Source\PSoC4/CapSense_CSD.c **** 
1601:Generated_Source\PSoC4/CapSense_CSD.c ****     CyIntEnable(CapSense_CSD_ISR_NUMBER);
1602:Generated_Source\PSoC4/CapSense_CSD.c **** }
1603:Generated_Source\PSoC4/CapSense_CSD.c **** 
1604:Generated_Source\PSoC4/CapSense_CSD.c **** 
1605:Generated_Source\PSoC4/CapSense_CSD.c **** /*******************************************************************************
1606:Generated_Source\PSoC4/CapSense_CSD.c **** * Function Name: CapSense_CSD_EnableShieldElectrode
1607:Generated_Source\PSoC4/CapSense_CSD.c **** ********************************************************************************
1608:Generated_Source\PSoC4/CapSense_CSD.c **** *
1609:Generated_Source\PSoC4/CapSense_CSD.c **** * Summary:
1610:Generated_Source\PSoC4/CapSense_CSD.c **** *  This API enables or disables the shield electrode on a specified port pin.
1611:Generated_Source\PSoC4/CapSense_CSD.c **** *
1612:Generated_Source\PSoC4/CapSense_CSD.c **** * Parameters:
1613:Generated_Source\PSoC4/CapSense_CSD.c **** *  portNumber: contains the shield electrode port number (0, 1, 2).
1614:Generated_Source\PSoC4/CapSense_CSD.c **** *  pinNumber: contains the shield electrode pin number (0, 1, 2, ... , 7).
1615:Generated_Source\PSoC4/CapSense_CSD.c **** *
1616:Generated_Source\PSoC4/CapSense_CSD.c **** * Return:
1617:Generated_Source\PSoC4/CapSense_CSD.c **** *  None
1618:Generated_Source\PSoC4/CapSense_CSD.c **** *
1619:Generated_Source\PSoC4/CapSense_CSD.c **** * Global Variables:
1620:Generated_Source\PSoC4/CapSense_CSD.c **** *  CapSense_CSD_prtCfgTbl[] - Contains pointers to the port config registers for each port.
1621:Generated_Source\PSoC4/CapSense_CSD.c **** *  CapSense_CSD_prtSelTbl[] - Contains pointers to the HSIOM registers for each port.
1622:Generated_Source\PSoC4/CapSense_CSD.c **** *
1623:Generated_Source\PSoC4/CapSense_CSD.c **** * Side Effects:
1624:Generated_Source\PSoC4/CapSense_CSD.c **** *  None
1625:Generated_Source\PSoC4/CapSense_CSD.c **** *
1626:Generated_Source\PSoC4/CapSense_CSD.c **** *******************************************************************************/
1627:Generated_Source\PSoC4/CapSense_CSD.c **** void CapSense_CSD_EnableShieldElectrode(uint32 pinNumber, uint32 portNumber)
1628:Generated_Source\PSoC4/CapSense_CSD.c **** {
 795              		.loc 1 1628 0
 796              		.cfi_startproc
 797              		@ args = 0, pretend = 0, frame = 0
 798              		@ frame_needed = 0, uses_anonymous_args = 0
 799              	.LVL94:
 800 0000 30B5     		push	{r4, r5, lr}
ARM GAS  C:\Users\ZTIPRI~1\AppData\Local\Temp\ccBGTz86.s 			page 44


 801              		.cfi_def_cfa_offset 12
 802              		.cfi_offset 4, -12
 803              		.cfi_offset 5, -8
 804              		.cfi_offset 14, -4
1629:Generated_Source\PSoC4/CapSense_CSD.c ****     uint32 newRegValue;
1630:Generated_Source\PSoC4/CapSense_CSD.c **** 
1631:Generated_Source\PSoC4/CapSense_CSD.c ****     *CapSense_CSD_prtCfgTbl[portNumber] &= ~(CapSense_CSD_CSD_PIN_MODE_MASK << (pinNumber * CapSens
 805              		.loc 1 1631 0
 806 0002 8900     		lsls	r1, r1, #2
 807              	.LVL95:
 808 0004 0A4B     		ldr	r3, .L50
 809 0006 5918     		adds	r1, r3, r1
 810 0008 4D6A     		ldr	r5, [r1, #36]
 811 000a 2B68     		ldr	r3, [r5]
 812 000c 4400     		lsls	r4, r0, #1
 813 000e 2418     		adds	r4, r4, r0
 814 0010 0722     		movs	r2, #7
 815 0012 A240     		lsls	r2, r2, r4
 816 0014 9343     		bics	r3, r2
 817 0016 2B60     		str	r3, [r5]
1632:Generated_Source\PSoC4/CapSense_CSD.c ****     newRegValue = *CapSense_CSD_prtSelTbl[portNumber];
 818              		.loc 1 1632 0
 819 0018 0969     		ldr	r1, [r1, #16]
 820 001a 0B68     		ldr	r3, [r1]
 821              	.LVL96:
1633:Generated_Source\PSoC4/CapSense_CSD.c ****     newRegValue &= ~(CapSense_CSD_CSD_HSIOM_MASK << (pinNumber * CapSense_CSD_HSIOM_PIN_CFG_SIZE));
 822              		.loc 1 1633 0
 823 001c 8000     		lsls	r0, r0, #2
 824              	.LVL97:
 825 001e 0F22     		movs	r2, #15
 826 0020 8240     		lsls	r2, r2, r0
 827 0022 9343     		bics	r3, r2
 828              	.LVL98:
 829 0024 1A00     		movs	r2, r3
 830              	.LVL99:
1634:Generated_Source\PSoC4/CapSense_CSD.c ****     newRegValue |= (CapSense_CSD_CSD_SHIELD_PORT_MODE << (pinNumber * CapSense_CSD_HSIOM_PIN_CFG_SI
 831              		.loc 1 1634 0
 832 0026 0523     		movs	r3, #5
 833 0028 8340     		lsls	r3, r3, r0
 834 002a 1343     		orrs	r3, r2
 835              	.LVL100:
1635:Generated_Source\PSoC4/CapSense_CSD.c ****     *CapSense_CSD_prtSelTbl[portNumber] = newRegValue;
 836              		.loc 1 1635 0
 837 002c 0B60     		str	r3, [r1]
1636:Generated_Source\PSoC4/CapSense_CSD.c **** }
 838              		.loc 1 1636 0
 839              		@ sp needed
 840 002e 30BD     		pop	{r4, r5, pc}
 841              	.L51:
 842              		.align	2
 843              	.L50:
 844 0030 00000000 		.word	.LANCHOR2
 845              		.cfi_endproc
 846              	.LFE54:
 847              		.size	CapSense_CSD_EnableShieldElectrode, .-CapSense_CSD_EnableShieldElectrode
 848              		.section	.text.CapSense_CSD_SetShieldDelay,"ax",%progbits
 849              		.align	2
ARM GAS  C:\Users\ZTIPRI~1\AppData\Local\Temp\ccBGTz86.s 			page 45


 850              		.global	CapSense_CSD_SetShieldDelay
 851              		.code	16
 852              		.thumb_func
 853              		.type	CapSense_CSD_SetShieldDelay, %function
 854              	CapSense_CSD_SetShieldDelay:
 855              	.LFB55:
1637:Generated_Source\PSoC4/CapSense_CSD.c **** 
1638:Generated_Source\PSoC4/CapSense_CSD.c **** 
1639:Generated_Source\PSoC4/CapSense_CSD.c **** /*******************************************************************************
1640:Generated_Source\PSoC4/CapSense_CSD.c **** * Function Name: CapSense_CSD_SetShieldDelay
1641:Generated_Source\PSoC4/CapSense_CSD.c **** ********************************************************************************
1642:Generated_Source\PSoC4/CapSense_CSD.c **** *
1643:Generated_Source\PSoC4/CapSense_CSD.c **** * Summary:
1644:Generated_Source\PSoC4/CapSense_CSD.c **** *  This API sets a shield delay.
1645:Generated_Source\PSoC4/CapSense_CSD.c **** *
1646:Generated_Source\PSoC4/CapSense_CSD.c **** * Parameters:
1647:Generated_Source\PSoC4/CapSense_CSD.c **** *  delay:  shield delay value:
1648:Generated_Source\PSoC4/CapSense_CSD.c **** *                               0 - no delay
1649:Generated_Source\PSoC4/CapSense_CSD.c **** *                               1 - 1 cycle delay
1650:Generated_Source\PSoC4/CapSense_CSD.c **** *                               2 - 2 cycles delay
1651:Generated_Source\PSoC4/CapSense_CSD.c **** *
1652:Generated_Source\PSoC4/CapSense_CSD.c **** * Return:
1653:Generated_Source\PSoC4/CapSense_CSD.c **** *  None
1654:Generated_Source\PSoC4/CapSense_CSD.c **** *
1655:Generated_Source\PSoC4/CapSense_CSD.c **** * Global Variables:
1656:Generated_Source\PSoC4/CapSense_CSD.c **** *  None
1657:Generated_Source\PSoC4/CapSense_CSD.c **** *
1658:Generated_Source\PSoC4/CapSense_CSD.c **** * Side Effects:
1659:Generated_Source\PSoC4/CapSense_CSD.c **** *  None
1660:Generated_Source\PSoC4/CapSense_CSD.c **** *
1661:Generated_Source\PSoC4/CapSense_CSD.c **** *******************************************************************************/
1662:Generated_Source\PSoC4/CapSense_CSD.c **** void CapSense_CSD_SetShieldDelay(uint32 delay)
1663:Generated_Source\PSoC4/CapSense_CSD.c **** {
 856              		.loc 1 1663 0
 857              		.cfi_startproc
 858              		@ args = 0, pretend = 0, frame = 0
 859              		@ frame_needed = 0, uses_anonymous_args = 0
 860              		@ link register save eliminated.
 861              	.LVL101:
1664:Generated_Source\PSoC4/CapSense_CSD.c ****     uint32 newRegValue;
1665:Generated_Source\PSoC4/CapSense_CSD.c **** 
1666:Generated_Source\PSoC4/CapSense_CSD.c ****     delay &= 0x03u;
1667:Generated_Source\PSoC4/CapSense_CSD.c **** 
1668:Generated_Source\PSoC4/CapSense_CSD.c ****     newRegValue = CapSense_CSD_CSD_CFG_REG;
 862              		.loc 1 1668 0
 863 0000 044A     		ldr	r2, .L53
 864 0002 1168     		ldr	r1, [r2]
 865              	.LVL102:
1669:Generated_Source\PSoC4/CapSense_CSD.c ****     newRegValue &= (uint32)(~(uint32)CapSense_CSD_SHIELD_DELAY);
1670:Generated_Source\PSoC4/CapSense_CSD.c ****     newRegValue |= (delay << CapSense_CSD_CSD_CFG_SHIELD_DELAY_POS);
 866              		.loc 1 1670 0
 867 0004 4002     		lsls	r0, r0, #9
 868              	.LVL103:
 869 0006 C023     		movs	r3, #192
 870 0008 DB00     		lsls	r3, r3, #3
 871 000a 1840     		ands	r0, r3
 872 000c 0843     		orrs	r0, r1
ARM GAS  C:\Users\ZTIPRI~1\AppData\Local\Temp\ccBGTz86.s 			page 46


 873              	.LVL104:
1671:Generated_Source\PSoC4/CapSense_CSD.c ****     CapSense_CSD_CSD_CFG_REG = newRegValue;
 874              		.loc 1 1671 0
 875 000e 1060     		str	r0, [r2]
1672:Generated_Source\PSoC4/CapSense_CSD.c **** }
 876              		.loc 1 1672 0
 877              		@ sp needed
 878 0010 7047     		bx	lr
 879              	.L54:
 880 0012 C046     		.align	2
 881              	.L53:
 882 0014 04000840 		.word	1074266116
 883              		.cfi_endproc
 884              	.LFE55:
 885              		.size	CapSense_CSD_SetShieldDelay, .-CapSense_CSD_SetShieldDelay
 886              		.section	.text.CapSense_CSD_ReadCurrentScanningSensor,"ax",%progbits
 887              		.align	2
 888              		.global	CapSense_CSD_ReadCurrentScanningSensor
 889              		.code	16
 890              		.thumb_func
 891              		.type	CapSense_CSD_ReadCurrentScanningSensor, %function
 892              	CapSense_CSD_ReadCurrentScanningSensor:
 893              	.LFB56:
1673:Generated_Source\PSoC4/CapSense_CSD.c **** 
1674:Generated_Source\PSoC4/CapSense_CSD.c **** 
1675:Generated_Source\PSoC4/CapSense_CSD.c **** /*******************************************************************************
1676:Generated_Source\PSoC4/CapSense_CSD.c **** * Function Name: CapSense_CSD_ReadCurrentScanningSensor
1677:Generated_Source\PSoC4/CapSense_CSD.c **** ********************************************************************************
1678:Generated_Source\PSoC4/CapSense_CSD.c **** *
1679:Generated_Source\PSoC4/CapSense_CSD.c **** * Summary:
1680:Generated_Source\PSoC4/CapSense_CSD.c **** *  This API returns scanning sensor number when sensor scan is in progress.
1681:Generated_Source\PSoC4/CapSense_CSD.c **** *  When sensor scan is completed the API returns
1682:Generated_Source\PSoC4/CapSense_CSD.c **** *  $INSTANCE_NAME`_NOT_SENSOR (0xFFFFFFFF) (when no sensor is scanned).
1683:Generated_Source\PSoC4/CapSense_CSD.c **** *
1684:Generated_Source\PSoC4/CapSense_CSD.c **** * Parameters:
1685:Generated_Source\PSoC4/CapSense_CSD.c **** *   None.
1686:Generated_Source\PSoC4/CapSense_CSD.c **** *
1687:Generated_Source\PSoC4/CapSense_CSD.c **** * Return:
1688:Generated_Source\PSoC4/CapSense_CSD.c **** *  Returns Sensor number if sensor is being scanned and
1689:Generated_Source\PSoC4/CapSense_CSD.c **** *  $INSTANCE_NAME`_NOT_SENSOR (0xFFFFFFFF) if scanning is complete.
1690:Generated_Source\PSoC4/CapSense_CSD.c **** *
1691:Generated_Source\PSoC4/CapSense_CSD.c **** * Global Variables:
1692:Generated_Source\PSoC4/CapSense_CSD.c **** *  CapSense_CSD_sensorIndex - the sensor number is being scanned.
1693:Generated_Source\PSoC4/CapSense_CSD.c **** *
1694:Generated_Source\PSoC4/CapSense_CSD.c **** * Side Effects:
1695:Generated_Source\PSoC4/CapSense_CSD.c **** *  None
1696:Generated_Source\PSoC4/CapSense_CSD.c **** *
1697:Generated_Source\PSoC4/CapSense_CSD.c **** *******************************************************************************/
1698:Generated_Source\PSoC4/CapSense_CSD.c **** uint32 CapSense_CSD_ReadCurrentScanningSensor(void)
1699:Generated_Source\PSoC4/CapSense_CSD.c **** {
 894              		.loc 1 1699 0
 895              		.cfi_startproc
 896              		@ args = 0, pretend = 0, frame = 0
 897              		@ frame_needed = 0, uses_anonymous_args = 0
 898              		@ link register save eliminated.
1700:Generated_Source\PSoC4/CapSense_CSD.c ****     return ((uint32)(( 0u != (CapSense_CSD_csdStatusVar & CapSense_CSD_SW_STS_BUSY)) ?
 899              		.loc 1 1700 0
ARM GAS  C:\Users\ZTIPRI~1\AppData\Local\Temp\ccBGTz86.s 			page 47


 900 0000 054B     		ldr	r3, .L58
 901 0002 1B78     		ldrb	r3, [r3]
 902 0004 DB07     		lsls	r3, r3, #31
 903 0006 03D5     		bpl	.L57
 904              		.loc 1 1700 0 is_stmt 0 discriminator 1
 905 0008 034B     		ldr	r3, .L58
 906 000a 987B     		ldrb	r0, [r3, #14]
 907 000c C0B2     		uxtb	r0, r0
 908 000e 01E0     		b	.L56
 909              	.L57:
 910              		.loc 1 1700 0
 911 0010 0120     		movs	r0, #1
 912 0012 4042     		rsbs	r0, r0, #0
 913              	.L56:
1701:Generated_Source\PSoC4/CapSense_CSD.c ****                      CapSense_CSD_sensorIndex : CapSense_CSD_NOT_SENSOR));
1702:Generated_Source\PSoC4/CapSense_CSD.c **** }
 914              		.loc 1 1702 0 is_stmt 1 discriminator 4
 915              		@ sp needed
 916 0014 7047     		bx	lr
 917              	.L59:
 918 0016 C046     		.align	2
 919              	.L58:
 920 0018 00000000 		.word	.LANCHOR0
 921              		.cfi_endproc
 922              	.LFE56:
 923              		.size	CapSense_CSD_ReadCurrentScanningSensor, .-CapSense_CSD_ReadCurrentScanningSensor
 924              		.section	.text.CapSense_CSD_GetBitValue,"ax",%progbits
 925              		.align	2
 926              		.global	CapSense_CSD_GetBitValue
 927              		.code	16
 928              		.thumb_func
 929              		.type	CapSense_CSD_GetBitValue, %function
 930              	CapSense_CSD_GetBitValue:
 931              	.LFB57:
1703:Generated_Source\PSoC4/CapSense_CSD.c **** 
1704:Generated_Source\PSoC4/CapSense_CSD.c **** 
1705:Generated_Source\PSoC4/CapSense_CSD.c **** /*******************************************************************************
1706:Generated_Source\PSoC4/CapSense_CSD.c **** * Function Name: CapSense_CSD_GetBitValue
1707:Generated_Source\PSoC4/CapSense_CSD.c **** ********************************************************************************
1708:Generated_Source\PSoC4/CapSense_CSD.c **** *
1709:Generated_Source\PSoC4/CapSense_CSD.c **** * Summary:
1710:Generated_Source\PSoC4/CapSense_CSD.c **** *  The API returns a bit status of the bit in the table array which contains the masks.
1711:Generated_Source\PSoC4/CapSense_CSD.c **** *
1712:Generated_Source\PSoC4/CapSense_CSD.c **** * Parameters:
1713:Generated_Source\PSoC4/CapSense_CSD.c **** *  table[] - array with bit masks.
1714:Generated_Source\PSoC4/CapSense_CSD.c **** *  position - position of bit in the table[] array.
1715:Generated_Source\PSoC4/CapSense_CSD.c **** *
1716:Generated_Source\PSoC4/CapSense_CSD.c **** * Return:
1717:Generated_Source\PSoC4/CapSense_CSD.c **** *  0 - bit is not set; 1 - bit is set.
1718:Generated_Source\PSoC4/CapSense_CSD.c **** *
1719:Generated_Source\PSoC4/CapSense_CSD.c **** * Global Variables:
1720:Generated_Source\PSoC4/CapSense_CSD.c **** *  None
1721:Generated_Source\PSoC4/CapSense_CSD.c **** *
1722:Generated_Source\PSoC4/CapSense_CSD.c **** * Side Effects:
1723:Generated_Source\PSoC4/CapSense_CSD.c **** *  None
1724:Generated_Source\PSoC4/CapSense_CSD.c **** *
1725:Generated_Source\PSoC4/CapSense_CSD.c **** *******************************************************************************/
ARM GAS  C:\Users\ZTIPRI~1\AppData\Local\Temp\ccBGTz86.s 			page 48


1726:Generated_Source\PSoC4/CapSense_CSD.c **** uint32 CapSense_CSD_GetBitValue(const uint8 table[], uint32 position)
1727:Generated_Source\PSoC4/CapSense_CSD.c **** {
 932              		.loc 1 1727 0
 933              		.cfi_startproc
 934              		@ args = 0, pretend = 0, frame = 0
 935              		@ frame_needed = 0, uses_anonymous_args = 0
 936              		@ link register save eliminated.
 937              	.LVL105:
1728:Generated_Source\PSoC4/CapSense_CSD.c ****     uint32 offset;
1729:Generated_Source\PSoC4/CapSense_CSD.c ****     uint8 enMask;
1730:Generated_Source\PSoC4/CapSense_CSD.c **** 
1731:Generated_Source\PSoC4/CapSense_CSD.c ****     /* position is divided by 8 to calculate the element of the
1732:Generated_Source\PSoC4/CapSense_CSD.c ****        table[] array that contains the enable bit
1733:Generated_Source\PSoC4/CapSense_CSD.c ****        for an appropriate sensor.
1734:Generated_Source\PSoC4/CapSense_CSD.c ****     */
1735:Generated_Source\PSoC4/CapSense_CSD.c ****     offset = (position >> 3u);
 938              		.loc 1 1735 0
 939 0000 CA08     		lsrs	r2, r1, #3
 940              	.LVL106:
1736:Generated_Source\PSoC4/CapSense_CSD.c **** 
1737:Generated_Source\PSoC4/CapSense_CSD.c ****     /* The enMask calculation for the appropriate sensor. Operation (position & 0x07u)
1738:Generated_Source\PSoC4/CapSense_CSD.c ****        intends to calculate the enable bit offset for the 8-bit element of the
1739:Generated_Source\PSoC4/CapSense_CSD.c ****        table[] array.
1740:Generated_Source\PSoC4/CapSense_CSD.c ****     */
1741:Generated_Source\PSoC4/CapSense_CSD.c ****     enMask = 0x01u << (position & 0x07u);
 941              		.loc 1 1741 0
 942 0002 0723     		movs	r3, #7
 943 0004 1940     		ands	r1, r3
 944              	.LVL107:
 945 0006 063B     		subs	r3, r3, #6
 946 0008 8B40     		lsls	r3, r3, r1
 947              	.LVL108:
1742:Generated_Source\PSoC4/CapSense_CSD.c **** 
1743:Generated_Source\PSoC4/CapSense_CSD.c ****     return ((0u !=(table[offset] & enMask)) ? 1Lu : 0Lu);
 948              		.loc 1 1743 0
 949 000a 825C     		ldrb	r2, [r0, r2]
 950              	.LVL109:
 951 000c 1342     		tst	r3, r2
 952 000e 01D0     		beq	.L62
 953 0010 0120     		movs	r0, #1
 954              	.LVL110:
 955 0012 00E0     		b	.L61
 956              	.LVL111:
 957              	.L62:
 958 0014 0020     		movs	r0, #0
 959              	.LVL112:
 960              	.L61:
1744:Generated_Source\PSoC4/CapSense_CSD.c **** }
 961              		.loc 1 1744 0 discriminator 4
 962              		@ sp needed
 963 0016 7047     		bx	lr
 964              		.cfi_endproc
 965              	.LFE57:
 966              		.size	CapSense_CSD_GetBitValue, .-CapSense_CSD_GetBitValue
 967              		.section	.text.CapSense_CSD_FindNextSensor,"ax",%progbits
 968              		.align	2
 969              		.global	CapSense_CSD_FindNextSensor
ARM GAS  C:\Users\ZTIPRI~1\AppData\Local\Temp\ccBGTz86.s 			page 49


 970              		.code	16
 971              		.thumb_func
 972              		.type	CapSense_CSD_FindNextSensor, %function
 973              	CapSense_CSD_FindNextSensor:
 974              	.LFB37:
 509:Generated_Source\PSoC4/CapSense_CSD.c ****     uint32 enableFlag;
 975              		.loc 1 509 0
 976              		.cfi_startproc
 977              		@ args = 0, pretend = 0, frame = 0
 978              		@ frame_needed = 0, uses_anonymous_args = 0
 979              	.LVL113:
 980 0000 10B5     		push	{r4, lr}
 981              		.cfi_def_cfa_offset 8
 982              		.cfi_offset 4, -8
 983              		.cfi_offset 14, -4
 984 0002 0400     		movs	r4, r0
 985              	.LVL114:
 986              	.L65:
 516:Generated_Source\PSoC4/CapSense_CSD.c ****         if(snsIndex == CapSense_CSD_TOTAL_SENSOR_COUNT)
 987              		.loc 1 516 0
 988 0004 0134     		adds	r4, r4, #1
 989              	.LVL115:
 990 0006 E4B2     		uxtb	r4, r4
 991              	.LVL116:
 517:Generated_Source\PSoC4/CapSense_CSD.c ****         {
 992              		.loc 1 517 0
 993 0008 052C     		cmp	r4, #5
 994 000a 06D0     		beq	.L64
 521:Generated_Source\PSoC4/CapSense_CSD.c ****     }
 995              		.loc 1 521 0
 996 000c 2100     		movs	r1, r4
 997 000e 0448     		ldr	r0, .L66
 998 0010 1430     		adds	r0, r0, #20
 999 0012 FFF7FEFF 		bl	CapSense_CSD_GetBitValue
 1000              	.LVL117:
 523:Generated_Source\PSoC4/CapSense_CSD.c **** 
 1001              		.loc 1 523 0
 1002 0016 0028     		cmp	r0, #0
 1003 0018 F4D0     		beq	.L65
 1004              	.LVL118:
 1005              	.L64:
 526:Generated_Source\PSoC4/CapSense_CSD.c **** 
 1006              		.loc 1 526 0
 1007 001a 2000     		movs	r0, r4
 1008              		@ sp needed
 1009              	.LVL119:
 1010 001c 10BD     		pop	{r4, pc}
 1011              	.L67:
 1012 001e C046     		.align	2
 1013              	.L66:
 1014 0020 00000000 		.word	.LANCHOR1
 1015              		.cfi_endproc
 1016              	.LFE37:
 1017              		.size	CapSense_CSD_FindNextSensor, .-CapSense_CSD_FindNextSensor
 1018              		.section	.text.CapSense_CSD_PreScan,"ax",%progbits
 1019              		.align	2
 1020              		.global	CapSense_CSD_PreScan
ARM GAS  C:\Users\ZTIPRI~1\AppData\Local\Temp\ccBGTz86.s 			page 50


 1021              		.code	16
 1022              		.thumb_func
 1023              		.type	CapSense_CSD_PreScan, %function
 1024              	CapSense_CSD_PreScan:
 1025              	.LFB52:
1338:Generated_Source\PSoC4/CapSense_CSD.c ****     uint8 widget;
 1026              		.loc 1 1338 0
 1027              		.cfi_startproc
 1028              		@ args = 0, pretend = 0, frame = 0
 1029              		@ frame_needed = 0, uses_anonymous_args = 0
 1030              	.LVL120:
 1031 0000 F8B5     		push	{r3, r4, r5, r6, r7, lr}
 1032              		.cfi_def_cfa_offset 24
 1033              		.cfi_offset 3, -24
 1034              		.cfi_offset 4, -20
 1035              		.cfi_offset 5, -16
 1036              		.cfi_offset 6, -12
 1037              		.cfi_offset 7, -8
 1038              		.cfi_offset 14, -4
 1039 0002 0400     		movs	r4, r0
1356:Generated_Source\PSoC4/CapSense_CSD.c **** 
 1040              		.loc 1 1356 0
 1041 0004 234B     		ldr	r3, .L70
 1042 0006 1B18     		adds	r3, r3, r0
 1043 0008 4C22     		movs	r2, #76
 1044 000a 9B5C     		ldrb	r3, [r3, r2]
 1045              	.LVL121:
1359:Generated_Source\PSoC4/CapSense_CSD.c **** 
 1046              		.loc 1 1359 0
 1047 000c 9B00     		lsls	r3, r3, #2
 1048              	.LVL122:
 1049 000e 224A     		ldr	r2, .L70+4
 1050              	.LVL123:
 1051 0010 9E58     		ldr	r6, [r3, r2]
 1052              	.LVL124:
1363:Generated_Source\PSoC4/CapSense_CSD.c **** 
 1053              		.loc 1 1363 0
 1054 0012 0100     		movs	r1, r0
 1055 0014 2148     		ldr	r0, .L70+8
 1056              	.LVL125:
 1057 0016 FFF7FEFF 		bl	CapSense_CSD_GetBitValue
 1058              	.LVL126:
1365:Generated_Source\PSoC4/CapSense_CSD.c ****         {
 1059              		.loc 1 1365 0
 1060 001a 214B     		ldr	r3, .L70+12
 1061 001c 9E42     		cmp	r6, r3
 1062 001e 03D8     		bhi	.L69
1367:Generated_Source\PSoC4/CapSense_CSD.c ****             counterResolution |= (uint32)(CapSense_CSD_RESOLUTION_8_BITS);
 1063              		.loc 1 1367 0
 1064 0020 8640     		lsls	r6, r6, r0
 1065              	.LVL127:
1368:Generated_Source\PSoC4/CapSense_CSD.c ****         }
 1066              		.loc 1 1368 0
 1067 0022 FF23     		movs	r3, #255
 1068 0024 1B04     		lsls	r3, r3, #16
 1069 0026 1E43     		orrs	r6, r3
 1070              	.LVL128:
ARM GAS  C:\Users\ZTIPRI~1\AppData\Local\Temp\ccBGTz86.s 			page 51


 1071              	.L69:
1379:Generated_Source\PSoC4/CapSense_CSD.c ****         CapSense_CSD_SenseClk_SetDividerValue((uint16)CapSense_CSD_senseClkDividerVal[sensor]);
 1072              		.loc 1 1379 0
 1073 0028 1E4B     		ldr	r3, .L70+16
 1074 002a 185D     		ldrb	r0, [r3, r4]
 1075              	.LVL129:
 1076 002c 0138     		subs	r0, r0, #1
 1077 002e 80B2     		uxth	r0, r0
 1078 0030 0021     		movs	r1, #0
 1079 0032 FFF7FEFF 		bl	CapSense_CSD_SampleClk_SetFractionalDividerRegister
 1080              	.LVL130:
1380:Generated_Source\PSoC4/CapSense_CSD.c ****     #else
 1081              		.loc 1 1380 0
 1082 0036 1C4B     		ldr	r3, .L70+20
 1083 0038 185D     		ldrb	r0, [r3, r4]
 1084 003a 0138     		subs	r0, r0, #1
 1085 003c 80B2     		uxth	r0, r0
 1086 003e 0021     		movs	r1, #0
 1087 0040 FFF7FEFF 		bl	CapSense_CSD_SenseClk_SetFractionalDividerRegister
 1088              	.LVL131:
1449:Generated_Source\PSoC4/CapSense_CSD.c ****     newRegValue = CapSense_CSD_CSD_IDAC_REG;
 1089              		.loc 1 1449 0
 1090 0044 0F20     		movs	r0, #15
 1091 0046 FFF7FEFF 		bl	CyIntDisable
 1092              	.LVL132:
1450:Generated_Source\PSoC4/CapSense_CSD.c **** 
 1093              		.loc 1 1450 0
 1094 004a 1848     		ldr	r0, .L70+24
 1095 004c 0168     		ldr	r1, [r0]
 1096              	.LVL133:
1456:Generated_Source\PSoC4/CapSense_CSD.c ****     newRegValue |= (CapSense_CSD_modulationIDAC[sensor] |
 1097              		.loc 1 1456 0
 1098 004e 184B     		ldr	r3, .L70+28
 1099 0050 1940     		ands	r1, r3
 1100              	.LVL134:
1457:Generated_Source\PSoC4/CapSense_CSD.c ****                             (uint32)((uint32)CapSense_CSD_compensationIDAC[sensor] <<
 1101              		.loc 1 1457 0
 1102 0052 184B     		ldr	r3, .L70+32
 1103 0054 1B5D     		ldrb	r3, [r3, r4]
1458:Generated_Source\PSoC4/CapSense_CSD.c ****                             CapSense_CSD_CSD_IDAC2_DATA_OFFSET));
 1104              		.loc 1 1458 0
 1105 0056 184A     		ldr	r2, .L70+36
 1106 0058 125D     		ldrb	r2, [r2, r4]
 1107 005a 1204     		lsls	r2, r2, #16
1457:Generated_Source\PSoC4/CapSense_CSD.c ****                             (uint32)((uint32)CapSense_CSD_compensationIDAC[sensor] <<
 1108              		.loc 1 1457 0
 1109 005c 1343     		orrs	r3, r2
 1110 005e 0B43     		orrs	r3, r1
 1111              	.LVL135:
1462:Generated_Source\PSoC4/CapSense_CSD.c **** 
 1112              		.loc 1 1462 0
 1113 0060 0360     		str	r3, [r0]
1477:Generated_Source\PSoC4/CapSense_CSD.c ****     newRegValue &= ~(CapSense_CSD_PRECHARGE_CONFIG_MASK);
 1114              		.loc 1 1477 0
 1115 0062 164F     		ldr	r7, .L70+40
 1116 0064 3D68     		ldr	r5, [r7]
 1117              	.LVL136:
ARM GAS  C:\Users\ZTIPRI~1\AppData\Local\Temp\ccBGTz86.s 			page 52


1478:Generated_Source\PSoC4/CapSense_CSD.c ****     newRegValue |= CapSense_CSD_CTANK_PRECHARGE_CONFIG;
 1118              		.loc 1 1478 0
 1119 0066 164B     		ldr	r3, .L70+44
 1120 0068 1D40     		ands	r5, r3
 1121              	.LVL137:
1479:Generated_Source\PSoC4/CapSense_CSD.c **** 
 1122              		.loc 1 1479 0
 1123 006a 164B     		ldr	r3, .L70+48
 1124 006c 1D43     		orrs	r5, r3
 1125              	.LVL138:
1481:Generated_Source\PSoC4/CapSense_CSD.c **** 
 1126              		.loc 1 1481 0
 1127 006e 0F20     		movs	r0, #15
 1128 0070 FFF7FEFF 		bl	CyIntEnable
 1129              	.LVL139:
1484:Generated_Source\PSoC4/CapSense_CSD.c **** 
 1130              		.loc 1 1484 0
 1131 0074 2000     		movs	r0, r4
 1132 0076 FFF7FEFF 		bl	CapSense_CSD_EnableSensor
 1133              	.LVL140:
1486:Generated_Source\PSoC4/CapSense_CSD.c ****     CapSense_CSD_CSD_CFG_REG = newRegValue;
 1134              		.loc 1 1486 0
 1135 007a FFF7FEFF 		bl	CyEnterCriticalSection
 1136              	.LVL141:
 1137 007e 0400     		movs	r4, r0
 1138              	.LVL142:
1487:Generated_Source\PSoC4/CapSense_CSD.c **** 
 1139              		.loc 1 1487 0
 1140 0080 3D60     		str	r5, [r7]
1497:Generated_Source\PSoC4/CapSense_CSD.c **** 
 1141              		.loc 1 1497 0
 1142 0082 0020     		movs	r0, #0
 1143 0084 FFF7FEFF 		bl	CyDelayCycles
 1144              	.LVL143:
1507:Generated_Source\PSoC4/CapSense_CSD.c ****     CyExitCriticalSection(interruptState);
 1145              		.loc 1 1507 0
 1146 0088 0F4B     		ldr	r3, .L70+52
 1147 008a 1E60     		str	r6, [r3]
1508:Generated_Source\PSoC4/CapSense_CSD.c **** }
 1148              		.loc 1 1508 0
 1149 008c 2000     		movs	r0, r4
 1150 008e FFF7FEFF 		bl	CyExitCriticalSection
 1151              	.LVL144:
1509:Generated_Source\PSoC4/CapSense_CSD.c **** 
 1152              		.loc 1 1509 0
 1153              		@ sp needed
 1154              	.LVL145:
 1155              	.LVL146:
 1156              	.LVL147:
 1157 0092 F8BD     		pop	{r3, r4, r5, r6, r7, pc}
 1158              	.L71:
 1159              		.align	2
 1160              	.L70:
 1161 0094 00000000 		.word	.LANCHOR2
 1162 0098 00000000 		.word	.LANCHOR1
 1163 009c 00000000 		.word	CapSense_CSD_scanSpeedTbl
 1164 00a0 FFFFFEFF 		.word	-65537
ARM GAS  C:\Users\ZTIPRI~1\AppData\Local\Temp\ccBGTz86.s 			page 53


 1165 00a4 00000000 		.word	CapSense_CSD_sampleClkDividerVal
 1166 00a8 00000000 		.word	CapSense_CSD_senseClkDividerVal
 1167 00ac 08000840 		.word	1074266120
 1168 00b0 00FF80FF 		.word	-8323328
 1169 00b4 00000000 		.word	CapSense_CSD_modulationIDAC
 1170 00b8 00000000 		.word	CapSense_CSD_compensationIDAC
 1171 00bc 04000840 		.word	1074266116
 1172 00c0 FF1FDFFF 		.word	-2154497
 1173 00c4 20002000 		.word	2097184
 1174 00c8 0C000840 		.word	1074266124
 1175              		.cfi_endproc
 1176              	.LFE52:
 1177              		.size	CapSense_CSD_PreScan, .-CapSense_CSD_PreScan
 1178              		.section	.text.CapSense_CSD_ScanSensor,"ax",%progbits
 1179              		.align	2
 1180              		.global	CapSense_CSD_ScanSensor
 1181              		.code	16
 1182              		.thumb_func
 1183              		.type	CapSense_CSD_ScanSensor, %function
 1184              	CapSense_CSD_ScanSensor:
 1185              	.LFB38:
 557:Generated_Source\PSoC4/CapSense_CSD.c ****     /* Clears status/control variable and set sensorIndex */
 1186              		.loc 1 557 0
 1187              		.cfi_startproc
 1188              		@ args = 0, pretend = 0, frame = 0
 1189              		@ frame_needed = 0, uses_anonymous_args = 0
 1190              	.LVL148:
 1191 0000 10B5     		push	{r4, lr}
 1192              		.cfi_def_cfa_offset 8
 1193              		.cfi_offset 4, -8
 1194              		.cfi_offset 14, -4
 559:Generated_Source\PSoC4/CapSense_CSD.c ****     CapSense_CSD_sensorIndex = (uint8)sensor;
 1195              		.loc 1 559 0
 1196 0002 054B     		ldr	r3, .L73
 1197 0004 0022     		movs	r2, #0
 1198 0006 1A70     		strb	r2, [r3]
 560:Generated_Source\PSoC4/CapSense_CSD.c **** 
 1199              		.loc 1 560 0
 1200 0008 C2B2     		uxtb	r2, r0
 1201 000a 9A73     		strb	r2, [r3, #14]
 563:Generated_Source\PSoC4/CapSense_CSD.c ****     CapSense_CSD_PreScan(sensor);
 1202              		.loc 1 563 0
 1203 000c 8122     		movs	r2, #129
 1204 000e 1A70     		strb	r2, [r3]
 564:Generated_Source\PSoC4/CapSense_CSD.c **** }
 1205              		.loc 1 564 0
 1206 0010 FFF7FEFF 		bl	CapSense_CSD_PreScan
 1207              	.LVL149:
 565:Generated_Source\PSoC4/CapSense_CSD.c **** 
 1208              		.loc 1 565 0
 1209              		@ sp needed
 1210 0014 10BD     		pop	{r4, pc}
 1211              	.L74:
 1212 0016 C046     		.align	2
 1213              	.L73:
 1214 0018 00000000 		.word	.LANCHOR0
 1215              		.cfi_endproc
ARM GAS  C:\Users\ZTIPRI~1\AppData\Local\Temp\ccBGTz86.s 			page 54


 1216              	.LFE38:
 1217              		.size	CapSense_CSD_ScanSensor, .-CapSense_CSD_ScanSensor
 1218              		.section	.text.CapSense_CSD_ScanEnabledWidgets,"ax",%progbits
 1219              		.align	2
 1220              		.global	CapSense_CSD_ScanEnabledWidgets
 1221              		.code	16
 1222              		.thumb_func
 1223              		.type	CapSense_CSD_ScanEnabledWidgets, %function
 1224              	CapSense_CSD_ScanEnabledWidgets:
 1225              	.LFB40:
 681:Generated_Source\PSoC4/CapSense_CSD.c ****     /* Clears status/control variable and set sensorIndex */
 1226              		.loc 1 681 0
 1227              		.cfi_startproc
 1228              		@ args = 0, pretend = 0, frame = 0
 1229              		@ frame_needed = 0, uses_anonymous_args = 0
 1230 0000 10B5     		push	{r4, lr}
 1231              		.cfi_def_cfa_offset 8
 1232              		.cfi_offset 4, -8
 1233              		.cfi_offset 14, -4
 683:Generated_Source\PSoC4/CapSense_CSD.c ****     CapSense_CSD_sensorIndex = 0xFFu;
 1234              		.loc 1 683 0
 1235 0002 0C4C     		ldr	r4, .L77
 1236 0004 0023     		movs	r3, #0
 1237 0006 2370     		strb	r3, [r4]
 684:Generated_Source\PSoC4/CapSense_CSD.c **** 
 1238              		.loc 1 684 0
 1239 0008 FF33     		adds	r3, r3, #255
 1240 000a A373     		strb	r3, [r4, #14]
 687:Generated_Source\PSoC4/CapSense_CSD.c **** 
 1241              		.loc 1 687 0
 1242 000c A07B     		ldrb	r0, [r4, #14]
 1243 000e C0B2     		uxtb	r0, r0
 1244 0010 FFF7FEFF 		bl	CapSense_CSD_FindNextSensor
 1245              	.LVL150:
 1246 0014 A073     		strb	r0, [r4, #14]
 690:Generated_Source\PSoC4/CapSense_CSD.c ****     {
 1247              		.loc 1 690 0
 1248 0016 A37B     		ldrb	r3, [r4, #14]
 1249 0018 DBB2     		uxtb	r3, r3
 1250 001a 042B     		cmp	r3, #4
 1251 001c 08D8     		bhi	.L75
 692:Generated_Source\PSoC4/CapSense_CSD.c ****         CapSense_CSD_PreScan((uint32)CapSense_CSD_sensorIndex);
 1252              		.loc 1 692 0
 1253 001e 2178     		ldrb	r1, [r4]
 1254 0020 0123     		movs	r3, #1
 1255 0022 0B43     		orrs	r3, r1
 1256 0024 DBB2     		uxtb	r3, r3
 1257 0026 2370     		strb	r3, [r4]
 693:Generated_Source\PSoC4/CapSense_CSD.c ****     }
 1258              		.loc 1 693 0
 1259 0028 A07B     		ldrb	r0, [r4, #14]
 1260 002a C0B2     		uxtb	r0, r0
 1261 002c FFF7FEFF 		bl	CapSense_CSD_PreScan
 1262              	.LVL151:
 1263              	.L75:
 695:Generated_Source\PSoC4/CapSense_CSD.c **** 
 1264              		.loc 1 695 0
ARM GAS  C:\Users\ZTIPRI~1\AppData\Local\Temp\ccBGTz86.s 			page 55


 1265              		@ sp needed
 1266 0030 10BD     		pop	{r4, pc}
 1267              	.L78:
 1268 0032 C046     		.align	2
 1269              	.L77:
 1270 0034 00000000 		.word	.LANCHOR0
 1271              		.cfi_endproc
 1272              	.LFE40:
 1273              		.size	CapSense_CSD_ScanEnabledWidgets, .-CapSense_CSD_ScanEnabledWidgets
 1274              		.section	.text.CapSense_CSD_PostScan,"ax",%progbits
 1275              		.align	2
 1276              		.global	CapSense_CSD_PostScan
 1277              		.code	16
 1278              		.thumb_func
 1279              		.type	CapSense_CSD_PostScan, %function
 1280              	CapSense_CSD_PostScan:
 1281              	.LFB53:
1535:Generated_Source\PSoC4/CapSense_CSD.c ****     uint32 newRegValue;
 1282              		.loc 1 1535 0
 1283              		.cfi_startproc
 1284              		@ args = 0, pretend = 0, frame = 0
 1285              		@ frame_needed = 0, uses_anonymous_args = 0
 1286              	.LVL152:
 1287 0000 70B5     		push	{r4, r5, r6, lr}
 1288              		.cfi_def_cfa_offset 16
 1289              		.cfi_offset 4, -16
 1290              		.cfi_offset 5, -12
 1291              		.cfi_offset 6, -8
 1292              		.cfi_offset 14, -4
 1293 0002 0500     		movs	r5, r0
1553:Generated_Source\PSoC4/CapSense_CSD.c **** 
 1294              		.loc 1 1553 0
 1295 0004 184B     		ldr	r3, .L81
 1296 0006 1C68     		ldr	r4, [r3]
 1297 0008 A4B2     		uxth	r4, r4
 1298 000a 4300     		lsls	r3, r0, #1
 1299 000c 174A     		ldr	r2, .L81+4
 1300 000e D318     		adds	r3, r2, r3
 1301 0010 9C80     		strh	r4, [r3, #4]
1557:Generated_Source\PSoC4/CapSense_CSD.c ****     if(CapSense_CSD_widgetResolution[widget] < CapSense_CSD_RESOLUTION_16_BITS)
 1302              		.loc 1 1557 0
 1303 0012 174B     		ldr	r3, .L81+8
 1304 0014 1B18     		adds	r3, r3, r0
 1305 0016 4C22     		movs	r2, #76
 1306 0018 9B5C     		ldrb	r3, [r3, r2]
 1307              	.LVL153:
1558:Generated_Source\PSoC4/CapSense_CSD.c ****     {
 1308              		.loc 1 1558 0
 1309 001a 9B00     		lsls	r3, r3, #2
 1310              	.LVL154:
 1311 001c 154A     		ldr	r2, .L81+12
 1312              	.LVL155:
 1313 001e 9A58     		ldr	r2, [r3, r2]
 1314 0020 154B     		ldr	r3, .L81+16
 1315 0022 9A42     		cmp	r2, r3
 1316 0024 08D8     		bhi	.L80
1560:Generated_Source\PSoC4/CapSense_CSD.c ****         CapSense_CSD_sensorRaw[sensor] >>= oversamplingFactor;
ARM GAS  C:\Users\ZTIPRI~1\AppData\Local\Temp\ccBGTz86.s 			page 56


 1317              		.loc 1 1560 0
 1318 0026 0100     		movs	r1, r0
 1319 0028 1448     		ldr	r0, .L81+20
 1320              	.LVL156:
 1321 002a FFF7FEFF 		bl	CapSense_CSD_GetBitValue
 1322              	.LVL157:
1561:Generated_Source\PSoC4/CapSense_CSD.c ****     }
 1323              		.loc 1 1561 0
 1324 002e 6B00     		lsls	r3, r5, #1
 1325 0030 0E4A     		ldr	r2, .L81+4
 1326 0032 D318     		adds	r3, r2, r3
 1327 0034 0441     		asrs	r4, r4, r0
 1328 0036 9C80     		strh	r4, [r3, #4]
 1329              	.LVL158:
 1330              	.L80:
1567:Generated_Source\PSoC4/CapSense_CSD.c **** 
 1331              		.loc 1 1567 0
 1332 0038 2800     		movs	r0, r5
 1333 003a FFF7FEFF 		bl	CapSense_CSD_DisableSensor
 1334              	.LVL159:
1569:Generated_Source\PSoC4/CapSense_CSD.c **** 
 1335              		.loc 1 1569 0
 1336 003e 0F20     		movs	r0, #15
 1337 0040 FFF7FEFF 		bl	CyIntDisable
 1338              	.LVL160:
1589:Generated_Source\PSoC4/CapSense_CSD.c ****     newRegValue &= ~(CapSense_CSD_PRECHARGE_CONFIG_MASK);
 1339              		.loc 1 1589 0
 1340 0044 0E4A     		ldr	r2, .L81+24
 1341 0046 1168     		ldr	r1, [r2]
 1342              	.LVL161:
1590:Generated_Source\PSoC4/CapSense_CSD.c ****     newRegValue |= CapSense_CSD_CMOD_PRECHARGE_CONFIG;
 1343              		.loc 1 1590 0
 1344 0048 0E4B     		ldr	r3, .L81+28
 1345 004a 0B40     		ands	r3, r1
 1346              	.LVL162:
1591:Generated_Source\PSoC4/CapSense_CSD.c ****     CapSense_CSD_CSD_CFG_REG = newRegValue;
 1347              		.loc 1 1591 0
 1348 004c A021     		movs	r1, #160
 1349 004e 0902     		lsls	r1, r1, #8
 1350 0050 0B43     		orrs	r3, r1
 1351              	.LVL163:
1592:Generated_Source\PSoC4/CapSense_CSD.c **** 
 1352              		.loc 1 1592 0
 1353 0052 1360     		str	r3, [r2]
1598:Generated_Source\PSoC4/CapSense_CSD.c **** #endif /* (CapSense_CSD_IDAC_CNT == 1u) */
 1354              		.loc 1 1598 0
 1355 0054 0C4A     		ldr	r2, .L81+32
 1356 0056 1168     		ldr	r1, [r2]
 1357 0058 0C4B     		ldr	r3, .L81+36
 1358              	.LVL164:
 1359 005a 0B40     		ands	r3, r1
 1360 005c 1360     		str	r3, [r2]
 1361              	.LVL165:
1601:Generated_Source\PSoC4/CapSense_CSD.c **** }
 1362              		.loc 1 1601 0
 1363 005e 0F20     		movs	r0, #15
 1364 0060 FFF7FEFF 		bl	CyIntEnable
ARM GAS  C:\Users\ZTIPRI~1\AppData\Local\Temp\ccBGTz86.s 			page 57


 1365              	.LVL166:
1602:Generated_Source\PSoC4/CapSense_CSD.c **** 
 1366              		.loc 1 1602 0
 1367              		@ sp needed
 1368              	.LVL167:
 1369 0064 70BD     		pop	{r4, r5, r6, pc}
 1370              	.L82:
 1371 0066 C046     		.align	2
 1372              	.L81:
 1373 0068 0C000840 		.word	1074266124
 1374 006c 00000000 		.word	.LANCHOR0
 1375 0070 00000000 		.word	.LANCHOR2
 1376 0074 00000000 		.word	.LANCHOR1
 1377 0078 FFFFFEFF 		.word	-65537
 1378 007c 00000000 		.word	CapSense_CSD_scanSpeedTbl
 1379 0080 04000840 		.word	1074266116
 1380 0084 FF1FDFFF 		.word	-2154497
 1381 0088 08000840 		.word	1074266120
 1382 008c 00FF80FF 		.word	-8323328
 1383              		.cfi_endproc
 1384              	.LFE53:
 1385              		.size	CapSense_CSD_PostScan, .-CapSense_CSD_PostScan
 1386              		.section	.text.CapSense_CSD_SetBitValue,"ax",%progbits
 1387              		.align	2
 1388              		.global	CapSense_CSD_SetBitValue
 1389              		.code	16
 1390              		.thumb_func
 1391              		.type	CapSense_CSD_SetBitValue, %function
 1392              	CapSense_CSD_SetBitValue:
 1393              	.LFB58:
1745:Generated_Source\PSoC4/CapSense_CSD.c **** 
1746:Generated_Source\PSoC4/CapSense_CSD.c **** 
1747:Generated_Source\PSoC4/CapSense_CSD.c **** /*******************************************************************************
1748:Generated_Source\PSoC4/CapSense_CSD.c **** * Function Name: CapSense_CSD_SetBitValue
1749:Generated_Source\PSoC4/CapSense_CSD.c **** ********************************************************************************
1750:Generated_Source\PSoC4/CapSense_CSD.c **** *
1751:Generated_Source\PSoC4/CapSense_CSD.c **** * Summary:
1752:Generated_Source\PSoC4/CapSense_CSD.c **** *  The API sets a bit status of the bit in the table array which contains masks.
1753:Generated_Source\PSoC4/CapSense_CSD.c **** *
1754:Generated_Source\PSoC4/CapSense_CSD.c **** * Parameters:
1755:Generated_Source\PSoC4/CapSense_CSD.c **** *  table[] - array with bit masks.
1756:Generated_Source\PSoC4/CapSense_CSD.c **** *  position - position of bit in the table[] array.
1757:Generated_Source\PSoC4/CapSense_CSD.c **** *  value: 0 - bit is not set; 1 - bit is set.
1758:Generated_Source\PSoC4/CapSense_CSD.c **** *
1759:Generated_Source\PSoC4/CapSense_CSD.c **** * Return:
1760:Generated_Source\PSoC4/CapSense_CSD.c **** *  None
1761:Generated_Source\PSoC4/CapSense_CSD.c **** *
1762:Generated_Source\PSoC4/CapSense_CSD.c **** * Global Variables:
1763:Generated_Source\PSoC4/CapSense_CSD.c **** *  None
1764:Generated_Source\PSoC4/CapSense_CSD.c **** *
1765:Generated_Source\PSoC4/CapSense_CSD.c **** * Side Effects:
1766:Generated_Source\PSoC4/CapSense_CSD.c **** *  None
1767:Generated_Source\PSoC4/CapSense_CSD.c **** *
1768:Generated_Source\PSoC4/CapSense_CSD.c **** *******************************************************************************/
1769:Generated_Source\PSoC4/CapSense_CSD.c **** void CapSense_CSD_SetBitValue(uint8 table[], uint32 position, uint32 value)
1770:Generated_Source\PSoC4/CapSense_CSD.c **** {
 1394              		.loc 1 1770 0
ARM GAS  C:\Users\ZTIPRI~1\AppData\Local\Temp\ccBGTz86.s 			page 58


 1395              		.cfi_startproc
 1396              		@ args = 0, pretend = 0, frame = 0
 1397              		@ frame_needed = 0, uses_anonymous_args = 0
 1398              	.LVL168:
 1399 0000 10B5     		push	{r4, lr}
 1400              		.cfi_def_cfa_offset 8
 1401              		.cfi_offset 4, -8
 1402              		.cfi_offset 14, -4
1771:Generated_Source\PSoC4/CapSense_CSD.c ****     uint32 offset;
1772:Generated_Source\PSoC4/CapSense_CSD.c ****     uint8 enMask;
1773:Generated_Source\PSoC4/CapSense_CSD.c **** 
1774:Generated_Source\PSoC4/CapSense_CSD.c ****     /* position is divided by 8 to calculate the element of the
1775:Generated_Source\PSoC4/CapSense_CSD.c ****        table[] array that contains the enable bit
1776:Generated_Source\PSoC4/CapSense_CSD.c ****        for an appropriate sensor.
1777:Generated_Source\PSoC4/CapSense_CSD.c ****     */
1778:Generated_Source\PSoC4/CapSense_CSD.c ****     offset = (position >> 3u);
 1403              		.loc 1 1778 0
 1404 0002 CC08     		lsrs	r4, r1, #3
 1405              	.LVL169:
1779:Generated_Source\PSoC4/CapSense_CSD.c **** 
1780:Generated_Source\PSoC4/CapSense_CSD.c ****     /* The enMask calculation for the appropriate sensor. Operation (position & 0x07u)
1781:Generated_Source\PSoC4/CapSense_CSD.c ****        intends to calculate the enable bit offset for the 8-bit element of the
1782:Generated_Source\PSoC4/CapSense_CSD.c ****        table[] array.
1783:Generated_Source\PSoC4/CapSense_CSD.c ****     */
1784:Generated_Source\PSoC4/CapSense_CSD.c ****     enMask = 0x01u << (position & 0x07u);
 1406              		.loc 1 1784 0
 1407 0004 0723     		movs	r3, #7
 1408 0006 1940     		ands	r1, r3
 1409              	.LVL170:
 1410 0008 063B     		subs	r3, r3, #6
 1411 000a 8B40     		lsls	r3, r3, r1
 1412 000c DBB2     		uxtb	r3, r3
 1413              	.LVL171:
1785:Generated_Source\PSoC4/CapSense_CSD.c **** 
1786:Generated_Source\PSoC4/CapSense_CSD.c ****     if(0u != value)
 1414              		.loc 1 1786 0
 1415 000e 002A     		cmp	r2, #0
 1416 0010 04D0     		beq	.L84
1787:Generated_Source\PSoC4/CapSense_CSD.c ****     {
1788:Generated_Source\PSoC4/CapSense_CSD.c ****         table[offset] |= enMask;
 1417              		.loc 1 1788 0
 1418 0012 0419     		adds	r4, r0, r4
 1419              	.LVL172:
 1420 0014 2278     		ldrb	r2, [r4]
 1421              	.LVL173:
 1422 0016 1343     		orrs	r3, r2
 1423              	.LVL174:
 1424 0018 2370     		strb	r3, [r4]
 1425 001a 03E0     		b	.L83
 1426              	.LVL175:
 1427              	.L84:
1789:Generated_Source\PSoC4/CapSense_CSD.c ****     }
1790:Generated_Source\PSoC4/CapSense_CSD.c ****     else
1791:Generated_Source\PSoC4/CapSense_CSD.c ****     {
1792:Generated_Source\PSoC4/CapSense_CSD.c ****         table[offset] &= (uint8)~(enMask);
 1428              		.loc 1 1792 0
 1429 001c 0419     		adds	r4, r0, r4
ARM GAS  C:\Users\ZTIPRI~1\AppData\Local\Temp\ccBGTz86.s 			page 59


 1430              	.LVL176:
 1431 001e 2278     		ldrb	r2, [r4]
 1432              	.LVL177:
 1433 0020 9A43     		bics	r2, r3
 1434 0022 2270     		strb	r2, [r4]
 1435              	.LVL178:
 1436              	.L83:
1793:Generated_Source\PSoC4/CapSense_CSD.c ****     }
1794:Generated_Source\PSoC4/CapSense_CSD.c **** }
 1437              		.loc 1 1794 0
 1438              		@ sp needed
 1439 0024 10BD     		pop	{r4, pc}
 1440              		.cfi_endproc
 1441              	.LFE58:
 1442              		.size	CapSense_CSD_SetBitValue, .-CapSense_CSD_SetBitValue
 1443 0026 C046     		.section	.text.CapSense_CSD_ScanWidget,"ax",%progbits
 1444              		.align	2
 1445              		.global	CapSense_CSD_ScanWidget
 1446              		.code	16
 1447              		.thumb_func
 1448              		.type	CapSense_CSD_ScanWidget, %function
 1449              	CapSense_CSD_ScanWidget:
 1450              	.LFB39:
 596:Generated_Source\PSoC4/CapSense_CSD.c ****     uint32 sensorsPerWidget;
 1451              		.loc 1 596 0
 1452              		.cfi_startproc
 1453              		@ args = 0, pretend = 0, frame = 0
 1454              		@ frame_needed = 0, uses_anonymous_args = 0
 1455              	.LVL179:
 1456 0000 70B5     		push	{r4, r5, r6, lr}
 1457              		.cfi_def_cfa_offset 16
 1458              		.cfi_offset 4, -16
 1459              		.cfi_offset 5, -12
 1460              		.cfi_offset 6, -8
 1461              		.cfi_offset 14, -4
 602:Generated_Source\PSoC4/CapSense_CSD.c **** 
 1462              		.loc 1 602 0
 1463 0002 1D4B     		ldr	r3, .L96
 1464 0004 1B5C     		ldrb	r3, [r3, r0]
 1465 0006 1D4A     		ldr	r2, .L96+4
 1466 0008 9373     		strb	r3, [r2, #14]
 605:Generated_Source\PSoC4/CapSense_CSD.c **** 
 1467              		.loc 1 605 0
 1468 000a 1D4A     		ldr	r2, .L96+8
 1469 000c 155C     		ldrb	r5, [r2, r0]
 1470              	.LVL180:
 608:Generated_Source\PSoC4/CapSense_CSD.c ****     {
 1471              		.loc 1 608 0
 1472 000e 002D     		cmp	r5, #0
 1473 0010 00D1     		bne	.L87
 610:Generated_Source\PSoC4/CapSense_CSD.c ****     }
 1474              		.loc 1 610 0
 1475 0012 0135     		adds	r5, r5, #1
 1476              	.LVL181:
 1477              	.L87:
 614:Generated_Source\PSoC4/CapSense_CSD.c **** 
 1478              		.loc 1 614 0
ARM GAS  C:\Users\ZTIPRI~1\AppData\Local\Temp\ccBGTz86.s 			page 60


 1479 0014 5D19     		adds	r5, r3, r5
 1480              	.LVL182:
 1481 0016 013D     		subs	r5, r5, #1
 1482              	.LVL183:
 617:Generated_Source\PSoC4/CapSense_CSD.c ****     {
 1483              		.loc 1 617 0
 1484 0018 0023     		movs	r3, #0
 1485 001a 05E0     		b	.L88
 1486              	.LVL184:
 1487              	.L89:
 620:Generated_Source\PSoC4/CapSense_CSD.c ****     }
 1488              		.loc 1 620 0 discriminator 3
 1489 001c 194A     		ldr	r2, .L96+12
 1490 001e D218     		adds	r2, r2, r3
 1491 0020 117D     		ldrb	r1, [r2, #20]
 1492 0022 194A     		ldr	r2, .L96+16
 1493 0024 D154     		strb	r1, [r2, r3]
 617:Generated_Source\PSoC4/CapSense_CSD.c ****     {
 1494              		.loc 1 617 0 discriminator 3
 1495 0026 0133     		adds	r3, r3, #1
 1496              	.LVL185:
 1497              	.L88:
 617:Generated_Source\PSoC4/CapSense_CSD.c ****     {
 1498              		.loc 1 617 0 is_stmt 0 discriminator 1
 1499 0028 002B     		cmp	r3, #0
 1500 002a F7D0     		beq	.L89
 1501 002c 0024     		movs	r4, #0
 1502 002e 14E0     		b	.L90
 1503              	.LVL186:
 1504              	.L93:
 627:Generated_Source\PSoC4/CapSense_CSD.c ****         {
 1505              		.loc 1 627 0 is_stmt 1
 1506 0030 124B     		ldr	r3, .L96+4
 1507 0032 9B7B     		ldrb	r3, [r3, #14]
 1508 0034 DBB2     		uxtb	r3, r3
 1509 0036 9C42     		cmp	r4, r3
 1510 0038 08D3     		bcc	.L91
 627:Generated_Source\PSoC4/CapSense_CSD.c ****         {
 1511              		.loc 1 627 0 is_stmt 0 discriminator 1
 1512 003a AC42     		cmp	r4, r5
 1513 003c 06D8     		bhi	.L91
 630:Generated_Source\PSoC4/CapSense_CSD.c ****         }
 1514              		.loc 1 630 0 is_stmt 1
 1515 003e 0122     		movs	r2, #1
 1516 0040 2100     		movs	r1, r4
 1517 0042 1048     		ldr	r0, .L96+12
 1518 0044 1430     		adds	r0, r0, #20
 1519 0046 FFF7FEFF 		bl	CapSense_CSD_SetBitValue
 1520              	.LVL187:
 1521 004a 05E0     		b	.L92
 1522              	.L91:
 635:Generated_Source\PSoC4/CapSense_CSD.c ****         }
 1523              		.loc 1 635 0
 1524 004c 0022     		movs	r2, #0
 1525 004e 2100     		movs	r1, r4
 1526 0050 0C48     		ldr	r0, .L96+12
 1527 0052 1430     		adds	r0, r0, #20
ARM GAS  C:\Users\ZTIPRI~1\AppData\Local\Temp\ccBGTz86.s 			page 61


 1528 0054 FFF7FEFF 		bl	CapSense_CSD_SetBitValue
 1529              	.LVL188:
 1530              	.L92:
 624:Generated_Source\PSoC4/CapSense_CSD.c ****     {
 1531              		.loc 1 624 0 discriminator 2
 1532 0058 0134     		adds	r4, r4, #1
 1533              	.LVL189:
 1534              	.L90:
 624:Generated_Source\PSoC4/CapSense_CSD.c ****     {
 1535              		.loc 1 624 0 is_stmt 0 discriminator 1
 1536 005a 042C     		cmp	r4, #4
 1537 005c E8D9     		bls	.L93
 640:Generated_Source\PSoC4/CapSense_CSD.c ****     {
 1538              		.loc 1 640 0 is_stmt 1
 1539 005e 074B     		ldr	r3, .L96+4
 1540 0060 9B7B     		ldrb	r3, [r3, #14]
 1541 0062 DBB2     		uxtb	r3, r3
 1542 0064 042B     		cmp	r3, #4
 1543 0066 06D8     		bhi	.L86
 643:Generated_Source\PSoC4/CapSense_CSD.c ****         /* Scan first sensor of widget*/
 1544              		.loc 1 643 0
 1545 0068 044B     		ldr	r3, .L96+4
 1546 006a 4122     		movs	r2, #65
 1547 006c 1A70     		strb	r2, [r3]
 645:Generated_Source\PSoC4/CapSense_CSD.c ****     }
 1548              		.loc 1 645 0
 1549 006e 987B     		ldrb	r0, [r3, #14]
 1550 0070 C0B2     		uxtb	r0, r0
 1551 0072 FFF7FEFF 		bl	CapSense_CSD_PreScan
 1552              	.LVL190:
 1553              	.L86:
 647:Generated_Source\PSoC4/CapSense_CSD.c **** #endif /* (0u != CapSense_CSD_CSHL_API_GENERATE) */
 1554              		.loc 1 647 0
 1555              		@ sp needed
 1556              	.LVL191:
 1557              	.LVL192:
 1558 0076 70BD     		pop	{r4, r5, r6, pc}
 1559              	.L97:
 1560              		.align	2
 1561              	.L96:
 1562 0078 00000000 		.word	CapSense_CSD_rawDataIndex
 1563 007c 00000000 		.word	.LANCHOR0
 1564 0080 00000000 		.word	CapSense_CSD_numberOfSensors
 1565 0084 00000000 		.word	.LANCHOR1
 1566 0088 00000000 		.word	CapSense_CSD_sensorEnableMaskBackup
 1567              		.cfi_endproc
 1568              	.LFE39:
 1569              		.size	CapSense_CSD_ScanWidget, .-CapSense_CSD_ScanWidget
 1570              		.section	.text.CapSense_CSD_GetSenseClkDivider,"ax",%progbits
 1571              		.align	2
 1572              		.global	CapSense_CSD_GetSenseClkDivider
 1573              		.code	16
 1574              		.thumb_func
 1575              		.type	CapSense_CSD_GetSenseClkDivider, %function
 1576              	CapSense_CSD_GetSenseClkDivider:
 1577              	.LFB59:
1795:Generated_Source\PSoC4/CapSense_CSD.c **** 
ARM GAS  C:\Users\ZTIPRI~1\AppData\Local\Temp\ccBGTz86.s 			page 62


1796:Generated_Source\PSoC4/CapSense_CSD.c **** 
1797:Generated_Source\PSoC4/CapSense_CSD.c **** 
1798:Generated_Source\PSoC4/CapSense_CSD.c **** /*******************************************************************************
1799:Generated_Source\PSoC4/CapSense_CSD.c **** * Function Name: CapSense_CSD_GetSenseClkDivider
1800:Generated_Source\PSoC4/CapSense_CSD.c **** ********************************************************************************
1801:Generated_Source\PSoC4/CapSense_CSD.c **** *
1802:Generated_Source\PSoC4/CapSense_CSD.c **** * Summary:
1803:Generated_Source\PSoC4/CapSense_CSD.c **** *  This API returns a value of the sense clock divider for the  sensor.
1804:Generated_Source\PSoC4/CapSense_CSD.c **** *
1805:Generated_Source\PSoC4/CapSense_CSD.c **** * Parameters:
1806:Generated_Source\PSoC4/CapSense_CSD.c **** *  sensor: sensor index. The index value can be
1807:Generated_Source\PSoC4/CapSense_CSD.c **** *  from 0 to (CapSense_CSD_TOTAL_SENSOR_COUNT-1).
1808:Generated_Source\PSoC4/CapSense_CSD.c **** *
1809:Generated_Source\PSoC4/CapSense_CSD.c **** * Return:
1810:Generated_Source\PSoC4/CapSense_CSD.c **** *  This API returns the sense clock divider of the sensor.
1811:Generated_Source\PSoC4/CapSense_CSD.c **** *
1812:Generated_Source\PSoC4/CapSense_CSD.c **** * Global Variables:
1813:Generated_Source\PSoC4/CapSense_CSD.c **** *  CapSense_CSD_senseClkDividerVal[] - stores the sense clock divider values.
1814:Generated_Source\PSoC4/CapSense_CSD.c **** *
1815:Generated_Source\PSoC4/CapSense_CSD.c **** * Side Effects:
1816:Generated_Source\PSoC4/CapSense_CSD.c **** *  None
1817:Generated_Source\PSoC4/CapSense_CSD.c **** *
1818:Generated_Source\PSoC4/CapSense_CSD.c **** *******************************************************************************/
1819:Generated_Source\PSoC4/CapSense_CSD.c **** uint32 CapSense_CSD_GetSenseClkDivider(uint32 sensor)
1820:Generated_Source\PSoC4/CapSense_CSD.c **** {
 1578              		.loc 1 1820 0
 1579              		.cfi_startproc
 1580              		@ args = 0, pretend = 0, frame = 0
 1581              		@ frame_needed = 0, uses_anonymous_args = 0
 1582              		@ link register save eliminated.
 1583              	.LVL193:
1821:Generated_Source\PSoC4/CapSense_CSD.c ****     #if(0u != CapSense_CSD_MULTIPLE_FREQUENCY_SET)
1822:Generated_Source\PSoC4/CapSense_CSD.c ****         return((uint32)CapSense_CSD_senseClkDividerVal[sensor]);
 1584              		.loc 1 1822 0
 1585 0000 014B     		ldr	r3, .L99
 1586 0002 185C     		ldrb	r0, [r3, r0]
 1587              	.LVL194:
1823:Generated_Source\PSoC4/CapSense_CSD.c ****     #else
1824:Generated_Source\PSoC4/CapSense_CSD.c ****         return((uint32)CapSense_CSD_senseClkDividerVal);
1825:Generated_Source\PSoC4/CapSense_CSD.c ****     #endif /* (0u != CapSense_CSD_MULTIPLE_FREQUENCY_SET) */
1826:Generated_Source\PSoC4/CapSense_CSD.c **** }
 1588              		.loc 1 1826 0
 1589              		@ sp needed
 1590 0004 7047     		bx	lr
 1591              	.L100:
 1592 0006 C046     		.align	2
 1593              	.L99:
 1594 0008 00000000 		.word	CapSense_CSD_senseClkDividerVal
 1595              		.cfi_endproc
 1596              	.LFE59:
 1597              		.size	CapSense_CSD_GetSenseClkDivider, .-CapSense_CSD_GetSenseClkDivider
 1598              		.section	.text.CapSense_CSD_SetSenseClkDivider,"ax",%progbits
 1599              		.align	2
 1600              		.global	CapSense_CSD_SetSenseClkDivider
 1601              		.code	16
 1602              		.thumb_func
 1603              		.type	CapSense_CSD_SetSenseClkDivider, %function
ARM GAS  C:\Users\ZTIPRI~1\AppData\Local\Temp\ccBGTz86.s 			page 63


 1604              	CapSense_CSD_SetSenseClkDivider:
 1605              	.LFB60:
1827:Generated_Source\PSoC4/CapSense_CSD.c **** 
1828:Generated_Source\PSoC4/CapSense_CSD.c **** #if (CapSense_CSD_TUNING_METHOD != CapSense_CSD__TUNING_NONE)
1829:Generated_Source\PSoC4/CapSense_CSD.c ****     /*******************************************************************************
1830:Generated_Source\PSoC4/CapSense_CSD.c ****     * Function Name: CapSense_CSD_SetSenseClkDivider
1831:Generated_Source\PSoC4/CapSense_CSD.c ****     ********************************************************************************
1832:Generated_Source\PSoC4/CapSense_CSD.c ****     *
1833:Generated_Source\PSoC4/CapSense_CSD.c ****     * Summary:
1834:Generated_Source\PSoC4/CapSense_CSD.c ****     *  This API sets a value of the sense clock divider for the  sensor.
1835:Generated_Source\PSoC4/CapSense_CSD.c ****     *
1836:Generated_Source\PSoC4/CapSense_CSD.c ****     * Parameters:
1837:Generated_Source\PSoC4/CapSense_CSD.c ****     *  sensor:  Sensor index.
1838:Generated_Source\PSoC4/CapSense_CSD.c ****     *  senseClk: represents the sense clock value.
1839:Generated_Source\PSoC4/CapSense_CSD.c ****     *
1840:Generated_Source\PSoC4/CapSense_CSD.c ****     * Return:
1841:Generated_Source\PSoC4/CapSense_CSD.c ****     *  None.
1842:Generated_Source\PSoC4/CapSense_CSD.c ****     *
1843:Generated_Source\PSoC4/CapSense_CSD.c ****     * Global Variables:
1844:Generated_Source\PSoC4/CapSense_CSD.c ****     *  CapSense_CSD_senseClkDividerVal[] - stores the sense clock divider values.
1845:Generated_Source\PSoC4/CapSense_CSD.c ****     *
1846:Generated_Source\PSoC4/CapSense_CSD.c ****     * Side Effects:
1847:Generated_Source\PSoC4/CapSense_CSD.c ****     *  None
1848:Generated_Source\PSoC4/CapSense_CSD.c ****     *
1849:Generated_Source\PSoC4/CapSense_CSD.c ****     *******************************************************************************/
1850:Generated_Source\PSoC4/CapSense_CSD.c ****     void CapSense_CSD_SetSenseClkDivider(uint32 sensor, uint32 senseClk)
1851:Generated_Source\PSoC4/CapSense_CSD.c ****     {
 1606              		.loc 1 1851 0
 1607              		.cfi_startproc
 1608              		@ args = 0, pretend = 0, frame = 0
 1609              		@ frame_needed = 0, uses_anonymous_args = 0
 1610              		@ link register save eliminated.
 1611              	.LVL195:
1852:Generated_Source\PSoC4/CapSense_CSD.c ****         #if(0u != CapSense_CSD_MULTIPLE_FREQUENCY_SET)
1853:Generated_Source\PSoC4/CapSense_CSD.c ****             CapSense_CSD_senseClkDividerVal[sensor] = (uint8)senseClk;
 1612              		.loc 1 1853 0
 1613 0000 014B     		ldr	r3, .L102
 1614 0002 1954     		strb	r1, [r3, r0]
1854:Generated_Source\PSoC4/CapSense_CSD.c ****         #else
1855:Generated_Source\PSoC4/CapSense_CSD.c ****             CapSense_CSD_senseClkDividerVal = (uint8)senseClk;
1856:Generated_Source\PSoC4/CapSense_CSD.c ****         #endif /* (0u != CapSense_CSD_MULTIPLE_FREQUENCY_SET) */
1857:Generated_Source\PSoC4/CapSense_CSD.c ****     }
 1615              		.loc 1 1857 0
 1616              		@ sp needed
 1617 0004 7047     		bx	lr
 1618              	.L103:
 1619 0006 C046     		.align	2
 1620              	.L102:
 1621 0008 00000000 		.word	CapSense_CSD_senseClkDividerVal
 1622              		.cfi_endproc
 1623              	.LFE60:
 1624              		.size	CapSense_CSD_SetSenseClkDivider, .-CapSense_CSD_SetSenseClkDivider
 1625              		.section	.text.CapSense_CSD_GetModulatorClkDivider,"ax",%progbits
 1626              		.align	2
 1627              		.global	CapSense_CSD_GetModulatorClkDivider
 1628              		.code	16
 1629              		.thumb_func
ARM GAS  C:\Users\ZTIPRI~1\AppData\Local\Temp\ccBGTz86.s 			page 64


 1630              		.type	CapSense_CSD_GetModulatorClkDivider, %function
 1631              	CapSense_CSD_GetModulatorClkDivider:
 1632              	.LFB61:
1858:Generated_Source\PSoC4/CapSense_CSD.c **** #endif /* (CapSense_CSD_TUNING_METHOD != CapSense_CSD__TUNING_NONE) */
1859:Generated_Source\PSoC4/CapSense_CSD.c **** 
1860:Generated_Source\PSoC4/CapSense_CSD.c **** 
1861:Generated_Source\PSoC4/CapSense_CSD.c **** /*******************************************************************************
1862:Generated_Source\PSoC4/CapSense_CSD.c **** * Function Name: CapSense_CSD_GetModulatorClkDivider
1863:Generated_Source\PSoC4/CapSense_CSD.c **** ********************************************************************************
1864:Generated_Source\PSoC4/CapSense_CSD.c **** *
1865:Generated_Source\PSoC4/CapSense_CSD.c **** * Summary:
1866:Generated_Source\PSoC4/CapSense_CSD.c **** *  This API returns a value of the modulator sample clock divider for the  sensor.
1867:Generated_Source\PSoC4/CapSense_CSD.c **** *
1868:Generated_Source\PSoC4/CapSense_CSD.c **** * Parameters:
1869:Generated_Source\PSoC4/CapSense_CSD.c **** *  sensor: sensor index. The value of index can be
1870:Generated_Source\PSoC4/CapSense_CSD.c **** *  from 0 to (CapSense_CSD_TOTAL_SENSOR_COUNT-1).
1871:Generated_Source\PSoC4/CapSense_CSD.c **** *
1872:Generated_Source\PSoC4/CapSense_CSD.c **** * Return:
1873:Generated_Source\PSoC4/CapSense_CSD.c **** *  This API returns the modulator sample clock divider for the  sensor.
1874:Generated_Source\PSoC4/CapSense_CSD.c **** *
1875:Generated_Source\PSoC4/CapSense_CSD.c **** * Global Variables:
1876:Generated_Source\PSoC4/CapSense_CSD.c **** *  CapSense_CSD_sampleClkDividerVal[] - stores the modulator sample divider values.
1877:Generated_Source\PSoC4/CapSense_CSD.c **** *
1878:Generated_Source\PSoC4/CapSense_CSD.c **** * Side Effects:
1879:Generated_Source\PSoC4/CapSense_CSD.c **** *  None
1880:Generated_Source\PSoC4/CapSense_CSD.c **** *
1881:Generated_Source\PSoC4/CapSense_CSD.c **** *******************************************************************************/
1882:Generated_Source\PSoC4/CapSense_CSD.c **** uint32 CapSense_CSD_GetModulatorClkDivider(uint32 sensor)
1883:Generated_Source\PSoC4/CapSense_CSD.c **** {
 1633              		.loc 1 1883 0
 1634              		.cfi_startproc
 1635              		@ args = 0, pretend = 0, frame = 0
 1636              		@ frame_needed = 0, uses_anonymous_args = 0
 1637              		@ link register save eliminated.
 1638              	.LVL196:
1884:Generated_Source\PSoC4/CapSense_CSD.c ****     #if(0u != CapSense_CSD_MULTIPLE_FREQUENCY_SET)
1885:Generated_Source\PSoC4/CapSense_CSD.c ****         return((uint32)CapSense_CSD_sampleClkDividerVal[sensor]);
 1639              		.loc 1 1885 0
 1640 0000 014B     		ldr	r3, .L105
 1641 0002 185C     		ldrb	r0, [r3, r0]
 1642              	.LVL197:
1886:Generated_Source\PSoC4/CapSense_CSD.c ****     #else
1887:Generated_Source\PSoC4/CapSense_CSD.c ****         return((uint32)CapSense_CSD_sampleClkDividerVal);
1888:Generated_Source\PSoC4/CapSense_CSD.c ****     #endif /* (0u != CapSense_CSD_MULTIPLE_FREQUENCY_SET) */
1889:Generated_Source\PSoC4/CapSense_CSD.c **** }
 1643              		.loc 1 1889 0
 1644              		@ sp needed
 1645 0004 7047     		bx	lr
 1646              	.L106:
 1647 0006 C046     		.align	2
 1648              	.L105:
 1649 0008 00000000 		.word	CapSense_CSD_sampleClkDividerVal
 1650              		.cfi_endproc
 1651              	.LFE61:
 1652              		.size	CapSense_CSD_GetModulatorClkDivider, .-CapSense_CSD_GetModulatorClkDivider
 1653              		.section	.text.CapSense_CSD_SetModulatorClkDivider,"ax",%progbits
 1654              		.align	2
ARM GAS  C:\Users\ZTIPRI~1\AppData\Local\Temp\ccBGTz86.s 			page 65


 1655              		.global	CapSense_CSD_SetModulatorClkDivider
 1656              		.code	16
 1657              		.thumb_func
 1658              		.type	CapSense_CSD_SetModulatorClkDivider, %function
 1659              	CapSense_CSD_SetModulatorClkDivider:
 1660              	.LFB62:
1890:Generated_Source\PSoC4/CapSense_CSD.c **** 
1891:Generated_Source\PSoC4/CapSense_CSD.c **** #if (CapSense_CSD_TUNING_METHOD != CapSense_CSD__TUNING_NONE)
1892:Generated_Source\PSoC4/CapSense_CSD.c ****     /*******************************************************************************
1893:Generated_Source\PSoC4/CapSense_CSD.c ****     * Function Name: CapSense_CSD_SetModulatorClkDivider
1894:Generated_Source\PSoC4/CapSense_CSD.c ****     ********************************************************************************
1895:Generated_Source\PSoC4/CapSense_CSD.c ****     *
1896:Generated_Source\PSoC4/CapSense_CSD.c ****     * Summary:
1897:Generated_Source\PSoC4/CapSense_CSD.c ****     *  This API sets a value of the modulator sample clock divider for the  sensor.
1898:Generated_Source\PSoC4/CapSense_CSD.c ****     *
1899:Generated_Source\PSoC4/CapSense_CSD.c ****     * Parameters:
1900:Generated_Source\PSoC4/CapSense_CSD.c ****     *  sensor:  Sensor index.
1901:Generated_Source\PSoC4/CapSense_CSD.c ****     *  modulatorClk: represents the modulator sample clock value.
1902:Generated_Source\PSoC4/CapSense_CSD.c ****     *
1903:Generated_Source\PSoC4/CapSense_CSD.c ****     * Return:
1904:Generated_Source\PSoC4/CapSense_CSD.c ****     *  None.
1905:Generated_Source\PSoC4/CapSense_CSD.c ****     *
1906:Generated_Source\PSoC4/CapSense_CSD.c ****     * Global Variables:
1907:Generated_Source\PSoC4/CapSense_CSD.c ****     *  CapSense_CSD_sampleClkDividerVal[] - stores the modulator sample divider values.
1908:Generated_Source\PSoC4/CapSense_CSD.c ****     *
1909:Generated_Source\PSoC4/CapSense_CSD.c ****     * Side Effects:
1910:Generated_Source\PSoC4/CapSense_CSD.c ****     *  None
1911:Generated_Source\PSoC4/CapSense_CSD.c ****     *
1912:Generated_Source\PSoC4/CapSense_CSD.c ****     *******************************************************************************/
1913:Generated_Source\PSoC4/CapSense_CSD.c ****     void CapSense_CSD_SetModulatorClkDivider(uint32 sensor, uint32 modulatorClk)
1914:Generated_Source\PSoC4/CapSense_CSD.c ****     {
 1661              		.loc 1 1914 0
 1662              		.cfi_startproc
 1663              		@ args = 0, pretend = 0, frame = 0
 1664              		@ frame_needed = 0, uses_anonymous_args = 0
 1665              		@ link register save eliminated.
 1666              	.LVL198:
1915:Generated_Source\PSoC4/CapSense_CSD.c ****         #if(0u != CapSense_CSD_MULTIPLE_FREQUENCY_SET)
1916:Generated_Source\PSoC4/CapSense_CSD.c ****             CapSense_CSD_sampleClkDividerVal[sensor] = (uint8)modulatorClk;
 1667              		.loc 1 1916 0
 1668 0000 014B     		ldr	r3, .L108
 1669 0002 1954     		strb	r1, [r3, r0]
1917:Generated_Source\PSoC4/CapSense_CSD.c ****         #else
1918:Generated_Source\PSoC4/CapSense_CSD.c ****             CapSense_CSD_sampleClkDividerVal = (uint8)modulatorClk;
1919:Generated_Source\PSoC4/CapSense_CSD.c ****         #endif /* (0u != CapSense_CSD_MULTIPLE_FREQUENCY_SET) */
1920:Generated_Source\PSoC4/CapSense_CSD.c ****     }
 1670              		.loc 1 1920 0
 1671              		@ sp needed
 1672 0004 7047     		bx	lr
 1673              	.L109:
 1674 0006 C046     		.align	2
 1675              	.L108:
 1676 0008 00000000 		.word	CapSense_CSD_sampleClkDividerVal
 1677              		.cfi_endproc
 1678              	.LFE62:
 1679              		.size	CapSense_CSD_SetModulatorClkDivider, .-CapSense_CSD_SetModulatorClkDivider
 1680              		.section	.text.CapSense_CSD_GetModulationIDAC,"ax",%progbits
ARM GAS  C:\Users\ZTIPRI~1\AppData\Local\Temp\ccBGTz86.s 			page 66


 1681              		.align	2
 1682              		.global	CapSense_CSD_GetModulationIDAC
 1683              		.code	16
 1684              		.thumb_func
 1685              		.type	CapSense_CSD_GetModulationIDAC, %function
 1686              	CapSense_CSD_GetModulationIDAC:
 1687              	.LFB63:
1921:Generated_Source\PSoC4/CapSense_CSD.c **** #endif /* (CapSense_CSD_TUNING_METHOD != CapSense_CSD__TUNING_NONE) */
1922:Generated_Source\PSoC4/CapSense_CSD.c **** 
1923:Generated_Source\PSoC4/CapSense_CSD.c **** /*******************************************************************************
1924:Generated_Source\PSoC4/CapSense_CSD.c **** * Function Name: CapSense_CSD_GetModulationIDAC
1925:Generated_Source\PSoC4/CapSense_CSD.c **** ********************************************************************************
1926:Generated_Source\PSoC4/CapSense_CSD.c **** *
1927:Generated_Source\PSoC4/CapSense_CSD.c **** * Summary:
1928:Generated_Source\PSoC4/CapSense_CSD.c **** *  This API returns a value of the modulation IDAC for the  sensor.
1929:Generated_Source\PSoC4/CapSense_CSD.c **** *
1930:Generated_Source\PSoC4/CapSense_CSD.c **** * Parameters:
1931:Generated_Source\PSoC4/CapSense_CSD.c **** *  sensor: sensor index. The index value can be
1932:Generated_Source\PSoC4/CapSense_CSD.c **** *  from 0 to (CapSense_CSD_TOTAL_SENSOR_COUNT-1).
1933:Generated_Source\PSoC4/CapSense_CSD.c **** *
1934:Generated_Source\PSoC4/CapSense_CSD.c **** * Return:
1935:Generated_Source\PSoC4/CapSense_CSD.c **** *  This API returns the modulation IDAC of the sensor.
1936:Generated_Source\PSoC4/CapSense_CSD.c **** *
1937:Generated_Source\PSoC4/CapSense_CSD.c **** * Global Variables:
1938:Generated_Source\PSoC4/CapSense_CSD.c **** *  CapSense_CSD_modulationIDAC[] - stores modulation IDAC values.
1939:Generated_Source\PSoC4/CapSense_CSD.c **** *
1940:Generated_Source\PSoC4/CapSense_CSD.c **** * Side Effects:
1941:Generated_Source\PSoC4/CapSense_CSD.c **** *  None
1942:Generated_Source\PSoC4/CapSense_CSD.c **** *
1943:Generated_Source\PSoC4/CapSense_CSD.c **** *******************************************************************************/
1944:Generated_Source\PSoC4/CapSense_CSD.c **** uint32 CapSense_CSD_GetModulationIDAC(uint32 sensor)
1945:Generated_Source\PSoC4/CapSense_CSD.c **** {
 1688              		.loc 1 1945 0
 1689              		.cfi_startproc
 1690              		@ args = 0, pretend = 0, frame = 0
 1691              		@ frame_needed = 0, uses_anonymous_args = 0
 1692              		@ link register save eliminated.
 1693              	.LVL199:
1946:Generated_Source\PSoC4/CapSense_CSD.c ****         return((uint32)CapSense_CSD_modulationIDAC[sensor]);
 1694              		.loc 1 1946 0
 1695 0000 014B     		ldr	r3, .L111
 1696 0002 185C     		ldrb	r0, [r3, r0]
 1697              	.LVL200:
1947:Generated_Source\PSoC4/CapSense_CSD.c **** }
 1698              		.loc 1 1947 0
 1699              		@ sp needed
 1700 0004 7047     		bx	lr
 1701              	.L112:
 1702 0006 C046     		.align	2
 1703              	.L111:
 1704 0008 00000000 		.word	CapSense_CSD_modulationIDAC
 1705              		.cfi_endproc
 1706              	.LFE63:
 1707              		.size	CapSense_CSD_GetModulationIDAC, .-CapSense_CSD_GetModulationIDAC
 1708              		.section	.text.CapSense_CSD_SetModulationIDAC,"ax",%progbits
 1709              		.align	2
 1710              		.global	CapSense_CSD_SetModulationIDAC
ARM GAS  C:\Users\ZTIPRI~1\AppData\Local\Temp\ccBGTz86.s 			page 67


 1711              		.code	16
 1712              		.thumb_func
 1713              		.type	CapSense_CSD_SetModulationIDAC, %function
 1714              	CapSense_CSD_SetModulationIDAC:
 1715              	.LFB64:
1948:Generated_Source\PSoC4/CapSense_CSD.c **** 
1949:Generated_Source\PSoC4/CapSense_CSD.c **** #if (CapSense_CSD_TUNING_METHOD != CapSense_CSD__TUNING_NONE)
1950:Generated_Source\PSoC4/CapSense_CSD.c ****     /*******************************************************************************
1951:Generated_Source\PSoC4/CapSense_CSD.c ****     * Function Name: CapSense_CSD_SetModulationIDAC
1952:Generated_Source\PSoC4/CapSense_CSD.c ****     ********************************************************************************
1953:Generated_Source\PSoC4/CapSense_CSD.c ****     *
1954:Generated_Source\PSoC4/CapSense_CSD.c ****     * Summary:
1955:Generated_Source\PSoC4/CapSense_CSD.c ****     *  This API sets a value of the modulation IDAC for the  sensor.
1956:Generated_Source\PSoC4/CapSense_CSD.c ****     *
1957:Generated_Source\PSoC4/CapSense_CSD.c ****     * Parameters:
1958:Generated_Source\PSoC4/CapSense_CSD.c ****     *  sensor:  Sensor index.
1959:Generated_Source\PSoC4/CapSense_CSD.c ****     *  compIdacValue: represents the modulation IDAC data register value.
1960:Generated_Source\PSoC4/CapSense_CSD.c ****     *
1961:Generated_Source\PSoC4/CapSense_CSD.c ****     * Return:
1962:Generated_Source\PSoC4/CapSense_CSD.c ****     *  None.
1963:Generated_Source\PSoC4/CapSense_CSD.c ****     *
1964:Generated_Source\PSoC4/CapSense_CSD.c ****     * Global Variables:
1965:Generated_Source\PSoC4/CapSense_CSD.c ****     *  CapSense_CSD_modulationIDAC[] - array with modulation IDAC values
1966:Generated_Source\PSoC4/CapSense_CSD.c ****     *
1967:Generated_Source\PSoC4/CapSense_CSD.c ****     * Side Effects:
1968:Generated_Source\PSoC4/CapSense_CSD.c ****     *  None
1969:Generated_Source\PSoC4/CapSense_CSD.c ****     *
1970:Generated_Source\PSoC4/CapSense_CSD.c ****     *******************************************************************************/
1971:Generated_Source\PSoC4/CapSense_CSD.c ****     void CapSense_CSD_SetModulationIDAC(uint32 sensor, uint32 modIdacValue)
1972:Generated_Source\PSoC4/CapSense_CSD.c ****     {
 1716              		.loc 1 1972 0
 1717              		.cfi_startproc
 1718              		@ args = 0, pretend = 0, frame = 0
 1719              		@ frame_needed = 0, uses_anonymous_args = 0
 1720              		@ link register save eliminated.
 1721              	.LVL201:
1973:Generated_Source\PSoC4/CapSense_CSD.c ****         CapSense_CSD_modulationIDAC[sensor] = (uint8)modIdacValue;
 1722              		.loc 1 1973 0
 1723 0000 014B     		ldr	r3, .L114
 1724 0002 1954     		strb	r1, [r3, r0]
1974:Generated_Source\PSoC4/CapSense_CSD.c ****     }
 1725              		.loc 1 1974 0
 1726              		@ sp needed
 1727 0004 7047     		bx	lr
 1728              	.L115:
 1729 0006 C046     		.align	2
 1730              	.L114:
 1731 0008 00000000 		.word	CapSense_CSD_modulationIDAC
 1732              		.cfi_endproc
 1733              	.LFE64:
 1734              		.size	CapSense_CSD_SetModulationIDAC, .-CapSense_CSD_SetModulationIDAC
 1735              		.section	.text.CapSense_CSD_GetCompensationIDAC,"ax",%progbits
 1736              		.align	2
 1737              		.global	CapSense_CSD_GetCompensationIDAC
 1738              		.code	16
 1739              		.thumb_func
 1740              		.type	CapSense_CSD_GetCompensationIDAC, %function
ARM GAS  C:\Users\ZTIPRI~1\AppData\Local\Temp\ccBGTz86.s 			page 68


 1741              	CapSense_CSD_GetCompensationIDAC:
 1742              	.LFB65:
1975:Generated_Source\PSoC4/CapSense_CSD.c **** #endif /* (CapSense_CSD_TUNING_METHOD != CapSense_CSD__TUNING_NONE) */
1976:Generated_Source\PSoC4/CapSense_CSD.c **** 
1977:Generated_Source\PSoC4/CapSense_CSD.c **** 
1978:Generated_Source\PSoC4/CapSense_CSD.c **** #if(CapSense_CSD_IDAC_CNT > 1u)
1979:Generated_Source\PSoC4/CapSense_CSD.c ****     /*******************************************************************************
1980:Generated_Source\PSoC4/CapSense_CSD.c ****     * Function Name: CapSense_CSD_GetCompensationIDAC
1981:Generated_Source\PSoC4/CapSense_CSD.c ****     ********************************************************************************
1982:Generated_Source\PSoC4/CapSense_CSD.c ****     *
1983:Generated_Source\PSoC4/CapSense_CSD.c ****     * Summary:
1984:Generated_Source\PSoC4/CapSense_CSD.c ****     *  This API returns a value of the compensation IDAC for the  sensor.
1985:Generated_Source\PSoC4/CapSense_CSD.c ****     *
1986:Generated_Source\PSoC4/CapSense_CSD.c ****     * Parameters:
1987:Generated_Source\PSoC4/CapSense_CSD.c ****     *  sensor: sensor index. The index value can be
1988:Generated_Source\PSoC4/CapSense_CSD.c ****     *  from 0 to (CapSense_CSD_TOTAL_SENSOR_COUNT-1).
1989:Generated_Source\PSoC4/CapSense_CSD.c ****     *
1990:Generated_Source\PSoC4/CapSense_CSD.c ****     * Return:
1991:Generated_Source\PSoC4/CapSense_CSD.c ****     *  This API returns the compensation IDAC of the sensor.
1992:Generated_Source\PSoC4/CapSense_CSD.c ****     *
1993:Generated_Source\PSoC4/CapSense_CSD.c ****     * Global Variables:
1994:Generated_Source\PSoC4/CapSense_CSD.c ****     *  CapSense_CSD_compensationIDAC[] - stores the compensation IDAC values.
1995:Generated_Source\PSoC4/CapSense_CSD.c ****     *
1996:Generated_Source\PSoC4/CapSense_CSD.c ****     * Side Effects:
1997:Generated_Source\PSoC4/CapSense_CSD.c ****     *  None
1998:Generated_Source\PSoC4/CapSense_CSD.c ****     *
1999:Generated_Source\PSoC4/CapSense_CSD.c ****     *******************************************************************************/
2000:Generated_Source\PSoC4/CapSense_CSD.c ****     uint32 CapSense_CSD_GetCompensationIDAC(uint32 sensor)
2001:Generated_Source\PSoC4/CapSense_CSD.c ****     {
 1743              		.loc 1 2001 0
 1744              		.cfi_startproc
 1745              		@ args = 0, pretend = 0, frame = 0
 1746              		@ frame_needed = 0, uses_anonymous_args = 0
 1747              		@ link register save eliminated.
 1748              	.LVL202:
2002:Generated_Source\PSoC4/CapSense_CSD.c ****         return((uint32)CapSense_CSD_compensationIDAC[sensor]);
 1749              		.loc 1 2002 0
 1750 0000 014B     		ldr	r3, .L117
 1751 0002 185C     		ldrb	r0, [r3, r0]
 1752              	.LVL203:
2003:Generated_Source\PSoC4/CapSense_CSD.c ****     }
 1753              		.loc 1 2003 0
 1754              		@ sp needed
 1755 0004 7047     		bx	lr
 1756              	.L118:
 1757 0006 C046     		.align	2
 1758              	.L117:
 1759 0008 00000000 		.word	CapSense_CSD_compensationIDAC
 1760              		.cfi_endproc
 1761              	.LFE65:
 1762              		.size	CapSense_CSD_GetCompensationIDAC, .-CapSense_CSD_GetCompensationIDAC
 1763              		.section	.text.CapSense_CSD_SetCompensationIDAC,"ax",%progbits
 1764              		.align	2
 1765              		.global	CapSense_CSD_SetCompensationIDAC
 1766              		.code	16
 1767              		.thumb_func
 1768              		.type	CapSense_CSD_SetCompensationIDAC, %function
ARM GAS  C:\Users\ZTIPRI~1\AppData\Local\Temp\ccBGTz86.s 			page 69


 1769              	CapSense_CSD_SetCompensationIDAC:
 1770              	.LFB66:
2004:Generated_Source\PSoC4/CapSense_CSD.c **** #endif /* (CapSense_CSD_IDAC_CNT > 1u) */
2005:Generated_Source\PSoC4/CapSense_CSD.c **** 
2006:Generated_Source\PSoC4/CapSense_CSD.c **** 
2007:Generated_Source\PSoC4/CapSense_CSD.c **** #if((CapSense_CSD_TUNING_METHOD != CapSense_CSD__TUNING_NONE) && (CapSense_CSD_IDAC_CNT > 1u))
2008:Generated_Source\PSoC4/CapSense_CSD.c ****     /*******************************************************************************
2009:Generated_Source\PSoC4/CapSense_CSD.c ****     * Function Name: CapSense_CSD_SetCompensationIDAC
2010:Generated_Source\PSoC4/CapSense_CSD.c ****     ********************************************************************************
2011:Generated_Source\PSoC4/CapSense_CSD.c ****     *
2012:Generated_Source\PSoC4/CapSense_CSD.c ****     * Summary:
2013:Generated_Source\PSoC4/CapSense_CSD.c ****     *  This API sets a value of compensation IDAC for the  sensor.
2014:Generated_Source\PSoC4/CapSense_CSD.c ****     *
2015:Generated_Source\PSoC4/CapSense_CSD.c ****     * Parameters:
2016:Generated_Source\PSoC4/CapSense_CSD.c ****     *  sensor:  Sensor index.
2017:Generated_Source\PSoC4/CapSense_CSD.c ****     *  compIdacValue: represents the compensation IDAC data register value.
2018:Generated_Source\PSoC4/CapSense_CSD.c ****     *
2019:Generated_Source\PSoC4/CapSense_CSD.c ****     * Return:
2020:Generated_Source\PSoC4/CapSense_CSD.c ****     *  None.
2021:Generated_Source\PSoC4/CapSense_CSD.c ****     *
2022:Generated_Source\PSoC4/CapSense_CSD.c ****     * Global Variables:
2023:Generated_Source\PSoC4/CapSense_CSD.c ****     *  CapSense_CSD_compensationIDAC[] - an array with compensation IDAC values
2024:Generated_Source\PSoC4/CapSense_CSD.c ****     *
2025:Generated_Source\PSoC4/CapSense_CSD.c ****     * Side Effects:
2026:Generated_Source\PSoC4/CapSense_CSD.c ****     *  None
2027:Generated_Source\PSoC4/CapSense_CSD.c ****     *
2028:Generated_Source\PSoC4/CapSense_CSD.c ****     *******************************************************************************/
2029:Generated_Source\PSoC4/CapSense_CSD.c ****     void CapSense_CSD_SetCompensationIDAC(uint32 sensor, uint32 compIdacValue)
2030:Generated_Source\PSoC4/CapSense_CSD.c ****     {
 1771              		.loc 1 2030 0
 1772              		.cfi_startproc
 1773              		@ args = 0, pretend = 0, frame = 0
 1774              		@ frame_needed = 0, uses_anonymous_args = 0
 1775              		@ link register save eliminated.
 1776              	.LVL204:
2031:Generated_Source\PSoC4/CapSense_CSD.c ****         CapSense_CSD_compensationIDAC[sensor] = (uint8)compIdacValue;
 1777              		.loc 1 2031 0
 1778 0000 014B     		ldr	r3, .L120
 1779 0002 1954     		strb	r1, [r3, r0]
2032:Generated_Source\PSoC4/CapSense_CSD.c ****     }
 1780              		.loc 1 2032 0
 1781              		@ sp needed
 1782 0004 7047     		bx	lr
 1783              	.L121:
 1784 0006 C046     		.align	2
 1785              	.L120:
 1786 0008 00000000 		.word	CapSense_CSD_compensationIDAC
 1787              		.cfi_endproc
 1788              	.LFE66:
 1789              		.size	CapSense_CSD_SetCompensationIDAC, .-CapSense_CSD_SetCompensationIDAC
 1790              		.section	.text.CapSense_CSD_GetIDACRange,"ax",%progbits
 1791              		.align	2
 1792              		.global	CapSense_CSD_GetIDACRange
 1793              		.code	16
 1794              		.thumb_func
 1795              		.type	CapSense_CSD_GetIDACRange, %function
 1796              	CapSense_CSD_GetIDACRange:
ARM GAS  C:\Users\ZTIPRI~1\AppData\Local\Temp\ccBGTz86.s 			page 70


 1797              	.LFB67:
2033:Generated_Source\PSoC4/CapSense_CSD.c **** #endif /* ((CapSense_CSD_TUNING_METHOD != CapSense_CSD__TUNING_NONE) && (CapSense_CSD_IDAC_CNT > 1u
2034:Generated_Source\PSoC4/CapSense_CSD.c **** 
2035:Generated_Source\PSoC4/CapSense_CSD.c **** /*******************************************************************************
2036:Generated_Source\PSoC4/CapSense_CSD.c **** * Function Name: CapSense_CSD_GetIDACRange
2037:Generated_Source\PSoC4/CapSense_CSD.c **** ********************************************************************************
2038:Generated_Source\PSoC4/CapSense_CSD.c **** *
2039:Generated_Source\PSoC4/CapSense_CSD.c **** * Summary:
2040:Generated_Source\PSoC4/CapSense_CSD.c **** *  This API returns a value that indicates the IDAC range used by the
2041:Generated_Source\PSoC4/CapSense_CSD.c **** *  component to scan sensors. The IDAC range is common for all the sensors.
2042:Generated_Source\PSoC4/CapSense_CSD.c **** *
2043:Generated_Source\PSoC4/CapSense_CSD.c **** * Parameters:
2044:Generated_Source\PSoC4/CapSense_CSD.c **** *  None
2045:Generated_Source\PSoC4/CapSense_CSD.c **** *
2046:Generated_Source\PSoC4/CapSense_CSD.c **** * Return:
2047:Generated_Source\PSoC4/CapSense_CSD.c **** *  This API Returns a value that indicates the IDAC range:
2048:Generated_Source\PSoC4/CapSense_CSD.c **** *      0 - IDAC range set to 4x
2049:Generated_Source\PSoC4/CapSense_CSD.c **** *      1 - IDAC range set to 8x
2050:Generated_Source\PSoC4/CapSense_CSD.c **** *
2051:Generated_Source\PSoC4/CapSense_CSD.c **** * Global Variables:
2052:Generated_Source\PSoC4/CapSense_CSD.c **** *  None
2053:Generated_Source\PSoC4/CapSense_CSD.c **** *
2054:Generated_Source\PSoC4/CapSense_CSD.c **** * Side Effects:
2055:Generated_Source\PSoC4/CapSense_CSD.c **** *  None
2056:Generated_Source\PSoC4/CapSense_CSD.c **** *
2057:Generated_Source\PSoC4/CapSense_CSD.c **** *******************************************************************************/
2058:Generated_Source\PSoC4/CapSense_CSD.c **** uint32 CapSense_CSD_GetIDACRange(void)
2059:Generated_Source\PSoC4/CapSense_CSD.c **** {
 1798              		.loc 1 2059 0
 1799              		.cfi_startproc
 1800              		@ args = 0, pretend = 0, frame = 0
 1801              		@ frame_needed = 0, uses_anonymous_args = 0
 1802              		@ link register save eliminated.
2060:Generated_Source\PSoC4/CapSense_CSD.c ****     return((0u != (CapSense_CSD_CSD_IDAC_REG & CapSense_CSD_CSD_IDAC1_RANGE_8X)) ? 1uL : 0uL);
 1803              		.loc 1 2060 0
 1804 0000 034B     		ldr	r3, .L124
 1805 0002 1868     		ldr	r0, [r3]
 1806 0004 8023     		movs	r3, #128
 1807 0006 DB00     		lsls	r3, r3, #3
 1808 0008 1840     		ands	r0, r3
 1809 000a 00D0     		beq	.L123
 1810 000c 0120     		movs	r0, #1
 1811              	.L123:
2061:Generated_Source\PSoC4/CapSense_CSD.c **** }
 1812              		.loc 1 2061 0 discriminator 4
 1813              		@ sp needed
 1814 000e 7047     		bx	lr
 1815              	.L125:
 1816              		.align	2
 1817              	.L124:
 1818 0010 08000840 		.word	1074266120
 1819              		.cfi_endproc
 1820              	.LFE67:
 1821              		.size	CapSense_CSD_GetIDACRange, .-CapSense_CSD_GetIDACRange
 1822              		.section	.text.CapSense_CSD_SetIDACRange,"ax",%progbits
 1823              		.align	2
 1824              		.global	CapSense_CSD_SetIDACRange
ARM GAS  C:\Users\ZTIPRI~1\AppData\Local\Temp\ccBGTz86.s 			page 71


 1825              		.code	16
 1826              		.thumb_func
 1827              		.type	CapSense_CSD_SetIDACRange, %function
 1828              	CapSense_CSD_SetIDACRange:
 1829              	.LFB68:
2062:Generated_Source\PSoC4/CapSense_CSD.c **** 
2063:Generated_Source\PSoC4/CapSense_CSD.c **** #if (CapSense_CSD_TUNING_METHOD != CapSense_CSD__TUNING_NONE)
2064:Generated_Source\PSoC4/CapSense_CSD.c ****     /*******************************************************************************
2065:Generated_Source\PSoC4/CapSense_CSD.c ****     * Function Name: CapSense_CSD_SetIDACRange
2066:Generated_Source\PSoC4/CapSense_CSD.c ****     ********************************************************************************
2067:Generated_Source\PSoC4/CapSense_CSD.c ****     *
2068:Generated_Source\PSoC4/CapSense_CSD.c ****     * Summary:
2069:Generated_Source\PSoC4/CapSense_CSD.c ****     *  This API sets the IDAC range to the 4x (1.2uA/bit) or 8x (2.4uA/bit) mode.
2070:Generated_Source\PSoC4/CapSense_CSD.c ****     *  The IDAC range is common for all the sensors and common for the modulation and
2071:Generated_Source\PSoC4/CapSense_CSD.c ****     *  compensation IDACs.
2072:Generated_Source\PSoC4/CapSense_CSD.c ****     *
2073:Generated_Source\PSoC4/CapSense_CSD.c ****     * Parameters:
2074:Generated_Source\PSoC4/CapSense_CSD.c ****     *  iDacRange:  represents value for IDAC range
2075:Generated_Source\PSoC4/CapSense_CSD.c ****     *  0 -  IDAC range set to 4x (1.2uA/bit)
2076:Generated_Source\PSoC4/CapSense_CSD.c ****     *  1 or >1 - IDAC range set to 8x (2.4uA/bit)
2077:Generated_Source\PSoC4/CapSense_CSD.c ****     *
2078:Generated_Source\PSoC4/CapSense_CSD.c ****     * Return:
2079:Generated_Source\PSoC4/CapSense_CSD.c ****     *  None.
2080:Generated_Source\PSoC4/CapSense_CSD.c ****     *
2081:Generated_Source\PSoC4/CapSense_CSD.c ****     * Global Variables:
2082:Generated_Source\PSoC4/CapSense_CSD.c ****     *  None
2083:Generated_Source\PSoC4/CapSense_CSD.c ****     *
2084:Generated_Source\PSoC4/CapSense_CSD.c ****     * Side Effects:
2085:Generated_Source\PSoC4/CapSense_CSD.c ****     *  None
2086:Generated_Source\PSoC4/CapSense_CSD.c ****     *
2087:Generated_Source\PSoC4/CapSense_CSD.c ****     *******************************************************************************/
2088:Generated_Source\PSoC4/CapSense_CSD.c ****     void CapSense_CSD_SetIDACRange(uint32 iDacRange)
2089:Generated_Source\PSoC4/CapSense_CSD.c ****     {
 1830              		.loc 1 2089 0
 1831              		.cfi_startproc
 1832              		@ args = 0, pretend = 0, frame = 0
 1833              		@ frame_needed = 0, uses_anonymous_args = 0
 1834              		@ link register save eliminated.
 1835              	.LVL205:
2090:Generated_Source\PSoC4/CapSense_CSD.c ****         if(iDacRange != 0u)
 1836              		.loc 1 2090 0
 1837 0000 0028     		cmp	r0, #0
 1838 0002 05D0     		beq	.L127
2091:Generated_Source\PSoC4/CapSense_CSD.c ****         {
2092:Generated_Source\PSoC4/CapSense_CSD.c ****             /*  IDAC range = 8x (2.4uA/bit) */
2093:Generated_Source\PSoC4/CapSense_CSD.c ****             CapSense_CSD_CSD_IDAC_REG |= (CapSense_CSD_CSD_IDAC1_RANGE_8X |\
 1839              		.loc 1 2093 0
 1840 0004 054A     		ldr	r2, .L129
 1841 0006 1368     		ldr	r3, [r2]
 1842 0008 0549     		ldr	r1, .L129+4
 1843 000a 0B43     		orrs	r3, r1
 1844 000c 1360     		str	r3, [r2]
 1845 000e 04E0     		b	.L126
 1846              	.L127:
2094:Generated_Source\PSoC4/CapSense_CSD.c ****                                               CapSense_CSD_CSD_IDAC2_RANGE_8X);
2095:Generated_Source\PSoC4/CapSense_CSD.c ****         }
2096:Generated_Source\PSoC4/CapSense_CSD.c ****         else
ARM GAS  C:\Users\ZTIPRI~1\AppData\Local\Temp\ccBGTz86.s 			page 72


2097:Generated_Source\PSoC4/CapSense_CSD.c ****         {
2098:Generated_Source\PSoC4/CapSense_CSD.c ****             /*  IDAC range = 4x (1.2uA/bit) */
2099:Generated_Source\PSoC4/CapSense_CSD.c ****             /*  IDAC range = 8x (2.4uA/bit) */
2100:Generated_Source\PSoC4/CapSense_CSD.c ****             CapSense_CSD_CSD_IDAC_REG &= ~(CapSense_CSD_CSD_IDAC1_RANGE_8X |\
 1847              		.loc 1 2100 0
 1848 0010 024A     		ldr	r2, .L129
 1849 0012 1168     		ldr	r1, [r2]
 1850 0014 034B     		ldr	r3, .L129+8
 1851 0016 0B40     		ands	r3, r1
 1852 0018 1360     		str	r3, [r2]
 1853              	.L126:
2101:Generated_Source\PSoC4/CapSense_CSD.c ****                                                CapSense_CSD_CSD_IDAC2_RANGE_8X);
2102:Generated_Source\PSoC4/CapSense_CSD.c ****         }
2103:Generated_Source\PSoC4/CapSense_CSD.c ****     }
 1854              		.loc 1 2103 0
 1855              		@ sp needed
 1856 001a 7047     		bx	lr
 1857              	.L130:
 1858              		.align	2
 1859              	.L129:
 1860 001c 08000840 		.word	1074266120
 1861 0020 00040004 		.word	67109888
 1862 0024 FFFBFFFB 		.word	-67109889
 1863              		.cfi_endproc
 1864              	.LFE68:
 1865              		.size	CapSense_CSD_SetIDACRange, .-CapSense_CSD_SetIDACRange
 1866              		.section	.text.CapSense_CSD_GetSensorRaw,"ax",%progbits
 1867              		.align	2
 1868              		.global	CapSense_CSD_GetSensorRaw
 1869              		.code	16
 1870              		.thumb_func
 1871              		.type	CapSense_CSD_GetSensorRaw, %function
 1872              	CapSense_CSD_GetSensorRaw:
 1873              	.LFB69:
2104:Generated_Source\PSoC4/CapSense_CSD.c **** #endif /* (CapSense_CSD_TUNING_METHOD != CapSense_CSD__TUNING_NONE) */
2105:Generated_Source\PSoC4/CapSense_CSD.c **** 
2106:Generated_Source\PSoC4/CapSense_CSD.c **** 
2107:Generated_Source\PSoC4/CapSense_CSD.c **** #if((0u != CapSense_CSD_AUTOCALIBRATION_ENABLE) || (CapSense_CSD_TUNING_METHOD == CapSense_CSD__TUN
2108:Generated_Source\PSoC4/CapSense_CSD.c ****     /*******************************************************************************
2109:Generated_Source\PSoC4/CapSense_CSD.c ****     * Function Name: CapSense_CSD_GetSensorRaw
2110:Generated_Source\PSoC4/CapSense_CSD.c ****     ********************************************************************************
2111:Generated_Source\PSoC4/CapSense_CSD.c ****     *
2112:Generated_Source\PSoC4/CapSense_CSD.c ****     * Summary:
2113:Generated_Source\PSoC4/CapSense_CSD.c ****     *  The API updates and gets uprated raw data from the sensor.
2114:Generated_Source\PSoC4/CapSense_CSD.c ****     *
2115:Generated_Source\PSoC4/CapSense_CSD.c ****     * Parameters:
2116:Generated_Source\PSoC4/CapSense_CSD.c ****     *  sensor - Sensor number.
2117:Generated_Source\PSoC4/CapSense_CSD.c ****     *
2118:Generated_Source\PSoC4/CapSense_CSD.c ****     * Return:
2119:Generated_Source\PSoC4/CapSense_CSD.c ****     *  Returns the current raw data value for a defined sensor number.
2120:Generated_Source\PSoC4/CapSense_CSD.c ****     *
2121:Generated_Source\PSoC4/CapSense_CSD.c ****     * Global Variables:
2122:Generated_Source\PSoC4/CapSense_CSD.c ****     *  None
2123:Generated_Source\PSoC4/CapSense_CSD.c ****     *
2124:Generated_Source\PSoC4/CapSense_CSD.c ****     * Side Effects:
2125:Generated_Source\PSoC4/CapSense_CSD.c ****     *  None
2126:Generated_Source\PSoC4/CapSense_CSD.c ****     *
ARM GAS  C:\Users\ZTIPRI~1\AppData\Local\Temp\ccBGTz86.s 			page 73


2127:Generated_Source\PSoC4/CapSense_CSD.c ****     *******************************************************************************/
2128:Generated_Source\PSoC4/CapSense_CSD.c ****     uint16  CapSense_CSD_GetSensorRaw(uint32 sensor)
2129:Generated_Source\PSoC4/CapSense_CSD.c ****     {
 1874              		.loc 1 2129 0
 1875              		.cfi_startproc
 1876              		@ args = 0, pretend = 0, frame = 0
 1877              		@ frame_needed = 0, uses_anonymous_args = 0
 1878              	.LVL206:
 1879 0000 70B5     		push	{r4, r5, r6, lr}
 1880              		.cfi_def_cfa_offset 16
 1881              		.cfi_offset 4, -16
 1882              		.cfi_offset 5, -12
 1883              		.cfi_offset 6, -8
 1884              		.cfi_offset 14, -4
 1885 0002 0600     		movs	r6, r0
 1886              	.LVL207:
2130:Generated_Source\PSoC4/CapSense_CSD.c ****         uint32 curSample;
2131:Generated_Source\PSoC4/CapSense_CSD.c ****         uint32 avgVal = 0u;
 1887              		.loc 1 2131 0
 1888 0004 0024     		movs	r4, #0
2132:Generated_Source\PSoC4/CapSense_CSD.c **** 
2133:Generated_Source\PSoC4/CapSense_CSD.c ****         for(curSample = 0u; curSample < CapSense_CSD_AVG_SAMPLES_NUM; curSample++)
 1889              		.loc 1 2133 0
 1890 0006 0025     		movs	r5, #0
 1891 0008 0BE0     		b	.L132
 1892              	.LVL208:
 1893              	.L134:
2134:Generated_Source\PSoC4/CapSense_CSD.c ****         {
2135:Generated_Source\PSoC4/CapSense_CSD.c **** 
2136:Generated_Source\PSoC4/CapSense_CSD.c ****             CapSense_CSD_ScanSensor((uint32)sensor);
 1894              		.loc 1 2136 0
 1895 000a 3000     		movs	r0, r6
 1896 000c FFF7FEFF 		bl	CapSense_CSD_ScanSensor
 1897              	.LVL209:
 1898              	.L133:
2137:Generated_Source\PSoC4/CapSense_CSD.c ****             while(CapSense_CSD_IsBusy() == 1u)
 1899              		.loc 1 2137 0 discriminator 1
 1900 0010 FFF7FEFF 		bl	CapSense_CSD_IsBusy
 1901              	.LVL210:
 1902 0014 0128     		cmp	r0, #1
 1903 0016 FBD0     		beq	.L133
2138:Generated_Source\PSoC4/CapSense_CSD.c ****             {
2139:Generated_Source\PSoC4/CapSense_CSD.c ****                 /* Wait while sensor is busy */
2140:Generated_Source\PSoC4/CapSense_CSD.c ****             }
2141:Generated_Source\PSoC4/CapSense_CSD.c ****             avgVal += CapSense_CSD_ReadSensorRaw((uint32)sensor);
 1904              		.loc 1 2141 0 discriminator 2
 1905 0018 3000     		movs	r0, r6
 1906 001a FFF7FEFF 		bl	CapSense_CSD_ReadSensorRaw
 1907              	.LVL211:
 1908 001e 2418     		adds	r4, r4, r0
 1909              	.LVL212:
2133:Generated_Source\PSoC4/CapSense_CSD.c ****         {
 1910              		.loc 1 2133 0 discriminator 2
 1911 0020 0135     		adds	r5, r5, #1
 1912              	.LVL213:
 1913              	.L132:
2133:Generated_Source\PSoC4/CapSense_CSD.c ****         {
ARM GAS  C:\Users\ZTIPRI~1\AppData\Local\Temp\ccBGTz86.s 			page 74


 1914              		.loc 1 2133 0 is_stmt 0 discriminator 1
 1915 0022 002D     		cmp	r5, #0
 1916 0024 F1D0     		beq	.L134
2142:Generated_Source\PSoC4/CapSense_CSD.c ****         }
2143:Generated_Source\PSoC4/CapSense_CSD.c **** 
2144:Generated_Source\PSoC4/CapSense_CSD.c ****         return((uint16)(avgVal / CapSense_CSD_AVG_SAMPLES_NUM));
 1917              		.loc 1 2144 0 is_stmt 1
 1918 0026 A0B2     		uxth	r0, r4
2145:Generated_Source\PSoC4/CapSense_CSD.c ****     }
 1919              		.loc 1 2145 0
 1920              		@ sp needed
 1921              	.LVL214:
 1922              	.LVL215:
 1923              	.LVL216:
 1924 0028 70BD     		pop	{r4, r5, r6, pc}
 1925              		.cfi_endproc
 1926              	.LFE69:
 1927              		.size	CapSense_CSD_GetSensorRaw, .-CapSense_CSD_GetSensorRaw
 1928 002a C046     		.section	.text.CapSense_CSD_SetUnscannedSensorState,"ax",%progbits
 1929              		.align	2
 1930              		.global	CapSense_CSD_SetUnscannedSensorState
 1931              		.code	16
 1932              		.thumb_func
 1933              		.type	CapSense_CSD_SetUnscannedSensorState, %function
 1934              	CapSense_CSD_SetUnscannedSensorState:
 1935              	.LFB70:
2146:Generated_Source\PSoC4/CapSense_CSD.c **** #endif /* ((0u != CapSense_CSD_AUTOCALIBRATION_ENABLE) && (CapSense_CSD_TUNING_METHOD == CapSense_C
2147:Generated_Source\PSoC4/CapSense_CSD.c **** 
2148:Generated_Source\PSoC4/CapSense_CSD.c **** 
2149:Generated_Source\PSoC4/CapSense_CSD.c **** #if((0u != CapSense_CSD_AUTOCALIBRATION_ENABLE) && (CapSense_CSD_TUNING_METHOD != CapSense_CSD__TUN
2150:Generated_Source\PSoC4/CapSense_CSD.c ****     /*******************************************************************************
2151:Generated_Source\PSoC4/CapSense_CSD.c ****     * Function Name: CapSense_CSD_CalibrateSensor
2152:Generated_Source\PSoC4/CapSense_CSD.c ****     ********************************************************************************
2153:Generated_Source\PSoC4/CapSense_CSD.c ****     *
2154:Generated_Source\PSoC4/CapSense_CSD.c ****     * Summary:
2155:Generated_Source\PSoC4/CapSense_CSD.c ****     *  Computes the one sensor IDAC value, which provides the raw signal on
2156:Generated_Source\PSoC4/CapSense_CSD.c ****     *  a specified level, with a specified prescaler, speed, and resolution.
2157:Generated_Source\PSoC4/CapSense_CSD.c ****     *
2158:Generated_Source\PSoC4/CapSense_CSD.c ****     * Parameters:
2159:Generated_Source\PSoC4/CapSense_CSD.c ****     *  sensor - Sensor Number.
2160:Generated_Source\PSoC4/CapSense_CSD.c ****     *
2161:Generated_Source\PSoC4/CapSense_CSD.c ****     *  rawLevel -  Raw data level which should be reached during the calibration
2162:Generated_Source\PSoC4/CapSense_CSD.c ****     *              procedure.
2163:Generated_Source\PSoC4/CapSense_CSD.c ****     *
2164:Generated_Source\PSoC4/CapSense_CSD.c ****     *  idacLevelsTbl - Pointer to the modulatorIdac data register configuration table.
2165:Generated_Source\PSoC4/CapSense_CSD.c ****     *
2166:Generated_Source\PSoC4/CapSense_CSD.c ****     * Return:
2167:Generated_Source\PSoC4/CapSense_CSD.c ****     *  None
2168:Generated_Source\PSoC4/CapSense_CSD.c ****     *
2169:Generated_Source\PSoC4/CapSense_CSD.c ****     *******************************************************************************/
2170:Generated_Source\PSoC4/CapSense_CSD.c ****     void CapSense_CSD_CalibrateSensor(uint32 sensor, uint32 rawLevel, uint8 idacLevelsTbl[])
2171:Generated_Source\PSoC4/CapSense_CSD.c ****     {
2172:Generated_Source\PSoC4/CapSense_CSD.c ****         uint8 mask;
2173:Generated_Source\PSoC4/CapSense_CSD.c ****         uint16 rawData;
2174:Generated_Source\PSoC4/CapSense_CSD.c **** 
2175:Generated_Source\PSoC4/CapSense_CSD.c ****         rawData = 0u;
2176:Generated_Source\PSoC4/CapSense_CSD.c **** 
ARM GAS  C:\Users\ZTIPRI~1\AppData\Local\Temp\ccBGTz86.s 			page 75


2177:Generated_Source\PSoC4/CapSense_CSD.c ****         mask = 0x80u;
2178:Generated_Source\PSoC4/CapSense_CSD.c ****         /* Init IDAC for null Channel */
2179:Generated_Source\PSoC4/CapSense_CSD.c ****         idacLevelsTbl[sensor] = 0x00u;
2180:Generated_Source\PSoC4/CapSense_CSD.c **** 
2181:Generated_Source\PSoC4/CapSense_CSD.c ****         do
2182:Generated_Source\PSoC4/CapSense_CSD.c ****         {
2183:Generated_Source\PSoC4/CapSense_CSD.c ****             /* Set bit for null Channel */
2184:Generated_Source\PSoC4/CapSense_CSD.c ****             idacLevelsTbl[sensor] |= mask;
2185:Generated_Source\PSoC4/CapSense_CSD.c **** 
2186:Generated_Source\PSoC4/CapSense_CSD.c ****             /* Scan null Channel and get Rawdata */
2187:Generated_Source\PSoC4/CapSense_CSD.c ****             rawData = CapSense_CSD_GetSensorRaw(sensor);
2188:Generated_Source\PSoC4/CapSense_CSD.c **** 
2189:Generated_Source\PSoC4/CapSense_CSD.c ****             /* Decrease IDAC until Rawdata reaches rawLevel */
2190:Generated_Source\PSoC4/CapSense_CSD.c ****             if(rawData < rawLevel)
2191:Generated_Source\PSoC4/CapSense_CSD.c ****             {
2192:Generated_Source\PSoC4/CapSense_CSD.c ****                 /* Reset bit for null Channel  */
2193:Generated_Source\PSoC4/CapSense_CSD.c ****                 idacLevelsTbl[sensor] &= (uint8)~mask;
2194:Generated_Source\PSoC4/CapSense_CSD.c ****             }
2195:Generated_Source\PSoC4/CapSense_CSD.c **** 
2196:Generated_Source\PSoC4/CapSense_CSD.c ****             mask >>= 1u;
2197:Generated_Source\PSoC4/CapSense_CSD.c ****         }
2198:Generated_Source\PSoC4/CapSense_CSD.c ****         while(mask > 0u);
2199:Generated_Source\PSoC4/CapSense_CSD.c **** 
2200:Generated_Source\PSoC4/CapSense_CSD.c ****     }
2201:Generated_Source\PSoC4/CapSense_CSD.c **** #endif /* ((0u != CapSense_CSD_AUTOCALIBRATION_ENABLE) && (CapSense_CSD_TUNING_METHOD != CapSense_C
2202:Generated_Source\PSoC4/CapSense_CSD.c **** 
2203:Generated_Source\PSoC4/CapSense_CSD.c **** 
2204:Generated_Source\PSoC4/CapSense_CSD.c **** /*******************************************************************************
2205:Generated_Source\PSoC4/CapSense_CSD.c **** * Function Name: CapSense_CSD_SetUnscannedSensorState
2206:Generated_Source\PSoC4/CapSense_CSD.c **** ********************************************************************************
2207:Generated_Source\PSoC4/CapSense_CSD.c **** *
2208:Generated_Source\PSoC4/CapSense_CSD.c **** * Summary:
2209:Generated_Source\PSoC4/CapSense_CSD.c **** *  This API sets a state for un-scanned sensors.
2210:Generated_Source\PSoC4/CapSense_CSD.c **** *  It is possible to set the state to Ground, High-Z, or the shield electrode.
2211:Generated_Source\PSoC4/CapSense_CSD.c **** *  The un-scanned sensor can be connected to a shield electrode only if the shield is
2212:Generated_Source\PSoC4/CapSense_CSD.c **** *  enabled. If the shield is disabled and this API is called with the parameter which
2213:Generated_Source\PSoC4/CapSense_CSD.c **** *  indicates the shield state, the un-scanned sensor will be connected to Ground.
2214:Generated_Source\PSoC4/CapSense_CSD.c **** *
2215:Generated_Source\PSoC4/CapSense_CSD.c **** * Parameters:
2216:Generated_Source\PSoC4/CapSense_CSD.c **** *  sensor - Sensor Number.
2217:Generated_Source\PSoC4/CapSense_CSD.c **** *  sensorState: This parameter indicates un-scanned sensor state:
2218:Generated_Source\PSoC4/CapSense_CSD.c **** *
2219:Generated_Source\PSoC4/CapSense_CSD.c **** *     CapSense_CSD__GROUND 0
2220:Generated_Source\PSoC4/CapSense_CSD.c **** *     CapSense_CSD__HIZ_ANALOG 1
2221:Generated_Source\PSoC4/CapSense_CSD.c **** *     CapSense_CSD__SHIELD 2
2222:Generated_Source\PSoC4/CapSense_CSD.c **** *
2223:Generated_Source\PSoC4/CapSense_CSD.c **** * Return:
2224:Generated_Source\PSoC4/CapSense_CSD.c **** *  None.
2225:Generated_Source\PSoC4/CapSense_CSD.c **** *
2226:Generated_Source\PSoC4/CapSense_CSD.c **** * Global Variables:
2227:Generated_Source\PSoC4/CapSense_CSD.c **** *  CapSense_CSD_unscannedSnsDriveMode[] - used to store the state for
2228:Generated_Source\PSoC4/CapSense_CSD.c **** *  un-scanned sensors.
2229:Generated_Source\PSoC4/CapSense_CSD.c **** *
2230:Generated_Source\PSoC4/CapSense_CSD.c **** * Side Effects:
2231:Generated_Source\PSoC4/CapSense_CSD.c **** *  None
2232:Generated_Source\PSoC4/CapSense_CSD.c **** *
2233:Generated_Source\PSoC4/CapSense_CSD.c **** *******************************************************************************/
ARM GAS  C:\Users\ZTIPRI~1\AppData\Local\Temp\ccBGTz86.s 			page 76


2234:Generated_Source\PSoC4/CapSense_CSD.c **** void CapSense_CSD_SetUnscannedSensorState(uint32 sensor, uint32 sensorState)
2235:Generated_Source\PSoC4/CapSense_CSD.c **** {
 1936              		.loc 1 2235 0
 1937              		.cfi_startproc
 1938              		@ args = 0, pretend = 0, frame = 0
 1939              		@ frame_needed = 0, uses_anonymous_args = 0
 1940              		@ link register save eliminated.
 1941              	.LVL217:
2236:Generated_Source\PSoC4/CapSense_CSD.c ****     #if(CapSense_CSD_IS_COMPLEX_SCANSLOTS)
2237:Generated_Source\PSoC4/CapSense_CSD.c ****         uint8 snsType;
2238:Generated_Source\PSoC4/CapSense_CSD.c ****         uint8 curSensor;
2239:Generated_Source\PSoC4/CapSense_CSD.c ****         uint16 snsNumber;
2240:Generated_Source\PSoC4/CapSense_CSD.c **** 
2241:Generated_Source\PSoC4/CapSense_CSD.c ****         /* Read sensor type: single or complex */
2242:Generated_Source\PSoC4/CapSense_CSD.c ****         snsType = CapSense_CSD_portTable[sensor];
2243:Generated_Source\PSoC4/CapSense_CSD.c **** 
2244:Generated_Source\PSoC4/CapSense_CSD.c ****         /* Check if sensor is complex */
2245:Generated_Source\PSoC4/CapSense_CSD.c ****         if(0u != (snsType & CapSense_CSD_COMPLEX_SS_FLAG))
2246:Generated_Source\PSoC4/CapSense_CSD.c ****         {
2247:Generated_Source\PSoC4/CapSense_CSD.c ****             snsType &= (uint8)~CapSense_CSD_COMPLEX_SS_FLAG;
2248:Generated_Source\PSoC4/CapSense_CSD.c ****             snsNumber = (uint16)CapSense_CSD_maskTable[sensor];
2249:Generated_Source\PSoC4/CapSense_CSD.c **** 
2250:Generated_Source\PSoC4/CapSense_CSD.c ****             for (curSensor=0u; curSensor < snsNumber; curSensor++)
2251:Generated_Source\PSoC4/CapSense_CSD.c ****             {
2252:Generated_Source\PSoC4/CapSense_CSD.c ****                 sensor = CapSense_CSD_indexTable[snsType + curSensor];
2253:Generated_Source\PSoC4/CapSense_CSD.c ****                 CapSense_CSD_unscannedSnsDriveMode[sensor] = (uint8)sensorState;
2254:Generated_Source\PSoC4/CapSense_CSD.c ****             }
2255:Generated_Source\PSoC4/CapSense_CSD.c ****         }
2256:Generated_Source\PSoC4/CapSense_CSD.c ****         else
2257:Generated_Source\PSoC4/CapSense_CSD.c ****         {
2258:Generated_Source\PSoC4/CapSense_CSD.c ****             CapSense_CSD_unscannedSnsDriveMode[sensor] = (uint8)sensorState;
2259:Generated_Source\PSoC4/CapSense_CSD.c ****         }
2260:Generated_Source\PSoC4/CapSense_CSD.c ****     #else
2261:Generated_Source\PSoC4/CapSense_CSD.c ****         CapSense_CSD_unscannedSnsDriveMode[sensor] = (uint8)sensorState;
 1942              		.loc 1 2261 0
 1943 0000 014B     		ldr	r3, .L136
 1944 0002 1954     		strb	r1, [r3, r0]
2262:Generated_Source\PSoC4/CapSense_CSD.c ****     #endif /* (CapSense_CSD_IS_COMPLEX_SCANSLOTS) */
2263:Generated_Source\PSoC4/CapSense_CSD.c **** }
 1945              		.loc 1 2263 0
 1946              		@ sp needed
 1947 0004 7047     		bx	lr
 1948              	.L137:
 1949 0006 C046     		.align	2
 1950              	.L136:
 1951 0008 00000000 		.word	CapSense_CSD_unscannedSnsDriveMode
 1952              		.cfi_endproc
 1953              	.LFE70:
 1954              		.size	CapSense_CSD_SetUnscannedSensorState, .-CapSense_CSD_SetUnscannedSensorState
 1955              		.section	.text.CapSense_CSD_Init,"ax",%progbits
 1956              		.align	2
 1957              		.global	CapSense_CSD_Init
 1958              		.code	16
 1959              		.thumb_func
 1960              		.type	CapSense_CSD_Init, %function
 1961              	CapSense_CSD_Init:
 1962              	.LFB32:
ARM GAS  C:\Users\ZTIPRI~1\AppData\Local\Temp\ccBGTz86.s 			page 77


 170:Generated_Source\PSoC4/CapSense_CSD.c ****     uint32 curSensor;
 1963              		.loc 1 170 0
 1964              		.cfi_startproc
 1965              		@ args = 0, pretend = 0, frame = 0
 1966              		@ frame_needed = 0, uses_anonymous_args = 0
 1967 0000 10B5     		push	{r4, lr}
 1968              		.cfi_def_cfa_offset 8
 1969              		.cfi_offset 4, -8
 1970              		.cfi_offset 14, -4
 1971              	.LVL218:
 201:Generated_Source\PSoC4/CapSense_CSD.c ****     {
 1972              		.loc 1 201 0
 1973 0002 0024     		movs	r4, #0
 1974 0004 04E0     		b	.L139
 1975              	.LVL219:
 1976              	.L140:
 203:Generated_Source\PSoC4/CapSense_CSD.c ****     }
 1977              		.loc 1 203 0 discriminator 3
 1978 0006 0021     		movs	r1, #0
 1979 0008 2000     		movs	r0, r4
 1980 000a FFF7FEFF 		bl	CapSense_CSD_SetUnscannedSensorState
 1981              	.LVL220:
 201:Generated_Source\PSoC4/CapSense_CSD.c ****     {
 1982              		.loc 1 201 0 discriminator 3
 1983 000e 0134     		adds	r4, r4, #1
 1984              	.LVL221:
 1985              	.L139:
 201:Generated_Source\PSoC4/CapSense_CSD.c ****     {
 1986              		.loc 1 201 0 is_stmt 0 discriminator 1
 1987 0010 042C     		cmp	r4, #4
 1988 0012 F8D9     		bls	.L140
 206:Generated_Source\PSoC4/CapSense_CSD.c ****     CapSense_CSD_SetShieldDelay(CapSense_CSD_SHIELD_DELAY );
 1989              		.loc 1 206 0 is_stmt 1
 1990 0014 FFF7FEFF 		bl	CapSense_CSD_CsdHwBlockInit
 1991              	.LVL222:
 207:Generated_Source\PSoC4/CapSense_CSD.c **** 
 1992              		.loc 1 207 0
 1993 0018 0020     		movs	r0, #0
 1994 001a FFF7FEFF 		bl	CapSense_CSD_SetShieldDelay
 1995              	.LVL223:
 210:Generated_Source\PSoC4/CapSense_CSD.c **** }
 1996              		.loc 1 210 0
 1997 001e FFF7FEFF 		bl	CapSense_CSD_ClearSensors
 1998              	.LVL224:
 211:Generated_Source\PSoC4/CapSense_CSD.c **** 
 1999              		.loc 1 211 0
 2000              		@ sp needed
 2001              	.LVL225:
 2002 0022 10BD     		pop	{r4, pc}
 2003              		.cfi_endproc
 2004              	.LFE32:
 2005              		.size	CapSense_CSD_Init, .-CapSense_CSD_Init
 2006              		.section	.text.CapSense_CSD_Start,"ax",%progbits
 2007              		.align	2
 2008              		.global	CapSense_CSD_Start
 2009              		.code	16
 2010              		.thumb_func
ARM GAS  C:\Users\ZTIPRI~1\AppData\Local\Temp\ccBGTz86.s 			page 78


 2011              		.type	CapSense_CSD_Start, %function
 2012              	CapSense_CSD_Start:
 2013              	.LFB35:
 379:Generated_Source\PSoC4/CapSense_CSD.c **** 
 2014              		.loc 1 379 0
 2015              		.cfi_startproc
 2016              		@ args = 0, pretend = 0, frame = 0
 2017              		@ frame_needed = 0, uses_anonymous_args = 0
 2018 0000 10B5     		push	{r4, lr}
 2019              		.cfi_def_cfa_offset 8
 2020              		.cfi_offset 4, -8
 2021              		.cfi_offset 14, -4
 389:Generated_Source\PSoC4/CapSense_CSD.c ****     {
 2022              		.loc 1 389 0
 2023 0002 0B4B     		ldr	r3, .L143
 2024 0004 DB7B     		ldrb	r3, [r3, #15]
 2025 0006 002B     		cmp	r3, #0
 2026 0008 04D1     		bne	.L142
 391:Generated_Source\PSoC4/CapSense_CSD.c ****         CapSense_CSD_initVar = 1u;
 2027              		.loc 1 391 0
 2028 000a FFF7FEFF 		bl	CapSense_CSD_Init
 2029              	.LVL226:
 392:Generated_Source\PSoC4/CapSense_CSD.c ****     }
 2030              		.loc 1 392 0
 2031 000e 0122     		movs	r2, #1
 2032 0010 074B     		ldr	r3, .L143
 2033 0012 DA73     		strb	r2, [r3, #15]
 2034              	.L142:
 394:Generated_Source\PSoC4/CapSense_CSD.c **** 
 2035              		.loc 1 394 0
 2036 0014 FFF7FEFF 		bl	CapSense_CSD_Enable
 2037              	.LVL227:
 399:Generated_Source\PSoC4/CapSense_CSD.c ****             CapSense_CSD_lowLevelTuningDone = 1u;
 2038              		.loc 1 399 0
 2039 0018 FFF7FEFF 		bl	CapSense_CSD_AutoTune
 2040              	.LVL228:
 400:Generated_Source\PSoC4/CapSense_CSD.c ****         #endif /* (0u != CapSense_CSD_CSHL_API_GENERATE) */
 2041              		.loc 1 400 0
 2042 001c 0122     		movs	r2, #1
 2043 001e 044B     		ldr	r3, .L143
 2044 0020 1A74     		strb	r2, [r3, #16]
 443:Generated_Source\PSoC4/CapSense_CSD.c **** }
 2045              		.loc 1 443 0
 2046 0022 044A     		ldr	r2, .L143+4
 2047 0024 1368     		ldr	r3, [r2]
 2048 0026 8021     		movs	r1, #128
 2049 0028 C903     		lsls	r1, r1, #15
 2050 002a 0B43     		orrs	r3, r1
 2051 002c 1360     		str	r3, [r2]
 444:Generated_Source\PSoC4/CapSense_CSD.c **** 
 2052              		.loc 1 444 0
 2053              		@ sp needed
 2054 002e 10BD     		pop	{r4, pc}
 2055              	.L144:
 2056              		.align	2
 2057              	.L143:
 2058 0030 00000000 		.word	.LANCHOR0
ARM GAS  C:\Users\ZTIPRI~1\AppData\Local\Temp\ccBGTz86.s 			page 79


 2059 0034 04000840 		.word	1074266116
 2060              		.cfi_endproc
 2061              	.LFE35:
 2062              		.size	CapSense_CSD_Start, .-CapSense_CSD_Start
 2063              		.global	CapSense_CSD_prtDRTbl
 2064              		.global	CapSense_CSD_prtCfgTbl
 2065              		.global	CapSense_CSD_prtSelTbl
 2066              		.global	CapSense_CSD_widgetNumber
 2067              		.comm	CapSense_CSD_sampleClkDividerVal,5,4
 2068              		.comm	CapSense_CSD_senseClkDividerVal,5,4
 2069              		.global	CapSense_CSD_widgetResolution
 2070              		.comm	CapSense_CSD_compensationIDAC,5,4
 2071              		.comm	CapSense_CSD_modulationIDAC,5,4
 2072              		.global	CapSense_CSD_pinShiftTbl
 2073              		.global	CapSense_CSD_maskTable
 2074              		.global	CapSense_CSD_portTable
 2075              		.global	CapSense_CSD_pcTable
 2076              		.global	CapSense_CSD_sensorEnableMask
 2077              		.comm	CapSense_CSD_sensorEnableMaskBackup,1,4
 2078              		.comm	CapSense_CSD_unscannedSnsDriveMode,5,4
 2079              		.comm	CapSense_CSD_csdTrim1,1,1
 2080              		.global	CapSense_CSD_sensorRaw
 2081              		.global	CapSense_CSD_sensorIndex
 2082              		.global	CapSense_CSD_csdStatusVar
 2083              		.comm	CapSense_CSD_scanSpeedTbl,1,4
 2084              		.global	CapSense_CSD_lowLevelTuningDone
 2085              		.section	.rodata
 2086              		.align	2
 2087              		.set	.LANCHOR2,. + 0
 2088              		.type	CapSense_CSD_portTable, %object
 2089              		.size	CapSense_CSD_portTable, 5
 2090              	CapSense_CSD_portTable:
 2091 0000 02       		.byte	2
 2092 0001 02       		.byte	2
 2093 0002 02       		.byte	2
 2094 0003 02       		.byte	2
 2095 0004 02       		.byte	2
 2096 0005 000000   		.space	3
 2097              		.type	CapSense_CSD_pinShiftTbl, %object
 2098              		.size	CapSense_CSD_pinShiftTbl, 5
 2099              	CapSense_CSD_pinShiftTbl:
 2100 0008 00       		.byte	0
 2101 0009 01       		.byte	1
 2102 000a 02       		.byte	2
 2103 000b 03       		.byte	3
 2104 000c 04       		.byte	4
 2105 000d 000000   		.space	3
 2106              		.type	CapSense_CSD_prtSelTbl, %object
 2107              		.size	CapSense_CSD_prtSelTbl, 20
 2108              	CapSense_CSD_prtSelTbl:
 2109 0010 00000140 		.word	1073807360
 2110 0014 04000140 		.word	1073807364
 2111 0018 08000140 		.word	1073807368
 2112 001c 0C000140 		.word	1073807372
 2113 0020 10000140 		.word	1073807376
 2114              		.type	CapSense_CSD_prtCfgTbl, %object
 2115              		.size	CapSense_CSD_prtCfgTbl, 20
ARM GAS  C:\Users\ZTIPRI~1\AppData\Local\Temp\ccBGTz86.s 			page 80


 2116              	CapSense_CSD_prtCfgTbl:
 2117 0024 08000440 		.word	1074003976
 2118 0028 08010440 		.word	1074004232
 2119 002c 08020440 		.word	1074004488
 2120 0030 08030440 		.word	1074004744
 2121 0034 08040440 		.word	1074005000
 2122              		.type	CapSense_CSD_prtDRTbl, %object
 2123              		.size	CapSense_CSD_prtDRTbl, 20
 2124              	CapSense_CSD_prtDRTbl:
 2125 0038 00000440 		.word	1074003968
 2126 003c 00010440 		.word	1074004224
 2127 0040 00020440 		.word	1074004480
 2128 0044 00030440 		.word	1074004736
 2129 0048 00040440 		.word	1074004992
 2130              		.type	CapSense_CSD_widgetNumber, %object
 2131              		.size	CapSense_CSD_widgetNumber, 5
 2132              	CapSense_CSD_widgetNumber:
 2133 004c 00       		.byte	0
 2134 004d 01       		.byte	1
 2135 004e 02       		.byte	2
 2136 004f 03       		.byte	3
 2137 0050 04       		.byte	4
 2138 0051 000000   		.space	3
 2139              		.type	CapSense_CSD_maskTable, %object
 2140              		.size	CapSense_CSD_maskTable, 20
 2141              	CapSense_CSD_maskTable:
 2142 0054 01000000 		.word	1
 2143 0058 02000000 		.word	2
 2144 005c 04000000 		.word	4
 2145 0060 08000000 		.word	8
 2146 0064 10000000 		.word	16
 2147              		.data
 2148              		.align	2
 2149              		.set	.LANCHOR1,. + 0
 2150              		.type	CapSense_CSD_widgetResolution, %object
 2151              		.size	CapSense_CSD_widgetResolution, 20
 2152              	CapSense_CSD_widgetResolution:
 2153 0000 0000FF0F 		.word	268369920
 2154 0004 0000FF0F 		.word	268369920
 2155 0008 0000FF0F 		.word	268369920
 2156 000c 0000FF0F 		.word	268369920
 2157 0010 0000FF0F 		.word	268369920
 2158              		.type	CapSense_CSD_sensorEnableMask, %object
 2159              		.size	CapSense_CSD_sensorEnableMask, 1
 2160              	CapSense_CSD_sensorEnableMask:
 2161 0014 1F       		.byte	31
 2162 0015 000000   		.space	3
 2163              		.type	CapSense_CSD_pcTable, %object
 2164              		.size	CapSense_CSD_pcTable, 20
 2165              	CapSense_CSD_pcTable:
 2166 0018 08020440 		.word	1074004488
 2167 001c 08020440 		.word	1074004488
 2168 0020 08020440 		.word	1074004488
 2169 0024 08020440 		.word	1074004488
 2170 0028 08020440 		.word	1074004488
 2171              		.bss
 2172              		.align	2
ARM GAS  C:\Users\ZTIPRI~1\AppData\Local\Temp\ccBGTz86.s 			page 81


 2173              		.set	.LANCHOR0,. + 0
 2174              		.type	CapSense_CSD_csdStatusVar, %object
 2175              		.size	CapSense_CSD_csdStatusVar, 1
 2176              	CapSense_CSD_csdStatusVar:
 2177 0000 00       		.space	1
 2178 0001 000000   		.space	3
 2179              		.type	CapSense_CSD_sensorRaw, %object
 2180              		.size	CapSense_CSD_sensorRaw, 10
 2181              	CapSense_CSD_sensorRaw:
 2182 0004 00000000 		.space	10
 2182      00000000 
 2182      0000
 2183              		.type	CapSense_CSD_sensorIndex, %object
 2184              		.size	CapSense_CSD_sensorIndex, 1
 2185              	CapSense_CSD_sensorIndex:
 2186 000e 00       		.space	1
 2187              		.type	CapSense_CSD_initVar.5384, %object
 2188              		.size	CapSense_CSD_initVar.5384, 1
 2189              	CapSense_CSD_initVar.5384:
 2190 000f 00       		.space	1
 2191              		.type	CapSense_CSD_lowLevelTuningDone, %object
 2192              		.size	CapSense_CSD_lowLevelTuningDone, 1
 2193              	CapSense_CSD_lowLevelTuningDone:
 2194 0010 00       		.space	1
 2195              		.text
 2196              	.Letext0:
 2197              		.file 2 "Generated_Source\\PSoC4\\cytypes.h"
 2198              		.file 3 "Generated_Source\\PSoC4\\CapSense_CSD_CSHL.h"
 2199              		.file 4 "Generated_Source\\PSoC4\\CyLib.h"
 2200              		.file 5 "Generated_Source\\PSoC4\\CapSense_CSD_SenseClk.h"
 2201              		.file 6 "Generated_Source\\PSoC4\\CapSense_CSD_SampleClk.h"
 2202              		.file 7 "Generated_Source\\PSoC4\\CapSense_CSD.h"
 2203              		.section	.debug_info,"",%progbits
 2204              	.Ldebug_info0:
 2205 0000 EB0F0000 		.4byte	0xfeb
 2206 0004 0400     		.2byte	0x4
 2207 0006 00000000 		.4byte	.Ldebug_abbrev0
 2208 000a 04       		.byte	0x4
 2209 000b 01       		.uleb128 0x1
 2210 000c 97020000 		.4byte	.LASF133
 2211 0010 0C       		.byte	0xc
 2212 0011 F2080000 		.4byte	.LASF134
 2213 0015 2B080000 		.4byte	.LASF135
 2214 0019 00000000 		.4byte	.Ldebug_ranges0+0
 2215 001d 00000000 		.4byte	0
 2216 0021 00000000 		.4byte	.Ldebug_line0
 2217 0025 02       		.uleb128 0x2
 2218 0026 01       		.byte	0x1
 2219 0027 06       		.byte	0x6
 2220 0028 760A0000 		.4byte	.LASF0
 2221 002c 02       		.uleb128 0x2
 2222 002d 01       		.byte	0x1
 2223 002e 08       		.byte	0x8
 2224 002f 84090000 		.4byte	.LASF1
 2225 0033 02       		.uleb128 0x2
 2226 0034 02       		.byte	0x2
 2227 0035 05       		.byte	0x5
ARM GAS  C:\Users\ZTIPRI~1\AppData\Local\Temp\ccBGTz86.s 			page 82


 2228 0036 EB060000 		.4byte	.LASF2
 2229 003a 02       		.uleb128 0x2
 2230 003b 02       		.byte	0x2
 2231 003c 07       		.byte	0x7
 2232 003d 820A0000 		.4byte	.LASF3
 2233 0041 02       		.uleb128 0x2
 2234 0042 04       		.byte	0x4
 2235 0043 05       		.byte	0x5
 2236 0044 13070000 		.4byte	.LASF4
 2237 0048 02       		.uleb128 0x2
 2238 0049 04       		.byte	0x4
 2239 004a 07       		.byte	0x7
 2240 004b C6080000 		.4byte	.LASF5
 2241 004f 02       		.uleb128 0x2
 2242 0050 08       		.byte	0x8
 2243 0051 05       		.byte	0x5
 2244 0052 52050000 		.4byte	.LASF6
 2245 0056 02       		.uleb128 0x2
 2246 0057 08       		.byte	0x8
 2247 0058 07       		.byte	0x7
 2248 0059 53020000 		.4byte	.LASF7
 2249 005d 03       		.uleb128 0x3
 2250 005e 04       		.byte	0x4
 2251 005f 05       		.byte	0x5
 2252 0060 696E7400 		.ascii	"int\000"
 2253 0064 02       		.uleb128 0x2
 2254 0065 04       		.byte	0x4
 2255 0066 07       		.byte	0x7
 2256 0067 A7000000 		.4byte	.LASF8
 2257 006b 04       		.uleb128 0x4
 2258 006c FB0A0000 		.4byte	.LASF9
 2259 0070 02       		.byte	0x2
 2260 0071 D201     		.2byte	0x1d2
 2261 0073 2C000000 		.4byte	0x2c
 2262 0077 04       		.uleb128 0x4
 2263 0078 24050000 		.4byte	.LASF10
 2264 007c 02       		.byte	0x2
 2265 007d D301     		.2byte	0x1d3
 2266 007f 3A000000 		.4byte	0x3a
 2267 0083 04       		.uleb128 0x4
 2268 0084 02060000 		.4byte	.LASF11
 2269 0088 02       		.byte	0x2
 2270 0089 D401     		.2byte	0x1d4
 2271 008b 48000000 		.4byte	0x48
 2272 008f 02       		.uleb128 0x2
 2273 0090 04       		.byte	0x4
 2274 0091 04       		.byte	0x4
 2275 0092 3B020000 		.4byte	.LASF12
 2276 0096 02       		.uleb128 0x2
 2277 0097 08       		.byte	0x8
 2278 0098 04       		.byte	0x4
 2279 0099 010B0000 		.4byte	.LASF13
 2280 009d 02       		.uleb128 0x2
 2281 009e 01       		.byte	0x1
 2282 009f 08       		.byte	0x8
 2283 00a0 B2040000 		.4byte	.LASF14
 2284 00a4 04       		.uleb128 0x4
ARM GAS  C:\Users\ZTIPRI~1\AppData\Local\Temp\ccBGTz86.s 			page 83


 2285 00a5 32010000 		.4byte	.LASF15
 2286 00a9 02       		.byte	0x2
 2287 00aa 7C02     		.2byte	0x27c
 2288 00ac B0000000 		.4byte	0xb0
 2289 00b0 05       		.uleb128 0x5
 2290 00b1 6B000000 		.4byte	0x6b
 2291 00b5 04       		.uleb128 0x4
 2292 00b6 98060000 		.4byte	.LASF16
 2293 00ba 02       		.byte	0x2
 2294 00bb 7E02     		.2byte	0x27e
 2295 00bd C1000000 		.4byte	0xc1
 2296 00c1 05       		.uleb128 0x5
 2297 00c2 83000000 		.4byte	0x83
 2298 00c6 02       		.uleb128 0x2
 2299 00c7 04       		.byte	0x4
 2300 00c8 07       		.byte	0x7
 2301 00c9 BD080000 		.4byte	.LASF17
 2302 00cd 02       		.uleb128 0x2
 2303 00ce 08       		.byte	0x8
 2304 00cf 04       		.byte	0x4
 2305 00d0 81060000 		.4byte	.LASF18
 2306 00d4 06       		.uleb128 0x6
 2307 00d5 04       		.byte	0x4
 2308 00d6 6B000000 		.4byte	0x6b
 2309 00da 06       		.uleb128 0x6
 2310 00db 04       		.byte	0x4
 2311 00dc E0000000 		.4byte	0xe0
 2312 00e0 07       		.uleb128 0x7
 2313 00e1 6B000000 		.4byte	0x6b
 2314 00e5 08       		.uleb128 0x8
 2315 00e6 92090000 		.4byte	.LASF19
 2316 00ea 01       		.byte	0x1
 2317 00eb EA       		.byte	0xea
 2318 00ec 00000000 		.4byte	.LFB33
 2319 00f0 84000000 		.4byte	.LFE33-.LFB33
 2320 00f4 01       		.uleb128 0x1
 2321 00f5 9C       		.byte	0x9c
 2322 00f6 47010000 		.4byte	0x147
 2323 00fa 09       		.uleb128 0x9
 2324 00fb CE0A0000 		.4byte	.LASF21
 2325 00ff 01       		.byte	0x1
 2326 0100 EC       		.byte	0xec
 2327 0101 83000000 		.4byte	0x83
 2328 0105 00000000 		.4byte	.LLST0
 2329 0109 0A       		.uleb128 0xa
 2330 010a 4A000000 		.4byte	.LVL11
 2331 010e 530F0000 		.4byte	0xf53
 2332 0112 1D010000 		.4byte	0x11d
 2333 0116 0B       		.uleb128 0xb
 2334 0117 01       		.uleb128 0x1
 2335 0118 50       		.byte	0x50
 2336 0119 02       		.uleb128 0x2
 2337 011a 74       		.byte	0x74
 2338 011b 00       		.sleb128 0
 2339 011c 00       		.byte	0
 2340 011d 0A       		.uleb128 0xa
 2341 011e 52000000 		.4byte	.LVL12
ARM GAS  C:\Users\ZTIPRI~1\AppData\Local\Temp\ccBGTz86.s 			page 84


 2342 0122 5E0F0000 		.4byte	0xf5e
 2343 0126 31010000 		.4byte	0x131
 2344 012a 0B       		.uleb128 0xb
 2345 012b 01       		.uleb128 0x1
 2346 012c 50       		.byte	0x50
 2347 012d 02       		.uleb128 0x2
 2348 012e 74       		.byte	0x74
 2349 012f 00       		.sleb128 0
 2350 0130 00       		.byte	0
 2351 0131 0C       		.uleb128 0xc
 2352 0132 5A000000 		.4byte	.LVL13
 2353 0136 690F0000 		.4byte	0xf69
 2354 013a 0B       		.uleb128 0xb
 2355 013b 01       		.uleb128 0x1
 2356 013c 50       		.byte	0x50
 2357 013d 02       		.uleb128 0x2
 2358 013e 74       		.byte	0x74
 2359 013f 00       		.sleb128 0
 2360 0140 0B       		.uleb128 0xb
 2361 0141 01       		.uleb128 0x1
 2362 0142 51       		.byte	0x51
 2363 0143 01       		.uleb128 0x1
 2364 0144 33       		.byte	0x33
 2365 0145 00       		.byte	0
 2366 0146 00       		.byte	0
 2367 0147 0D       		.uleb128 0xd
 2368 0148 850B0000 		.4byte	.LASF20
 2369 014c 01       		.byte	0x1
 2370 014d 3F01     		.2byte	0x13f
 2371 014f 00000000 		.4byte	.LFB34
 2372 0153 3C000000 		.4byte	.LFE34-.LFB34
 2373 0157 01       		.uleb128 0x1
 2374 0158 9C       		.byte	0x9c
 2375 0159 D1010000 		.4byte	0x1d1
 2376 015d 0E       		.uleb128 0xe
 2377 015e CE0A0000 		.4byte	.LASF21
 2378 0162 01       		.byte	0x1
 2379 0163 4101     		.2byte	0x141
 2380 0165 83000000 		.4byte	0x83
 2381 0169 4B000000 		.4byte	.LLST1
 2382 016d 0F       		.uleb128 0xf
 2383 016e 06000000 		.4byte	.LVL14
 2384 0172 740F0000 		.4byte	0xf74
 2385 0176 0F       		.uleb128 0xf
 2386 0177 0A000000 		.4byte	.LVL15
 2387 017b 7F0F0000 		.4byte	0xf7f
 2388 017f 0A       		.uleb128 0xa
 2389 0180 12000000 		.4byte	.LVL16
 2390 0184 8A0F0000 		.4byte	0xf8a
 2391 0188 97010000 		.4byte	0x197
 2392 018c 0B       		.uleb128 0xb
 2393 018d 01       		.uleb128 0x1
 2394 018e 50       		.byte	0x50
 2395 018f 01       		.uleb128 0x1
 2396 0190 30       		.byte	0x30
 2397 0191 0B       		.uleb128 0xb
 2398 0192 01       		.uleb128 0x1
ARM GAS  C:\Users\ZTIPRI~1\AppData\Local\Temp\ccBGTz86.s 			page 85


 2399 0193 51       		.byte	0x51
 2400 0194 01       		.uleb128 0x1
 2401 0195 30       		.byte	0x30
 2402 0196 00       		.byte	0
 2403 0197 0A       		.uleb128 0xa
 2404 0198 1A000000 		.4byte	.LVL17
 2405 019c 950F0000 		.4byte	0xf95
 2406 01a0 AF010000 		.4byte	0x1af
 2407 01a4 0B       		.uleb128 0xb
 2408 01a5 01       		.uleb128 0x1
 2409 01a6 50       		.byte	0x50
 2410 01a7 01       		.uleb128 0x1
 2411 01a8 30       		.byte	0x30
 2412 01a9 0B       		.uleb128 0xb
 2413 01aa 01       		.uleb128 0x1
 2414 01ab 51       		.byte	0x51
 2415 01ac 01       		.uleb128 0x1
 2416 01ad 30       		.byte	0x30
 2417 01ae 00       		.byte	0
 2418 01af 0F       		.uleb128 0xf
 2419 01b0 1E000000 		.4byte	.LVL18
 2420 01b4 A00F0000 		.4byte	0xfa0
 2421 01b8 0F       		.uleb128 0xf
 2422 01b9 22000000 		.4byte	.LVL19
 2423 01bd AB0F0000 		.4byte	0xfab
 2424 01c1 0C       		.uleb128 0xc
 2425 01c2 32000000 		.4byte	.LVL22
 2426 01c6 B60F0000 		.4byte	0xfb6
 2427 01ca 0B       		.uleb128 0xb
 2428 01cb 01       		.uleb128 0x1
 2429 01cc 50       		.byte	0x50
 2430 01cd 01       		.uleb128 0x1
 2431 01ce 3F       		.byte	0x3f
 2432 01cf 00       		.byte	0
 2433 01d0 00       		.byte	0
 2434 01d1 0D       		.uleb128 0xd
 2435 01d2 41020000 		.4byte	.LASF22
 2436 01d6 01       		.byte	0x1
 2437 01d7 D601     		.2byte	0x1d6
 2438 01d9 00000000 		.4byte	.LFB36
 2439 01dd 2C000000 		.4byte	.LFE36-.LFB36
 2440 01e1 01       		.uleb128 0x1
 2441 01e2 9C       		.byte	0x9c
 2442 01e3 0D020000 		.4byte	0x20d
 2443 01e7 0A       		.uleb128 0xa
 2444 01e8 08000000 		.4byte	.LVL23
 2445 01ec 530F0000 		.4byte	0xf53
 2446 01f0 FA010000 		.4byte	0x1fa
 2447 01f4 0B       		.uleb128 0xb
 2448 01f5 01       		.uleb128 0x1
 2449 01f6 50       		.byte	0x50
 2450 01f7 01       		.uleb128 0x1
 2451 01f8 3F       		.byte	0x3f
 2452 01f9 00       		.byte	0
 2453 01fa 0F       		.uleb128 0xf
 2454 01fb 1E000000 		.4byte	.LVL24
 2455 01ff 740F0000 		.4byte	0xf74
ARM GAS  C:\Users\ZTIPRI~1\AppData\Local\Temp\ccBGTz86.s 			page 86


 2456 0203 0F       		.uleb128 0xf
 2457 0204 22000000 		.4byte	.LVL25
 2458 0208 7F0F0000 		.4byte	0xf7f
 2459 020c 00       		.byte	0
 2460 020d 10       		.uleb128 0x10
 2461 020e 70090000 		.4byte	.LASF54
 2462 0212 01       		.byte	0x1
 2463 0213 D102     		.2byte	0x2d1
 2464 0215 83000000 		.4byte	0x83
 2465 0219 00000000 		.4byte	.LFB41
 2466 021d 10000000 		.4byte	.LFE41-.LFB41
 2467 0221 01       		.uleb128 0x1
 2468 0222 9C       		.byte	0x9c
 2469 0223 11       		.uleb128 0x11
 2470 0224 A1030000 		.4byte	.LASF29
 2471 0228 01       		.byte	0x1
 2472 0229 EF02     		.2byte	0x2ef
 2473 022b 77000000 		.4byte	0x77
 2474 022f 00000000 		.4byte	.LFB42
 2475 0233 10000000 		.4byte	.LFE42-.LFB42
 2476 0237 01       		.uleb128 0x1
 2477 0238 9C       		.byte	0x9c
 2478 0239 4E020000 		.4byte	0x24e
 2479 023d 12       		.uleb128 0x12
 2480 023e 77040000 		.4byte	.LASF24
 2481 0242 01       		.byte	0x1
 2482 0243 EF02     		.2byte	0x2ef
 2483 0245 83000000 		.4byte	0x83
 2484 0249 5E000000 		.4byte	.LLST2
 2485 024d 00       		.byte	0
 2486 024e 0D       		.uleb128 0xd
 2487 024f 290B0000 		.4byte	.LASF23
 2488 0253 01       		.byte	0x1
 2489 0254 0A03     		.2byte	0x30a
 2490 0256 00000000 		.4byte	.LFB43
 2491 025a 10000000 		.4byte	.LFE43-.LFB43
 2492 025e 01       		.uleb128 0x1
 2493 025f 9C       		.byte	0x9c
 2494 0260 83020000 		.4byte	0x283
 2495 0264 12       		.uleb128 0x12
 2496 0265 77040000 		.4byte	.LASF24
 2497 0269 01       		.byte	0x1
 2498 026a 0A03     		.2byte	0x30a
 2499 026c 83000000 		.4byte	0x83
 2500 0270 7F000000 		.4byte	.LLST3
 2501 0274 13       		.uleb128 0x13
 2502 0275 91020000 		.4byte	.LASF25
 2503 0279 01       		.byte	0x1
 2504 027a 0A03     		.2byte	0x30a
 2505 027c 77000000 		.4byte	0x77
 2506 0280 01       		.uleb128 0x1
 2507 0281 51       		.byte	0x51
 2508 0282 00       		.byte	0
 2509 0283 0D       		.uleb128 0xd
 2510 0284 59030000 		.4byte	.LASF26
 2511 0288 01       		.byte	0x1
 2512 0289 3403     		.2byte	0x334
ARM GAS  C:\Users\ZTIPRI~1\AppData\Local\Temp\ccBGTz86.s 			page 87


 2513 028b 00000000 		.4byte	.LFB44
 2514 028f 0C000000 		.4byte	.LFE44-.LFB44
 2515 0293 01       		.uleb128 0x1
 2516 0294 9C       		.byte	0x9c
 2517 0295 B8020000 		.4byte	0x2b8
 2518 0299 12       		.uleb128 0x12
 2519 029a 6A020000 		.4byte	.LASF27
 2520 029e 01       		.byte	0x1
 2521 029f 3403     		.2byte	0x334
 2522 02a1 83000000 		.4byte	0x83
 2523 02a5 A0000000 		.4byte	.LLST4
 2524 02a9 13       		.uleb128 0x13
 2525 02aa 3A050000 		.4byte	.LASF28
 2526 02ae 01       		.byte	0x1
 2527 02af 3403     		.2byte	0x334
 2528 02b1 83000000 		.4byte	0x83
 2529 02b5 01       		.uleb128 0x1
 2530 02b6 51       		.byte	0x51
 2531 02b7 00       		.byte	0
 2532 02b8 11       		.uleb128 0x11
 2533 02b9 0D040000 		.4byte	.LASF30
 2534 02bd 01       		.byte	0x1
 2535 02be 5D03     		.2byte	0x35d
 2536 02c0 83000000 		.4byte	0x83
 2537 02c4 00000000 		.4byte	.LFB45
 2538 02c8 0C000000 		.4byte	.LFE45-.LFB45
 2539 02cc 01       		.uleb128 0x1
 2540 02cd 9C       		.byte	0x9c
 2541 02ce E3020000 		.4byte	0x2e3
 2542 02d2 12       		.uleb128 0x12
 2543 02d3 6A020000 		.4byte	.LASF27
 2544 02d7 01       		.byte	0x1
 2545 02d8 5D03     		.2byte	0x35d
 2546 02da 83000000 		.4byte	0x83
 2547 02de C1000000 		.4byte	.LLST5
 2548 02e2 00       		.byte	0
 2549 02e3 0D       		.uleb128 0xd
 2550 02e4 620B0000 		.4byte	.LASF31
 2551 02e8 01       		.byte	0x1
 2552 02e9 1604     		.2byte	0x416
 2553 02eb 00000000 		.4byte	.LFB47
 2554 02ef 48000000 		.4byte	.LFE47-.LFB47
 2555 02f3 01       		.uleb128 0x1
 2556 02f4 9C       		.byte	0x9c
 2557 02f5 6C030000 		.4byte	0x36c
 2558 02f9 12       		.uleb128 0x12
 2559 02fa 77040000 		.4byte	.LASF24
 2560 02fe 01       		.byte	0x1
 2561 02ff 1604     		.2byte	0x416
 2562 0301 83000000 		.4byte	0x83
 2563 0305 E2000000 		.4byte	.LLST6
 2564 0309 0E       		.uleb128 0xe
 2565 030a D4010000 		.4byte	.LASF32
 2566 030e 01       		.byte	0x1
 2567 030f 1804     		.2byte	0x418
 2568 0311 6B000000 		.4byte	0x6b
 2569 0315 03010000 		.4byte	.LLST7
ARM GAS  C:\Users\ZTIPRI~1\AppData\Local\Temp\ccBGTz86.s 			page 88


 2570 0319 0E       		.uleb128 0xe
 2571 031a 51010000 		.4byte	.LASF33
 2572 031e 01       		.byte	0x1
 2573 031f 1904     		.2byte	0x419
 2574 0321 6B000000 		.4byte	0x6b
 2575 0325 68010000 		.4byte	.LLST8
 2576 0329 0E       		.uleb128 0xe
 2577 032a 23010000 		.4byte	.LASF34
 2578 032e 01       		.byte	0x1
 2579 032f 1A04     		.2byte	0x41a
 2580 0331 6B000000 		.4byte	0x6b
 2581 0335 AA010000 		.4byte	.LLST9
 2582 0339 0E       		.uleb128 0xe
 2583 033a 48030000 		.4byte	.LASF35
 2584 033e 01       		.byte	0x1
 2585 033f 1B04     		.2byte	0x41b
 2586 0341 83000000 		.4byte	0x83
 2587 0345 BD010000 		.4byte	.LLST10
 2588 0349 0E       		.uleb128 0xe
 2589 034a 18090000 		.4byte	.LASF36
 2590 034e 01       		.byte	0x1
 2591 034f 1C04     		.2byte	0x41c
 2592 0351 83000000 		.4byte	0x83
 2593 0355 E6010000 		.4byte	.LLST11
 2594 0359 0F       		.uleb128 0xf
 2595 035a 18000000 		.4byte	.LVL39
 2596 035e C10F0000 		.4byte	0xfc1
 2597 0362 0F       		.uleb128 0xf
 2598 0363 40000000 		.4byte	.LVL46
 2599 0367 CC0F0000 		.4byte	0xfcc
 2600 036b 00       		.byte	0
 2601 036c 0D       		.uleb128 0xd
 2602 036d D0060000 		.4byte	.LASF37
 2603 0371 01       		.byte	0x1
 2604 0372 4B04     		.2byte	0x44b
 2605 0374 00000000 		.4byte	.LFB48
 2606 0378 70000000 		.4byte	.LFE48-.LFB48
 2607 037c 01       		.uleb128 0x1
 2608 037d 9C       		.byte	0x9c
 2609 037e 15040000 		.4byte	0x415
 2610 0382 12       		.uleb128 0x12
 2611 0383 77040000 		.4byte	.LASF24
 2612 0387 01       		.byte	0x1
 2613 0388 4B04     		.2byte	0x44b
 2614 038a 83000000 		.4byte	0x83
 2615 038e 28020000 		.4byte	.LLST12
 2616 0392 0E       		.uleb128 0xe
 2617 0393 23010000 		.4byte	.LASF34
 2618 0397 01       		.byte	0x1
 2619 0398 4D04     		.2byte	0x44d
 2620 039a 6B000000 		.4byte	0x6b
 2621 039e 49020000 		.4byte	.LLST13
 2622 03a2 0E       		.uleb128 0xe
 2623 03a3 48030000 		.4byte	.LASF35
 2624 03a7 01       		.byte	0x1
 2625 03a8 4E04     		.2byte	0x44e
 2626 03aa 83000000 		.4byte	0x83
ARM GAS  C:\Users\ZTIPRI~1\AppData\Local\Temp\ccBGTz86.s 			page 89


 2627 03ae 5C020000 		.4byte	.LLST14
 2628 03b2 0E       		.uleb128 0xe
 2629 03b3 18090000 		.4byte	.LASF36
 2630 03b7 01       		.byte	0x1
 2631 03b8 5004     		.2byte	0x450
 2632 03ba 83000000 		.4byte	0x83
 2633 03be 85020000 		.4byte	.LLST15
 2634 03c2 0E       		.uleb128 0xe
 2635 03c3 51010000 		.4byte	.LASF33
 2636 03c7 01       		.byte	0x1
 2637 03c8 5104     		.2byte	0x451
 2638 03ca 6B000000 		.4byte	0x6b
 2639 03ce E0020000 		.4byte	.LLST16
 2640 03d2 0E       		.uleb128 0xe
 2641 03d3 D4010000 		.4byte	.LASF32
 2642 03d7 01       		.byte	0x1
 2643 03d8 5204     		.2byte	0x452
 2644 03da 6B000000 		.4byte	0x6b
 2645 03de 1A030000 		.4byte	.LLST17
 2646 03e2 0E       		.uleb128 0xe
 2647 03e3 F8010000 		.4byte	.LASF38
 2648 03e7 01       		.byte	0x1
 2649 03e8 5404     		.2byte	0x454
 2650 03ea 83000000 		.4byte	0x83
 2651 03ee 69030000 		.4byte	.LLST18
 2652 03f2 0E       		.uleb128 0xe
 2653 03f3 78030000 		.4byte	.LASF39
 2654 03f7 01       		.byte	0x1
 2655 03f8 5504     		.2byte	0x455
 2656 03fa 83000000 		.4byte	0x83
 2657 03fe 88030000 		.4byte	.LLST19
 2658 0402 0F       		.uleb128 0xf
 2659 0403 3C000000 		.4byte	.LVL56
 2660 0407 C10F0000 		.4byte	0xfc1
 2661 040b 0F       		.uleb128 0xf
 2662 040c 5A000000 		.4byte	.LVL63
 2663 0410 CC0F0000 		.4byte	0xfcc
 2664 0414 00       		.byte	0
 2665 0415 0D       		.uleb128 0xd
 2666 0416 11080000 		.4byte	.LASF40
 2667 041a 01       		.byte	0x1
 2668 041b 7803     		.2byte	0x378
 2669 041d 00000000 		.4byte	.LFB46
 2670 0421 14000000 		.4byte	.LFE46-.LFB46
 2671 0425 01       		.uleb128 0x1
 2672 0426 9C       		.byte	0x9c
 2673 0427 4C040000 		.4byte	0x44c
 2674 042b 0E       		.uleb128 0xe
 2675 042c 60060000 		.4byte	.LASF41
 2676 0430 01       		.byte	0x1
 2677 0431 7A03     		.2byte	0x37a
 2678 0433 83000000 		.4byte	0x83
 2679 0437 9B030000 		.4byte	.LLST20
 2680 043b 0C       		.uleb128 0xc
 2681 043c 0C000000 		.4byte	.LVL69
 2682 0440 6C030000 		.4byte	0x36c
 2683 0444 0B       		.uleb128 0xb
ARM GAS  C:\Users\ZTIPRI~1\AppData\Local\Temp\ccBGTz86.s 			page 90


 2684 0445 01       		.uleb128 0x1
 2685 0446 50       		.byte	0x50
 2686 0447 02       		.uleb128 0x2
 2687 0448 74       		.byte	0x74
 2688 0449 00       		.sleb128 0
 2689 044a 00       		.byte	0
 2690 044b 00       		.byte	0
 2691 044c 0D       		.uleb128 0xd
 2692 044d 60070000 		.4byte	.LASF42
 2693 0451 01       		.byte	0x1
 2694 0452 1505     		.2byte	0x515
 2695 0454 00000000 		.4byte	.LFB51
 2696 0458 24000000 		.4byte	.LFE51-.LFB51
 2697 045c 01       		.uleb128 0x1
 2698 045d 9C       		.byte	0x9c
 2699 045e B1040000 		.4byte	0x4b1
 2700 0462 12       		.uleb128 0x12
 2701 0463 580B0000 		.4byte	.LASF43
 2702 0467 01       		.byte	0x1
 2703 0468 1505     		.2byte	0x515
 2704 046a 83000000 		.4byte	0x83
 2705 046e BA030000 		.4byte	.LLST21
 2706 0472 12       		.uleb128 0x12
 2707 0473 56060000 		.4byte	.LASF44
 2708 0477 01       		.byte	0x1
 2709 0478 1505     		.2byte	0x515
 2710 047a 83000000 		.4byte	0x83
 2711 047e DB030000 		.4byte	.LLST22
 2712 0482 12       		.uleb128 0x12
 2713 0483 9E060000 		.4byte	.LASF45
 2714 0487 01       		.byte	0x1
 2715 0488 1505     		.2byte	0x515
 2716 048a 83000000 		.4byte	0x83
 2717 048e FC030000 		.4byte	.LLST23
 2718 0492 14       		.uleb128 0x14
 2719 0493 D4010000 		.4byte	.LASF32
 2720 0497 01       		.byte	0x1
 2721 0498 1705     		.2byte	0x517
 2722 049a 83000000 		.4byte	0x83
 2723 049e 01       		.uleb128 0x1
 2724 049f 51       		.byte	0x51
 2725 04a0 0E       		.uleb128 0xe
 2726 04a1 48030000 		.4byte	.LASF35
 2727 04a5 01       		.byte	0x1
 2728 04a6 1805     		.2byte	0x518
 2729 04a8 83000000 		.4byte	0x83
 2730 04ac 1D040000 		.4byte	.LLST24
 2731 04b0 00       		.byte	0
 2732 04b1 0D       		.uleb128 0xd
 2733 04b2 DA0A0000 		.4byte	.LASF46
 2734 04b6 01       		.byte	0x1
 2735 04b7 9804     		.2byte	0x498
 2736 04b9 00000000 		.4byte	.LFB49
 2737 04bd 30000000 		.4byte	.LFE49-.LFB49
 2738 04c1 01       		.uleb128 0x1
 2739 04c2 9C       		.byte	0x9c
 2740 04c3 58050000 		.4byte	0x558
ARM GAS  C:\Users\ZTIPRI~1\AppData\Local\Temp\ccBGTz86.s 			page 91


 2741 04c7 12       		.uleb128 0x12
 2742 04c8 580B0000 		.4byte	.LASF43
 2743 04cc 01       		.byte	0x1
 2744 04cd 9804     		.2byte	0x498
 2745 04cf 83000000 		.4byte	0x83
 2746 04d3 3B040000 		.4byte	.LLST25
 2747 04d7 0E       		.uleb128 0xe
 2748 04d8 1F0B0000 		.4byte	.LASF47
 2749 04dc 01       		.byte	0x1
 2750 04dd 9A04     		.2byte	0x49a
 2751 04df 6B000000 		.4byte	0x6b
 2752 04e3 67040000 		.4byte	.LLST26
 2753 04e7 0E       		.uleb128 0xe
 2754 04e8 EF030000 		.4byte	.LASF48
 2755 04ec 01       		.byte	0x1
 2756 04ed 9F04     		.2byte	0x49f
 2757 04ef 83000000 		.4byte	0x83
 2758 04f3 91040000 		.4byte	.LLST27
 2759 04f7 0E       		.uleb128 0xe
 2760 04f8 45050000 		.4byte	.LASF49
 2761 04fc 01       		.byte	0x1
 2762 04fd A004     		.2byte	0x4a0
 2763 04ff 83000000 		.4byte	0x83
 2764 0503 D4040000 		.4byte	.LLST28
 2765 0507 0A       		.uleb128 0xa
 2766 0508 16000000 		.4byte	.LVL84
 2767 050c 4C040000 		.4byte	0x44c
 2768 0510 3D050000 		.4byte	0x53d
 2769 0514 0B       		.uleb128 0xb
 2770 0515 01       		.uleb128 0x1
 2771 0516 50       		.byte	0x50
 2772 0517 02       		.uleb128 0x2
 2773 0518 75       		.byte	0x75
 2774 0519 00       		.sleb128 0
 2775 051a 0B       		.uleb128 0xb
 2776 051b 01       		.uleb128 0x1
 2777 051c 51       		.byte	0x51
 2778 051d 0D       		.uleb128 0xd
 2779 051e 74       		.byte	0x74
 2780 051f 00       		.sleb128 0
 2781 0520 03       		.byte	0x3
 2782 0521 08000000 		.4byte	.LANCHOR2+8
 2783 0525 22       		.byte	0x22
 2784 0526 94       		.byte	0x94
 2785 0527 01       		.byte	0x1
 2786 0528 08       		.byte	0x8
 2787 0529 FF       		.byte	0xff
 2788 052a 1A       		.byte	0x1a
 2789 052b 0B       		.uleb128 0xb
 2790 052c 01       		.uleb128 0x1
 2791 052d 52       		.byte	0x52
 2792 052e 0D       		.uleb128 0xd
 2793 052f 74       		.byte	0x74
 2794 0530 00       		.sleb128 0
 2795 0531 03       		.byte	0x3
 2796 0532 00000000 		.4byte	.LANCHOR2
 2797 0536 22       		.byte	0x22
ARM GAS  C:\Users\ZTIPRI~1\AppData\Local\Temp\ccBGTz86.s 			page 92


 2798 0537 94       		.byte	0x94
 2799 0538 01       		.byte	0x1
 2800 0539 08       		.byte	0x8
 2801 053a FF       		.byte	0xff
 2802 053b 1A       		.byte	0x1a
 2803 053c 00       		.byte	0
 2804 053d 0C       		.uleb128 0xc
 2805 053e 28000000 		.4byte	.LVL87
 2806 0542 4C040000 		.4byte	0x44c
 2807 0546 0B       		.uleb128 0xb
 2808 0547 01       		.uleb128 0x1
 2809 0548 50       		.byte	0x50
 2810 0549 02       		.uleb128 0x2
 2811 054a 75       		.byte	0x75
 2812 054b 00       		.sleb128 0
 2813 054c 0B       		.uleb128 0xb
 2814 054d 01       		.uleb128 0x1
 2815 054e 51       		.byte	0x51
 2816 054f 01       		.uleb128 0x1
 2817 0550 32       		.byte	0x32
 2818 0551 0B       		.uleb128 0xb
 2819 0552 01       		.uleb128 0x1
 2820 0553 52       		.byte	0x52
 2821 0554 01       		.uleb128 0x1
 2822 0555 34       		.byte	0x34
 2823 0556 00       		.byte	0
 2824 0557 00       		.byte	0
 2825 0558 0D       		.uleb128 0xd
 2826 0559 66000000 		.4byte	.LASF50
 2827 055d 01       		.byte	0x1
 2828 055e E104     		.2byte	0x4e1
 2829 0560 00000000 		.4byte	.LFB50
 2830 0564 24000000 		.4byte	.LFE50-.LFB50
 2831 0568 01       		.uleb128 0x1
 2832 0569 9C       		.byte	0x9c
 2833 056a 8E050000 		.4byte	0x58e
 2834 056e 0E       		.uleb128 0xe
 2835 056f 48030000 		.4byte	.LASF35
 2836 0573 01       		.byte	0x1
 2837 0574 E304     		.2byte	0x4e3
 2838 0576 83000000 		.4byte	0x83
 2839 057a 17050000 		.4byte	.LLST29
 2840 057e 0C       		.uleb128 0xc
 2841 057f 08000000 		.4byte	.LVL90
 2842 0583 B1040000 		.4byte	0x4b1
 2843 0587 0B       		.uleb128 0xb
 2844 0588 01       		.uleb128 0x1
 2845 0589 50       		.byte	0x50
 2846 058a 01       		.uleb128 0x1
 2847 058b 30       		.byte	0x30
 2848 058c 00       		.byte	0
 2849 058d 00       		.byte	0
 2850 058e 0D       		.uleb128 0xd
 2851 058f 25030000 		.4byte	.LASF51
 2852 0593 01       		.byte	0x1
 2853 0594 5B06     		.2byte	0x65b
 2854 0596 00000000 		.4byte	.LFB54
ARM GAS  C:\Users\ZTIPRI~1\AppData\Local\Temp\ccBGTz86.s 			page 93


 2855 059a 34000000 		.4byte	.LFE54-.LFB54
 2856 059e 01       		.uleb128 0x1
 2857 059f 9C       		.byte	0x9c
 2858 05a0 D5050000 		.4byte	0x5d5
 2859 05a4 12       		.uleb128 0x12
 2860 05a5 56060000 		.4byte	.LASF44
 2861 05a9 01       		.byte	0x1
 2862 05aa 5B06     		.2byte	0x65b
 2863 05ac 83000000 		.4byte	0x83
 2864 05b0 35050000 		.4byte	.LLST30
 2865 05b4 12       		.uleb128 0x12
 2866 05b5 9E060000 		.4byte	.LASF45
 2867 05b9 01       		.byte	0x1
 2868 05ba 5B06     		.2byte	0x65b
 2869 05bc 83000000 		.4byte	0x83
 2870 05c0 56050000 		.4byte	.LLST31
 2871 05c4 0E       		.uleb128 0xe
 2872 05c5 CE0A0000 		.4byte	.LASF21
 2873 05c9 01       		.byte	0x1
 2874 05ca 5D06     		.2byte	0x65d
 2875 05cc 83000000 		.4byte	0x83
 2876 05d0 77050000 		.4byte	.LLST32
 2877 05d4 00       		.byte	0
 2878 05d5 0D       		.uleb128 0xd
 2879 05d6 24090000 		.4byte	.LASF52
 2880 05da 01       		.byte	0x1
 2881 05db 7E06     		.2byte	0x67e
 2882 05dd 00000000 		.4byte	.LFB55
 2883 05e1 18000000 		.4byte	.LFE55-.LFB55
 2884 05e5 01       		.uleb128 0x1
 2885 05e6 9C       		.byte	0x9c
 2886 05e7 0C060000 		.4byte	0x60c
 2887 05eb 12       		.uleb128 0x12
 2888 05ec 44070000 		.4byte	.LASF53
 2889 05f0 01       		.byte	0x1
 2890 05f1 7E06     		.2byte	0x67e
 2891 05f3 83000000 		.4byte	0x83
 2892 05f7 A0050000 		.4byte	.LLST33
 2893 05fb 0E       		.uleb128 0xe
 2894 05fc CE0A0000 		.4byte	.LASF21
 2895 0600 01       		.byte	0x1
 2896 0601 8006     		.2byte	0x680
 2897 0603 83000000 		.4byte	0x83
 2898 0607 D2050000 		.4byte	.LLST34
 2899 060b 00       		.byte	0
 2900 060c 10       		.uleb128 0x10
 2901 060d DB040000 		.4byte	.LASF55
 2902 0611 01       		.byte	0x1
 2903 0612 A206     		.2byte	0x6a2
 2904 0614 83000000 		.4byte	0x83
 2905 0618 00000000 		.4byte	.LFB56
 2906 061c 1C000000 		.4byte	.LFE56-.LFB56
 2907 0620 01       		.uleb128 0x1
 2908 0621 9C       		.byte	0x9c
 2909 0622 11       		.uleb128 0x11
 2910 0623 22020000 		.4byte	.LASF56
 2911 0627 01       		.byte	0x1
ARM GAS  C:\Users\ZTIPRI~1\AppData\Local\Temp\ccBGTz86.s 			page 94


 2912 0628 BE06     		.2byte	0x6be
 2913 062a 83000000 		.4byte	0x83
 2914 062e 00000000 		.4byte	.LFB57
 2915 0632 18000000 		.4byte	.LFE57-.LFB57
 2916 0636 01       		.uleb128 0x1
 2917 0637 9C       		.byte	0x9c
 2918 0638 7B060000 		.4byte	0x67b
 2919 063c 12       		.uleb128 0x12
 2920 063d 1E050000 		.4byte	.LASF57
 2921 0641 01       		.byte	0x1
 2922 0642 BE06     		.2byte	0x6be
 2923 0644 DA000000 		.4byte	0xda
 2924 0648 F0050000 		.4byte	.LLST35
 2925 064c 12       		.uleb128 0x12
 2926 064d 7C0B0000 		.4byte	.LASF58
 2927 0651 01       		.byte	0x1
 2928 0652 BE06     		.2byte	0x6be
 2929 0654 83000000 		.4byte	0x83
 2930 0658 2A060000 		.4byte	.LLST36
 2931 065c 0E       		.uleb128 0xe
 2932 065d 84030000 		.4byte	.LASF59
 2933 0661 01       		.byte	0x1
 2934 0662 C006     		.2byte	0x6c0
 2935 0664 83000000 		.4byte	0x83
 2936 0668 4B060000 		.4byte	.LLST37
 2937 066c 14       		.uleb128 0x14
 2938 066d 1D090000 		.4byte	.LASF60
 2939 0671 01       		.byte	0x1
 2940 0672 C106     		.2byte	0x6c1
 2941 0674 6B000000 		.4byte	0x6b
 2942 0678 01       		.uleb128 0x1
 2943 0679 53       		.byte	0x53
 2944 067a 00       		.byte	0
 2945 067b 11       		.uleb128 0x11
 2946 067c D4000000 		.4byte	.LASF61
 2947 0680 01       		.byte	0x1
 2948 0681 FC01     		.2byte	0x1fc
 2949 0683 6B000000 		.4byte	0x6b
 2950 0687 00000000 		.4byte	.LFB37
 2951 068b 24000000 		.4byte	.LFE37-.LFB37
 2952 068f 01       		.uleb128 0x1
 2953 0690 9C       		.byte	0x9c
 2954 0691 CF060000 		.4byte	0x6cf
 2955 0695 12       		.uleb128 0x12
 2956 0696 60060000 		.4byte	.LASF41
 2957 069a 01       		.byte	0x1
 2958 069b FC01     		.2byte	0x1fc
 2959 069d 6B000000 		.4byte	0x6b
 2960 06a1 6E060000 		.4byte	.LLST38
 2961 06a5 0E       		.uleb128 0xe
 2962 06a6 77050000 		.4byte	.LASF62
 2963 06aa 01       		.byte	0x1
 2964 06ab FE01     		.2byte	0x1fe
 2965 06ad 83000000 		.4byte	0x83
 2966 06b1 A2060000 		.4byte	.LLST39
 2967 06b5 0C       		.uleb128 0xc
 2968 06b6 16000000 		.4byte	.LVL117
ARM GAS  C:\Users\ZTIPRI~1\AppData\Local\Temp\ccBGTz86.s 			page 95


 2969 06ba 22060000 		.4byte	0x622
 2970 06be 0B       		.uleb128 0xb
 2971 06bf 01       		.uleb128 0x1
 2972 06c0 50       		.byte	0x50
 2973 06c1 05       		.uleb128 0x5
 2974 06c2 03       		.byte	0x3
 2975 06c3 14000000 		.4byte	.LANCHOR1+20
 2976 06c7 0B       		.uleb128 0xb
 2977 06c8 01       		.uleb128 0x1
 2978 06c9 51       		.byte	0x51
 2979 06ca 02       		.uleb128 0x2
 2980 06cb 74       		.byte	0x74
 2981 06cc 00       		.sleb128 0
 2982 06cd 00       		.byte	0
 2983 06ce 00       		.byte	0
 2984 06cf 0D       		.uleb128 0xd
 2985 06d0 A8080000 		.4byte	.LASF63
 2986 06d4 01       		.byte	0x1
 2987 06d5 3905     		.2byte	0x539
 2988 06d7 00000000 		.4byte	.LFB52
 2989 06db CC000000 		.4byte	.LFE52-.LFB52
 2990 06df 01       		.uleb128 0x1
 2991 06e0 9C       		.byte	0x9c
 2992 06e1 EF070000 		.4byte	0x7ef
 2993 06e5 12       		.uleb128 0x12
 2994 06e6 77040000 		.4byte	.LASF24
 2995 06ea 01       		.byte	0x1
 2996 06eb 3905     		.2byte	0x539
 2997 06ed 83000000 		.4byte	0x83
 2998 06f1 B5060000 		.4byte	.LLST40
 2999 06f5 0E       		.uleb128 0xe
 3000 06f6 6A020000 		.4byte	.LASF27
 3001 06fa 01       		.byte	0x1
 3002 06fb 3B05     		.2byte	0x53b
 3003 06fd 6B000000 		.4byte	0x6b
 3004 0701 EC060000 		.4byte	.LLST41
 3005 0705 0E       		.uleb128 0xe
 3006 0706 23010000 		.4byte	.LASF34
 3007 070a 01       		.byte	0x1
 3008 070b 3C05     		.2byte	0x53c
 3009 070d 6B000000 		.4byte	0x6b
 3010 0711 5D070000 		.4byte	.LLST42
 3011 0715 0E       		.uleb128 0xe
 3012 0716 CE0A0000 		.4byte	.LASF21
 3013 071a 01       		.byte	0x1
 3014 071b 3D05     		.2byte	0x53d
 3015 071d 83000000 		.4byte	0x83
 3016 0721 70070000 		.4byte	.LLST43
 3017 0725 0E       		.uleb128 0xe
 3018 0726 AE090000 		.4byte	.LASF64
 3019 072a 01       		.byte	0x1
 3020 072b 3E05     		.2byte	0x53e
 3021 072d 83000000 		.4byte	0x83
 3022 0731 99070000 		.4byte	.LLST44
 3023 0735 0E       		.uleb128 0xe
 3024 0736 450B0000 		.4byte	.LASF65
 3025 073a 01       		.byte	0x1
ARM GAS  C:\Users\ZTIPRI~1\AppData\Local\Temp\ccBGTz86.s 			page 96


 3026 073b 4705     		.2byte	0x547
 3027 073d 83000000 		.4byte	0x83
 3028 0741 AC070000 		.4byte	.LLST45
 3029 0745 0A       		.uleb128 0xa
 3030 0746 1A000000 		.4byte	.LVL126
 3031 074a 22060000 		.4byte	0x622
 3032 074e 62070000 		.4byte	0x762
 3033 0752 0B       		.uleb128 0xb
 3034 0753 01       		.uleb128 0x1
 3035 0754 50       		.byte	0x50
 3036 0755 05       		.uleb128 0x5
 3037 0756 03       		.byte	0x3
 3038 0757 00000000 		.4byte	CapSense_CSD_scanSpeedTbl
 3039 075b 0B       		.uleb128 0xb
 3040 075c 01       		.uleb128 0x1
 3041 075d 51       		.byte	0x51
 3042 075e 02       		.uleb128 0x2
 3043 075f 74       		.byte	0x74
 3044 0760 00       		.sleb128 0
 3045 0761 00       		.byte	0
 3046 0762 0A       		.uleb128 0xa
 3047 0763 36000000 		.4byte	.LVL130
 3048 0767 8A0F0000 		.4byte	0xf8a
 3049 076b 75070000 		.4byte	0x775
 3050 076f 0B       		.uleb128 0xb
 3051 0770 01       		.uleb128 0x1
 3052 0771 51       		.byte	0x51
 3053 0772 01       		.uleb128 0x1
 3054 0773 30       		.byte	0x30
 3055 0774 00       		.byte	0
 3056 0775 0A       		.uleb128 0xa
 3057 0776 44000000 		.4byte	.LVL131
 3058 077a 950F0000 		.4byte	0xf95
 3059 077e 88070000 		.4byte	0x788
 3060 0782 0B       		.uleb128 0xb
 3061 0783 01       		.uleb128 0x1
 3062 0784 51       		.byte	0x51
 3063 0785 01       		.uleb128 0x1
 3064 0786 30       		.byte	0x30
 3065 0787 00       		.byte	0
 3066 0788 0A       		.uleb128 0xa
 3067 0789 4A000000 		.4byte	.LVL132
 3068 078d 530F0000 		.4byte	0xf53
 3069 0791 9B070000 		.4byte	0x79b
 3070 0795 0B       		.uleb128 0xb
 3071 0796 01       		.uleb128 0x1
 3072 0797 50       		.byte	0x50
 3073 0798 01       		.uleb128 0x1
 3074 0799 3F       		.byte	0x3f
 3075 079a 00       		.byte	0
 3076 079b 0A       		.uleb128 0xa
 3077 079c 74000000 		.4byte	.LVL139
 3078 07a0 B60F0000 		.4byte	0xfb6
 3079 07a4 AE070000 		.4byte	0x7ae
 3080 07a8 0B       		.uleb128 0xb
 3081 07a9 01       		.uleb128 0x1
 3082 07aa 50       		.byte	0x50
ARM GAS  C:\Users\ZTIPRI~1\AppData\Local\Temp\ccBGTz86.s 			page 97


 3083 07ab 01       		.uleb128 0x1
 3084 07ac 3F       		.byte	0x3f
 3085 07ad 00       		.byte	0
 3086 07ae 0A       		.uleb128 0xa
 3087 07af 7A000000 		.4byte	.LVL140
 3088 07b3 E3020000 		.4byte	0x2e3
 3089 07b7 C2070000 		.4byte	0x7c2
 3090 07bb 0B       		.uleb128 0xb
 3091 07bc 01       		.uleb128 0x1
 3092 07bd 50       		.byte	0x50
 3093 07be 02       		.uleb128 0x2
 3094 07bf 74       		.byte	0x74
 3095 07c0 00       		.sleb128 0
 3096 07c1 00       		.byte	0
 3097 07c2 0F       		.uleb128 0xf
 3098 07c3 7E000000 		.4byte	.LVL141
 3099 07c7 C10F0000 		.4byte	0xfc1
 3100 07cb 0A       		.uleb128 0xa
 3101 07cc 88000000 		.4byte	.LVL143
 3102 07d0 D70F0000 		.4byte	0xfd7
 3103 07d4 DE070000 		.4byte	0x7de
 3104 07d8 0B       		.uleb128 0xb
 3105 07d9 01       		.uleb128 0x1
 3106 07da 50       		.byte	0x50
 3107 07db 01       		.uleb128 0x1
 3108 07dc 30       		.byte	0x30
 3109 07dd 00       		.byte	0
 3110 07de 0C       		.uleb128 0xc
 3111 07df 92000000 		.4byte	.LVL144
 3112 07e3 CC0F0000 		.4byte	0xfcc
 3113 07e7 0B       		.uleb128 0xb
 3114 07e8 01       		.uleb128 0x1
 3115 07e9 50       		.byte	0x50
 3116 07ea 02       		.uleb128 0x2
 3117 07eb 74       		.byte	0x74
 3118 07ec 00       		.sleb128 0
 3119 07ed 00       		.byte	0
 3120 07ee 00       		.byte	0
 3121 07ef 0D       		.uleb128 0xd
 3122 07f0 DC070000 		.4byte	.LASF66
 3123 07f4 01       		.byte	0x1
 3124 07f5 2C02     		.2byte	0x22c
 3125 07f7 00000000 		.4byte	.LFB38
 3126 07fb 1C000000 		.4byte	.LFE38-.LFB38
 3127 07ff 01       		.uleb128 0x1
 3128 0800 9C       		.byte	0x9c
 3129 0801 27080000 		.4byte	0x827
 3130 0805 12       		.uleb128 0x12
 3131 0806 77040000 		.4byte	.LASF24
 3132 080a 01       		.byte	0x1
 3133 080b 2C02     		.2byte	0x22c
 3134 080d 83000000 		.4byte	0x83
 3135 0811 BF070000 		.4byte	.LLST46
 3136 0815 0C       		.uleb128 0xc
 3137 0816 14000000 		.4byte	.LVL149
 3138 081a CF060000 		.4byte	0x6cf
 3139 081e 0B       		.uleb128 0xb
ARM GAS  C:\Users\ZTIPRI~1\AppData\Local\Temp\ccBGTz86.s 			page 98


 3140 081f 01       		.uleb128 0x1
 3141 0820 50       		.byte	0x50
 3142 0821 03       		.uleb128 0x3
 3143 0822 F3       		.byte	0xf3
 3144 0823 01       		.uleb128 0x1
 3145 0824 50       		.byte	0x50
 3146 0825 00       		.byte	0
 3147 0826 00       		.byte	0
 3148 0827 0D       		.uleb128 0xd
 3149 0828 2C040000 		.4byte	.LASF67
 3150 082c 01       		.byte	0x1
 3151 082d A802     		.2byte	0x2a8
 3152 082f 00000000 		.4byte	.LFB40
 3153 0833 38000000 		.4byte	.LFE40-.LFB40
 3154 0837 01       		.uleb128 0x1
 3155 0838 9C       		.byte	0x9c
 3156 0839 50080000 		.4byte	0x850
 3157 083d 0F       		.uleb128 0xf
 3158 083e 14000000 		.4byte	.LVL150
 3159 0842 7B060000 		.4byte	0x67b
 3160 0846 0F       		.uleb128 0xf
 3161 0847 30000000 		.4byte	.LVL151
 3162 084b CF060000 		.4byte	0x6cf
 3163 084f 00       		.byte	0
 3164 0850 0D       		.uleb128 0xd
 3165 0851 82050000 		.4byte	.LASF68
 3166 0855 01       		.byte	0x1
 3167 0856 FE05     		.2byte	0x5fe
 3168 0858 00000000 		.4byte	.LFB53
 3169 085c 90000000 		.4byte	.LFE53-.LFB53
 3170 0860 01       		.uleb128 0x1
 3171 0861 9C       		.byte	0x9c
 3172 0862 FA080000 		.4byte	0x8fa
 3173 0866 12       		.uleb128 0x12
 3174 0867 77040000 		.4byte	.LASF24
 3175 086b 01       		.byte	0x1
 3176 086c FE05     		.2byte	0x5fe
 3177 086e 83000000 		.4byte	0x83
 3178 0872 E0070000 		.4byte	.LLST47
 3179 0876 0E       		.uleb128 0xe
 3180 0877 CE0A0000 		.4byte	.LASF21
 3181 087b 01       		.byte	0x1
 3182 087c 0006     		.2byte	0x600
 3183 087e 83000000 		.4byte	0x83
 3184 0882 17080000 		.4byte	.LLST48
 3185 0886 0E       		.uleb128 0xe
 3186 0887 450B0000 		.4byte	.LASF65
 3187 088b 01       		.byte	0x1
 3188 088c 0306     		.2byte	0x603
 3189 088e 83000000 		.4byte	0x83
 3190 0892 44080000 		.4byte	.LLST49
 3191 0896 0E       		.uleb128 0xe
 3192 0897 6A020000 		.4byte	.LASF27
 3193 089b 01       		.byte	0x1
 3194 089c 0406     		.2byte	0x604
 3195 089e 83000000 		.4byte	0x83
 3196 08a2 57080000 		.4byte	.LLST50
ARM GAS  C:\Users\ZTIPRI~1\AppData\Local\Temp\ccBGTz86.s 			page 99


 3197 08a6 0A       		.uleb128 0xa
 3198 08a7 2E000000 		.4byte	.LVL157
 3199 08ab 22060000 		.4byte	0x622
 3200 08af C3080000 		.4byte	0x8c3
 3201 08b3 0B       		.uleb128 0xb
 3202 08b4 01       		.uleb128 0x1
 3203 08b5 50       		.byte	0x50
 3204 08b6 05       		.uleb128 0x5
 3205 08b7 03       		.byte	0x3
 3206 08b8 00000000 		.4byte	CapSense_CSD_scanSpeedTbl
 3207 08bc 0B       		.uleb128 0xb
 3208 08bd 01       		.uleb128 0x1
 3209 08be 51       		.byte	0x51
 3210 08bf 02       		.uleb128 0x2
 3211 08c0 75       		.byte	0x75
 3212 08c1 00       		.sleb128 0
 3213 08c2 00       		.byte	0
 3214 08c3 0A       		.uleb128 0xa
 3215 08c4 3E000000 		.4byte	.LVL159
 3216 08c8 6C030000 		.4byte	0x36c
 3217 08cc D7080000 		.4byte	0x8d7
 3218 08d0 0B       		.uleb128 0xb
 3219 08d1 01       		.uleb128 0x1
 3220 08d2 50       		.byte	0x50
 3221 08d3 02       		.uleb128 0x2
 3222 08d4 75       		.byte	0x75
 3223 08d5 00       		.sleb128 0
 3224 08d6 00       		.byte	0
 3225 08d7 0A       		.uleb128 0xa
 3226 08d8 44000000 		.4byte	.LVL160
 3227 08dc 530F0000 		.4byte	0xf53
 3228 08e0 EA080000 		.4byte	0x8ea
 3229 08e4 0B       		.uleb128 0xb
 3230 08e5 01       		.uleb128 0x1
 3231 08e6 50       		.byte	0x50
 3232 08e7 01       		.uleb128 0x1
 3233 08e8 3F       		.byte	0x3f
 3234 08e9 00       		.byte	0
 3235 08ea 0C       		.uleb128 0xc
 3236 08eb 64000000 		.4byte	.LVL166
 3237 08ef B60F0000 		.4byte	0xfb6
 3238 08f3 0B       		.uleb128 0xb
 3239 08f4 01       		.uleb128 0x1
 3240 08f5 50       		.byte	0x50
 3241 08f6 01       		.uleb128 0x1
 3242 08f7 3F       		.byte	0x3f
 3243 08f8 00       		.byte	0
 3244 08f9 00       		.byte	0
 3245 08fa 0D       		.uleb128 0xd
 3246 08fb F0000000 		.4byte	.LASF69
 3247 08ff 01       		.byte	0x1
 3248 0900 E906     		.2byte	0x6e9
 3249 0902 00000000 		.4byte	.LFB58
 3250 0906 26000000 		.4byte	.LFE58-.LFB58
 3251 090a 01       		.uleb128 0x1
 3252 090b 9C       		.byte	0x9c
 3253 090c 5F090000 		.4byte	0x95f
ARM GAS  C:\Users\ZTIPRI~1\AppData\Local\Temp\ccBGTz86.s 			page 100


 3254 0910 13       		.uleb128 0x13
 3255 0911 1E050000 		.4byte	.LASF57
 3256 0915 01       		.byte	0x1
 3257 0916 E906     		.2byte	0x6e9
 3258 0918 D4000000 		.4byte	0xd4
 3259 091c 01       		.uleb128 0x1
 3260 091d 50       		.byte	0x50
 3261 091e 12       		.uleb128 0x12
 3262 091f 7C0B0000 		.4byte	.LASF58
 3263 0923 01       		.byte	0x1
 3264 0924 E906     		.2byte	0x6e9
 3265 0926 83000000 		.4byte	0x83
 3266 092a E6080000 		.4byte	.LLST51
 3267 092e 12       		.uleb128 0x12
 3268 092f 91020000 		.4byte	.LASF25
 3269 0933 01       		.byte	0x1
 3270 0934 E906     		.2byte	0x6e9
 3271 0936 83000000 		.4byte	0x83
 3272 093a 07090000 		.4byte	.LLST52
 3273 093e 0E       		.uleb128 0xe
 3274 093f 84030000 		.4byte	.LASF59
 3275 0943 01       		.byte	0x1
 3276 0944 EB06     		.2byte	0x6eb
 3277 0946 83000000 		.4byte	0x83
 3278 094a 41090000 		.4byte	.LLST53
 3279 094e 0E       		.uleb128 0xe
 3280 094f 1D090000 		.4byte	.LASF60
 3281 0953 01       		.byte	0x1
 3282 0954 EC06     		.2byte	0x6ec
 3283 0956 6B000000 		.4byte	0x6b
 3284 095a 7F090000 		.4byte	.LLST54
 3285 095e 00       		.byte	0
 3286 095f 0D       		.uleb128 0xd
 3287 0960 69060000 		.4byte	.LASF70
 3288 0964 01       		.byte	0x1
 3289 0965 5302     		.2byte	0x253
 3290 0967 00000000 		.4byte	.LFB39
 3291 096b 8C000000 		.4byte	.LFE39-.LFB39
 3292 096f 01       		.uleb128 0x1
 3293 0970 9C       		.byte	0x9c
 3294 0971 030A0000 		.4byte	0xa03
 3295 0975 12       		.uleb128 0x12
 3296 0976 6A020000 		.4byte	.LASF27
 3297 097a 01       		.byte	0x1
 3298 097b 5302     		.2byte	0x253
 3299 097d 83000000 		.4byte	0x83
 3300 0981 BB090000 		.4byte	.LLST55
 3301 0985 0E       		.uleb128 0xe
 3302 0986 FC030000 		.4byte	.LASF71
 3303 098a 01       		.byte	0x1
 3304 098b 5502     		.2byte	0x255
 3305 098d 83000000 		.4byte	0x83
 3306 0991 DC090000 		.4byte	.LLST56
 3307 0995 0E       		.uleb128 0xe
 3308 0996 8D060000 		.4byte	.LASF72
 3309 099a 01       		.byte	0x1
 3310 099b 5602     		.2byte	0x256
ARM GAS  C:\Users\ZTIPRI~1\AppData\Local\Temp\ccBGTz86.s 			page 101


 3311 099d 83000000 		.4byte	0x83
 3312 09a1 EF090000 		.4byte	.LLST57
 3313 09a5 0E       		.uleb128 0xe
 3314 09a6 60060000 		.4byte	.LASF41
 3315 09aa 01       		.byte	0x1
 3316 09ab 5702     		.2byte	0x257
 3317 09ad 83000000 		.4byte	0x83
 3318 09b1 020A0000 		.4byte	.LLST58
 3319 09b5 0A       		.uleb128 0xa
 3320 09b6 4A000000 		.4byte	.LVL187
 3321 09ba FA080000 		.4byte	0x8fa
 3322 09be D7090000 		.4byte	0x9d7
 3323 09c2 0B       		.uleb128 0xb
 3324 09c3 01       		.uleb128 0x1
 3325 09c4 50       		.byte	0x50
 3326 09c5 05       		.uleb128 0x5
 3327 09c6 03       		.byte	0x3
 3328 09c7 14000000 		.4byte	.LANCHOR1+20
 3329 09cb 0B       		.uleb128 0xb
 3330 09cc 01       		.uleb128 0x1
 3331 09cd 51       		.byte	0x51
 3332 09ce 02       		.uleb128 0x2
 3333 09cf 74       		.byte	0x74
 3334 09d0 00       		.sleb128 0
 3335 09d1 0B       		.uleb128 0xb
 3336 09d2 01       		.uleb128 0x1
 3337 09d3 52       		.byte	0x52
 3338 09d4 01       		.uleb128 0x1
 3339 09d5 31       		.byte	0x31
 3340 09d6 00       		.byte	0
 3341 09d7 0A       		.uleb128 0xa
 3342 09d8 58000000 		.4byte	.LVL188
 3343 09dc FA080000 		.4byte	0x8fa
 3344 09e0 F9090000 		.4byte	0x9f9
 3345 09e4 0B       		.uleb128 0xb
 3346 09e5 01       		.uleb128 0x1
 3347 09e6 50       		.byte	0x50
 3348 09e7 05       		.uleb128 0x5
 3349 09e8 03       		.byte	0x3
 3350 09e9 14000000 		.4byte	.LANCHOR1+20
 3351 09ed 0B       		.uleb128 0xb
 3352 09ee 01       		.uleb128 0x1
 3353 09ef 51       		.byte	0x51
 3354 09f0 02       		.uleb128 0x2
 3355 09f1 74       		.byte	0x74
 3356 09f2 00       		.sleb128 0
 3357 09f3 0B       		.uleb128 0xb
 3358 09f4 01       		.uleb128 0x1
 3359 09f5 52       		.byte	0x52
 3360 09f6 01       		.uleb128 0x1
 3361 09f7 30       		.byte	0x30
 3362 09f8 00       		.byte	0
 3363 09f9 0F       		.uleb128 0xf
 3364 09fa 76000000 		.4byte	.LVL190
 3365 09fe CF060000 		.4byte	0x6cf
 3366 0a02 00       		.byte	0
 3367 0a03 11       		.uleb128 0x11
ARM GAS  C:\Users\ZTIPRI~1\AppData\Local\Temp\ccBGTz86.s 			page 102


 3368 0a04 71020000 		.4byte	.LASF73
 3369 0a08 01       		.byte	0x1
 3370 0a09 1B07     		.2byte	0x71b
 3371 0a0b 83000000 		.4byte	0x83
 3372 0a0f 00000000 		.4byte	.LFB59
 3373 0a13 0C000000 		.4byte	.LFE59-.LFB59
 3374 0a17 01       		.uleb128 0x1
 3375 0a18 9C       		.byte	0x9c
 3376 0a19 2E0A0000 		.4byte	0xa2e
 3377 0a1d 12       		.uleb128 0x12
 3378 0a1e 77040000 		.4byte	.LASF24
 3379 0a22 01       		.byte	0x1
 3380 0a23 1B07     		.2byte	0x71b
 3381 0a25 83000000 		.4byte	0x83
 3382 0a29 2C0A0000 		.4byte	.LLST59
 3383 0a2d 00       		.byte	0
 3384 0a2e 0D       		.uleb128 0xd
 3385 0a2f 11000000 		.4byte	.LASF74
 3386 0a33 01       		.byte	0x1
 3387 0a34 3A07     		.2byte	0x73a
 3388 0a36 00000000 		.4byte	.LFB60
 3389 0a3a 0C000000 		.4byte	.LFE60-.LFB60
 3390 0a3e 01       		.uleb128 0x1
 3391 0a3f 9C       		.byte	0x9c
 3392 0a40 610A0000 		.4byte	0xa61
 3393 0a44 13       		.uleb128 0x13
 3394 0a45 77040000 		.4byte	.LASF24
 3395 0a49 01       		.byte	0x1
 3396 0a4a 3A07     		.2byte	0x73a
 3397 0a4c 83000000 		.4byte	0x83
 3398 0a50 01       		.uleb128 0x1
 3399 0a51 50       		.byte	0x50
 3400 0a52 13       		.uleb128 0x13
 3401 0a53 C7060000 		.4byte	.LASF75
 3402 0a57 01       		.byte	0x1
 3403 0a58 3A07     		.2byte	0x73a
 3404 0a5a 83000000 		.4byte	0x83
 3405 0a5e 01       		.uleb128 0x1
 3406 0a5f 51       		.byte	0x51
 3407 0a60 00       		.byte	0
 3408 0a61 11       		.uleb128 0x11
 3409 0a62 4C090000 		.4byte	.LASF76
 3410 0a66 01       		.byte	0x1
 3411 0a67 5A07     		.2byte	0x75a
 3412 0a69 83000000 		.4byte	0x83
 3413 0a6d 00000000 		.4byte	.LFB61
 3414 0a71 0C000000 		.4byte	.LFE61-.LFB61
 3415 0a75 01       		.uleb128 0x1
 3416 0a76 9C       		.byte	0x9c
 3417 0a77 8C0A0000 		.4byte	0xa8c
 3418 0a7b 12       		.uleb128 0x12
 3419 0a7c 77040000 		.4byte	.LASF24
 3420 0a80 01       		.byte	0x1
 3421 0a81 5A07     		.2byte	0x75a
 3422 0a83 83000000 		.4byte	0x83
 3423 0a87 4D0A0000 		.4byte	.LLST60
 3424 0a8b 00       		.byte	0
ARM GAS  C:\Users\ZTIPRI~1\AppData\Local\Temp\ccBGTz86.s 			page 103


 3425 0a8c 0D       		.uleb128 0xd
 3426 0a8d AE070000 		.4byte	.LASF77
 3427 0a91 01       		.byte	0x1
 3428 0a92 7907     		.2byte	0x779
 3429 0a94 00000000 		.4byte	.LFB62
 3430 0a98 0C000000 		.4byte	.LFE62-.LFB62
 3431 0a9c 01       		.uleb128 0x1
 3432 0a9d 9C       		.byte	0x9c
 3433 0a9e BF0A0000 		.4byte	0xabf
 3434 0aa2 13       		.uleb128 0x13
 3435 0aa3 77040000 		.4byte	.LASF24
 3436 0aa7 01       		.byte	0x1
 3437 0aa8 7907     		.2byte	0x779
 3438 0aaa 83000000 		.4byte	0x83
 3439 0aae 01       		.uleb128 0x1
 3440 0aaf 50       		.byte	0x50
 3441 0ab0 13       		.uleb128 0x13
 3442 0ab1 D9090000 		.4byte	.LASF78
 3443 0ab5 01       		.byte	0x1
 3444 0ab6 7907     		.2byte	0x779
 3445 0ab8 83000000 		.4byte	0x83
 3446 0abc 01       		.uleb128 0x1
 3447 0abd 51       		.byte	0x51
 3448 0abe 00       		.byte	0
 3449 0abf 11       		.uleb128 0x11
 3450 0ac0 E6090000 		.4byte	.LASF79
 3451 0ac4 01       		.byte	0x1
 3452 0ac5 9807     		.2byte	0x798
 3453 0ac7 83000000 		.4byte	0x83
 3454 0acb 00000000 		.4byte	.LFB63
 3455 0acf 0C000000 		.4byte	.LFE63-.LFB63
 3456 0ad3 01       		.uleb128 0x1
 3457 0ad4 9C       		.byte	0x9c
 3458 0ad5 EA0A0000 		.4byte	0xaea
 3459 0ad9 12       		.uleb128 0x12
 3460 0ada 77040000 		.4byte	.LASF24
 3461 0ade 01       		.byte	0x1
 3462 0adf 9807     		.2byte	0x798
 3463 0ae1 83000000 		.4byte	0x83
 3464 0ae5 6E0A0000 		.4byte	.LLST61
 3465 0ae9 00       		.byte	0
 3466 0aea 0D       		.uleb128 0xd
 3467 0aeb AF0A0000 		.4byte	.LASF80
 3468 0aef 01       		.byte	0x1
 3469 0af0 B307     		.2byte	0x7b3
 3470 0af2 00000000 		.4byte	.LFB64
 3471 0af6 0C000000 		.4byte	.LFE64-.LFB64
 3472 0afa 01       		.uleb128 0x1
 3473 0afb 9C       		.byte	0x9c
 3474 0afc 1D0B0000 		.4byte	0xb1d
 3475 0b00 13       		.uleb128 0x13
 3476 0b01 77040000 		.4byte	.LASF24
 3477 0b05 01       		.byte	0x1
 3478 0b06 B307     		.2byte	0x7b3
 3479 0b08 83000000 		.4byte	0x83
 3480 0b0c 01       		.uleb128 0x1
 3481 0b0d 50       		.byte	0x50
ARM GAS  C:\Users\ZTIPRI~1\AppData\Local\Temp\ccBGTz86.s 			page 104


 3482 0b0e 13       		.uleb128 0x13
 3483 0b0f 9B080000 		.4byte	.LASF81
 3484 0b13 01       		.byte	0x1
 3485 0b14 B307     		.2byte	0x7b3
 3486 0b16 83000000 		.4byte	0x83
 3487 0b1a 01       		.uleb128 0x1
 3488 0b1b 51       		.byte	0x51
 3489 0b1c 00       		.byte	0
 3490 0b1d 11       		.uleb128 0x11
 3491 0b1e 1A0A0000 		.4byte	.LASF82
 3492 0b22 01       		.byte	0x1
 3493 0b23 D007     		.2byte	0x7d0
 3494 0b25 83000000 		.4byte	0x83
 3495 0b29 00000000 		.4byte	.LFB65
 3496 0b2d 0C000000 		.4byte	.LFE65-.LFB65
 3497 0b31 01       		.uleb128 0x1
 3498 0b32 9C       		.byte	0x9c
 3499 0b33 480B0000 		.4byte	0xb48
 3500 0b37 12       		.uleb128 0x12
 3501 0b38 77040000 		.4byte	.LASF24
 3502 0b3c 01       		.byte	0x1
 3503 0b3d D007     		.2byte	0x7d0
 3504 0b3f 83000000 		.4byte	0x83
 3505 0b43 8F0A0000 		.4byte	.LLST62
 3506 0b47 00       		.byte	0
 3507 0b48 0D       		.uleb128 0xd
 3508 0b49 56040000 		.4byte	.LASF83
 3509 0b4d 01       		.byte	0x1
 3510 0b4e ED07     		.2byte	0x7ed
 3511 0b50 00000000 		.4byte	.LFB66
 3512 0b54 0C000000 		.4byte	.LFE66-.LFB66
 3513 0b58 01       		.uleb128 0x1
 3514 0b59 9C       		.byte	0x9c
 3515 0b5a 7B0B0000 		.4byte	0xb7b
 3516 0b5e 13       		.uleb128 0x13
 3517 0b5f 77040000 		.4byte	.LASF24
 3518 0b63 01       		.byte	0x1
 3519 0b64 ED07     		.2byte	0x7ed
 3520 0b66 83000000 		.4byte	0x83
 3521 0b6a 01       		.uleb128 0x1
 3522 0b6b 50       		.byte	0x50
 3523 0b6c 13       		.uleb128 0x13
 3524 0b6d 6D080000 		.4byte	.LASF84
 3525 0b71 01       		.byte	0x1
 3526 0b72 ED07     		.2byte	0x7ed
 3527 0b74 83000000 		.4byte	0x83
 3528 0b78 01       		.uleb128 0x1
 3529 0b79 51       		.byte	0x51
 3530 0b7a 00       		.byte	0
 3531 0b7b 10       		.uleb128 0x10
 3532 0b7c 950A0000 		.4byte	.LASF85
 3533 0b80 01       		.byte	0x1
 3534 0b81 0A08     		.2byte	0x80a
 3535 0b83 83000000 		.4byte	0x83
 3536 0b87 00000000 		.4byte	.LFB67
 3537 0b8b 14000000 		.4byte	.LFE67-.LFB67
 3538 0b8f 01       		.uleb128 0x1
ARM GAS  C:\Users\ZTIPRI~1\AppData\Local\Temp\ccBGTz86.s 			page 105


 3539 0b90 9C       		.byte	0x9c
 3540 0b91 0D       		.uleb128 0xd
 3541 0b92 08020000 		.4byte	.LASF86
 3542 0b96 01       		.byte	0x1
 3543 0b97 2808     		.2byte	0x828
 3544 0b99 00000000 		.4byte	.LFB68
 3545 0b9d 28000000 		.4byte	.LFE68-.LFB68
 3546 0ba1 01       		.uleb128 0x1
 3547 0ba2 9C       		.byte	0x9c
 3548 0ba3 B60B0000 		.4byte	0xbb6
 3549 0ba7 13       		.uleb128 0x13
 3550 0ba8 D2070000 		.4byte	.LASF87
 3551 0bac 01       		.byte	0x1
 3552 0bad 2808     		.2byte	0x828
 3553 0baf 83000000 		.4byte	0x83
 3554 0bb3 01       		.uleb128 0x1
 3555 0bb4 50       		.byte	0x50
 3556 0bb5 00       		.byte	0
 3557 0bb6 11       		.uleb128 0x11
 3558 0bb7 09010000 		.4byte	.LASF88
 3559 0bbb 01       		.byte	0x1
 3560 0bbc 5008     		.2byte	0x850
 3561 0bbe 77000000 		.4byte	0x77
 3562 0bc2 00000000 		.4byte	.LFB69
 3563 0bc6 2A000000 		.4byte	.LFE69-.LFB69
 3564 0bca 01       		.uleb128 0x1
 3565 0bcb 9C       		.byte	0x9c
 3566 0bcc 2E0C0000 		.4byte	0xc2e
 3567 0bd0 12       		.uleb128 0x12
 3568 0bd1 77040000 		.4byte	.LASF24
 3569 0bd5 01       		.byte	0x1
 3570 0bd6 5008     		.2byte	0x850
 3571 0bd8 83000000 		.4byte	0x83
 3572 0bdc B00A0000 		.4byte	.LLST63
 3573 0be0 0E       		.uleb128 0xe
 3574 0be1 4C040000 		.4byte	.LASF89
 3575 0be5 01       		.byte	0x1
 3576 0be6 5208     		.2byte	0x852
 3577 0be8 83000000 		.4byte	0x83
 3578 0bec DC0A0000 		.4byte	.LLST64
 3579 0bf0 0E       		.uleb128 0xe
 3580 0bf1 CD010000 		.4byte	.LASF90
 3581 0bf5 01       		.byte	0x1
 3582 0bf6 5308     		.2byte	0x853
 3583 0bf8 83000000 		.4byte	0x83
 3584 0bfc FB0A0000 		.4byte	.LLST65
 3585 0c00 0A       		.uleb128 0xa
 3586 0c01 10000000 		.4byte	.LVL209
 3587 0c05 EF070000 		.4byte	0x7ef
 3588 0c09 140C0000 		.4byte	0xc14
 3589 0c0d 0B       		.uleb128 0xb
 3590 0c0e 01       		.uleb128 0x1
 3591 0c0f 50       		.byte	0x50
 3592 0c10 02       		.uleb128 0x2
 3593 0c11 76       		.byte	0x76
 3594 0c12 00       		.sleb128 0
 3595 0c13 00       		.byte	0
ARM GAS  C:\Users\ZTIPRI~1\AppData\Local\Temp\ccBGTz86.s 			page 106


 3596 0c14 0F       		.uleb128 0xf
 3597 0c15 14000000 		.4byte	.LVL210
 3598 0c19 0D020000 		.4byte	0x20d
 3599 0c1d 0C       		.uleb128 0xc
 3600 0c1e 1E000000 		.4byte	.LVL211
 3601 0c22 23020000 		.4byte	0x223
 3602 0c26 0B       		.uleb128 0xb
 3603 0c27 01       		.uleb128 0x1
 3604 0c28 50       		.byte	0x50
 3605 0c29 02       		.uleb128 0x2
 3606 0c2a 76       		.byte	0x76
 3607 0c2b 00       		.sleb128 0
 3608 0c2c 00       		.byte	0
 3609 0c2d 00       		.byte	0
 3610 0c2e 0D       		.uleb128 0xd
 3611 0c2f 9B010000 		.4byte	.LASF91
 3612 0c33 01       		.byte	0x1
 3613 0c34 BA08     		.2byte	0x8ba
 3614 0c36 00000000 		.4byte	.LFB70
 3615 0c3a 0C000000 		.4byte	.LFE70-.LFB70
 3616 0c3e 01       		.uleb128 0x1
 3617 0c3f 9C       		.byte	0x9c
 3618 0c40 610C0000 		.4byte	0xc61
 3619 0c44 13       		.uleb128 0x13
 3620 0c45 77040000 		.4byte	.LASF24
 3621 0c49 01       		.byte	0x1
 3622 0c4a BA08     		.2byte	0x8ba
 3623 0c4c 83000000 		.4byte	0x83
 3624 0c50 01       		.uleb128 0x1
 3625 0c51 50       		.byte	0x50
 3626 0c52 13       		.uleb128 0x13
 3627 0c53 78030000 		.4byte	.LASF39
 3628 0c57 01       		.byte	0x1
 3629 0c58 BA08     		.2byte	0x8ba
 3630 0c5a 83000000 		.4byte	0x83
 3631 0c5e 01       		.uleb128 0x1
 3632 0c5f 51       		.byte	0x51
 3633 0c60 00       		.byte	0
 3634 0c61 08       		.uleb128 0x8
 3635 0c62 1C070000 		.4byte	.LASF92
 3636 0c66 01       		.byte	0x1
 3637 0c67 A9       		.byte	0xa9
 3638 0c68 00000000 		.4byte	.LFB32
 3639 0c6c 24000000 		.4byte	.LFE32-.LFB32
 3640 0c70 01       		.uleb128 0x1
 3641 0c71 9C       		.byte	0x9c
 3642 0c72 C40C0000 		.4byte	0xcc4
 3643 0c76 09       		.uleb128 0x9
 3644 0c77 1F0B0000 		.4byte	.LASF47
 3645 0c7b 01       		.byte	0x1
 3646 0c7c AB       		.byte	0xab
 3647 0c7d 83000000 		.4byte	0x83
 3648 0c81 1A0B0000 		.4byte	.LLST66
 3649 0c85 0A       		.uleb128 0xa
 3650 0c86 0E000000 		.4byte	.LVL220
 3651 0c8a 2E0C0000 		.4byte	0xc2e
 3652 0c8e 9E0C0000 		.4byte	0xc9e
ARM GAS  C:\Users\ZTIPRI~1\AppData\Local\Temp\ccBGTz86.s 			page 107


 3653 0c92 0B       		.uleb128 0xb
 3654 0c93 01       		.uleb128 0x1
 3655 0c94 50       		.byte	0x50
 3656 0c95 02       		.uleb128 0x2
 3657 0c96 74       		.byte	0x74
 3658 0c97 00       		.sleb128 0
 3659 0c98 0B       		.uleb128 0xb
 3660 0c99 01       		.uleb128 0x1
 3661 0c9a 51       		.byte	0x51
 3662 0c9b 01       		.uleb128 0x1
 3663 0c9c 30       		.byte	0x30
 3664 0c9d 00       		.byte	0
 3665 0c9e 0F       		.uleb128 0xf
 3666 0c9f 18000000 		.4byte	.LVL222
 3667 0ca3 E5000000 		.4byte	0xe5
 3668 0ca7 0A       		.uleb128 0xa
 3669 0ca8 1E000000 		.4byte	.LVL223
 3670 0cac D5050000 		.4byte	0x5d5
 3671 0cb0 BA0C0000 		.4byte	0xcba
 3672 0cb4 0B       		.uleb128 0xb
 3673 0cb5 01       		.uleb128 0x1
 3674 0cb6 50       		.byte	0x50
 3675 0cb7 01       		.uleb128 0x1
 3676 0cb8 30       		.byte	0x30
 3677 0cb9 00       		.byte	0
 3678 0cba 0F       		.uleb128 0xf
 3679 0cbb 22000000 		.4byte	.LVL224
 3680 0cbf 15040000 		.4byte	0x415
 3681 0cc3 00       		.byte	0
 3682 0cc4 0D       		.uleb128 0xd
 3683 0cc5 EF050000 		.4byte	.LASF93
 3684 0cc9 01       		.byte	0x1
 3685 0cca 7A01     		.2byte	0x17a
 3686 0ccc 00000000 		.4byte	.LFB35
 3687 0cd0 38000000 		.4byte	.LFE35-.LFB35
 3688 0cd4 01       		.uleb128 0x1
 3689 0cd5 9C       		.byte	0x9c
 3690 0cd6 080D0000 		.4byte	0xd08
 3691 0cda 14       		.uleb128 0x14
 3692 0cdb 7D070000 		.4byte	.LASF94
 3693 0cdf 01       		.byte	0x1
 3694 0ce0 7D01     		.2byte	0x17d
 3695 0ce2 6B000000 		.4byte	0x6b
 3696 0ce6 05       		.uleb128 0x5
 3697 0ce7 03       		.byte	0x3
 3698 0ce8 0F000000 		.4byte	CapSense_CSD_initVar.5384
 3699 0cec 0F       		.uleb128 0xf
 3700 0ced 0E000000 		.4byte	.LVL226
 3701 0cf1 610C0000 		.4byte	0xc61
 3702 0cf5 0F       		.uleb128 0xf
 3703 0cf6 18000000 		.4byte	.LVL227
 3704 0cfa 47010000 		.4byte	0x147
 3705 0cfe 0F       		.uleb128 0xf
 3706 0cff 1C000000 		.4byte	.LVL228
 3707 0d03 E20F0000 		.4byte	0xfe2
 3708 0d07 00       		.byte	0
 3709 0d08 15       		.uleb128 0x15
ARM GAS  C:\Users\ZTIPRI~1\AppData\Local\Temp\ccBGTz86.s 			page 108


 3710 0d09 7B080000 		.4byte	.LASF95
 3711 0d0d 01       		.byte	0x1
 3712 0d0e 24       		.byte	0x24
 3713 0d0f 6B000000 		.4byte	0x6b
 3714 0d13 05       		.uleb128 0x5
 3715 0d14 03       		.byte	0x3
 3716 0d15 00000000 		.4byte	CapSense_CSD_lowLevelTuningDone
 3717 0d19 16       		.uleb128 0x16
 3718 0d1a 6B000000 		.4byte	0x6b
 3719 0d1e 290D0000 		.4byte	0xd29
 3720 0d22 17       		.uleb128 0x17
 3721 0d23 C6000000 		.4byte	0xc6
 3722 0d27 00       		.byte	0
 3723 0d28 00       		.byte	0
 3724 0d29 15       		.uleb128 0x15
 3725 0d2a 09060000 		.4byte	.LASF96
 3726 0d2e 01       		.byte	0x1
 3727 0d2f 25       		.byte	0x25
 3728 0d30 190D0000 		.4byte	0xd19
 3729 0d34 05       		.uleb128 0x5
 3730 0d35 03       		.byte	0x3
 3731 0d36 00000000 		.4byte	CapSense_CSD_scanSpeedTbl
 3732 0d3a 15       		.uleb128 0x15
 3733 0d3b 3C060000 		.4byte	.LASF97
 3734 0d3f 01       		.byte	0x1
 3735 0d40 2D       		.byte	0x2d
 3736 0d41 B0000000 		.4byte	0xb0
 3737 0d45 05       		.uleb128 0x5
 3738 0d46 03       		.byte	0x3
 3739 0d47 00000000 		.4byte	CapSense_CSD_csdStatusVar
 3740 0d4b 15       		.uleb128 0x15
 3741 0d4c 23060000 		.4byte	.LASF98
 3742 0d50 01       		.byte	0x1
 3743 0d51 2E       		.byte	0x2e
 3744 0d52 B0000000 		.4byte	0xb0
 3745 0d56 05       		.uleb128 0x5
 3746 0d57 03       		.byte	0x3
 3747 0d58 00000000 		.4byte	CapSense_CSD_sensorIndex
 3748 0d5c 16       		.uleb128 0x16
 3749 0d5d 77000000 		.4byte	0x77
 3750 0d61 6C0D0000 		.4byte	0xd6c
 3751 0d65 17       		.uleb128 0x17
 3752 0d66 C6000000 		.4byte	0xc6
 3753 0d6a 04       		.byte	0x4
 3754 0d6b 00       		.byte	0
 3755 0d6c 15       		.uleb128 0x15
 3756 0d6d E1010000 		.4byte	.LASF99
 3757 0d71 01       		.byte	0x1
 3758 0d72 31       		.byte	0x31
 3759 0d73 5C0D0000 		.4byte	0xd5c
 3760 0d77 05       		.uleb128 0x5
 3761 0d78 03       		.byte	0x3
 3762 0d79 00000000 		.4byte	CapSense_CSD_sensorRaw
 3763 0d7d 16       		.uleb128 0x16
 3764 0d7e 6B000000 		.4byte	0x6b
 3765 0d82 8D0D0000 		.4byte	0xd8d
 3766 0d86 17       		.uleb128 0x17
ARM GAS  C:\Users\ZTIPRI~1\AppData\Local\Temp\ccBGTz86.s 			page 109


 3767 0d87 C6000000 		.4byte	0xc6
 3768 0d8b 04       		.byte	0x4
 3769 0d8c 00       		.byte	0
 3770 0d8d 15       		.uleb128 0x15
 3771 0d8e 98050000 		.4byte	.LASF100
 3772 0d92 01       		.byte	0x1
 3773 0d93 3B       		.byte	0x3b
 3774 0d94 7D0D0000 		.4byte	0xd7d
 3775 0d98 05       		.uleb128 0x5
 3776 0d99 03       		.byte	0x3
 3777 0d9a 00000000 		.4byte	CapSense_CSD_unscannedSnsDriveMode
 3778 0d9e 15       		.uleb128 0x15
 3779 0d9f 3B0A0000 		.4byte	.LASF101
 3780 0da3 01       		.byte	0x1
 3781 0da4 3E       		.byte	0x3e
 3782 0da5 190D0000 		.4byte	0xd19
 3783 0da9 05       		.uleb128 0x5
 3784 0daa 03       		.byte	0x3
 3785 0dab 00000000 		.4byte	CapSense_CSD_sensorEnableMaskBackup
 3786 0daf 15       		.uleb128 0x15
 3787 0db0 A9060000 		.4byte	.LASF102
 3788 0db4 01       		.byte	0x1
 3789 0db5 41       		.byte	0x41
 3790 0db6 190D0000 		.4byte	0xd19
 3791 0dba 05       		.uleb128 0x5
 3792 0dbb 03       		.byte	0x3
 3793 0dbc 00000000 		.4byte	CapSense_CSD_sensorEnableMask
 3794 0dc0 15       		.uleb128 0x15
 3795 0dc1 8B000000 		.4byte	.LASF103
 3796 0dc5 01       		.byte	0x1
 3797 0dc6 64       		.byte	0x64
 3798 0dc7 7D0D0000 		.4byte	0xd7d
 3799 0dcb 05       		.uleb128 0x5
 3800 0dcc 03       		.byte	0x3
 3801 0dcd 00000000 		.4byte	CapSense_CSD_modulationIDAC
 3802 0dd1 15       		.uleb128 0x15
 3803 0dd2 F5060000 		.4byte	.LASF104
 3804 0dd6 01       		.byte	0x1
 3805 0dd7 65       		.byte	0x65
 3806 0dd8 7D0D0000 		.4byte	0xd7d
 3807 0ddc 05       		.uleb128 0x5
 3808 0ddd 03       		.byte	0x3
 3809 0dde 00000000 		.4byte	CapSense_CSD_compensationIDAC
 3810 0de2 16       		.uleb128 0x16
 3811 0de3 83000000 		.4byte	0x83
 3812 0de7 F20D0000 		.4byte	0xdf2
 3813 0deb 17       		.uleb128 0x17
 3814 0dec C6000000 		.4byte	0xc6
 3815 0df0 04       		.byte	0x4
 3816 0df1 00       		.byte	0
 3817 0df2 15       		.uleb128 0x15
 3818 0df3 48000000 		.4byte	.LASF105
 3819 0df7 01       		.byte	0x1
 3820 0df8 67       		.byte	0x67
 3821 0df9 E20D0000 		.4byte	0xde2
 3822 0dfd 05       		.uleb128 0x5
 3823 0dfe 03       		.byte	0x3
ARM GAS  C:\Users\ZTIPRI~1\AppData\Local\Temp\ccBGTz86.s 			page 110


 3824 0dff 00000000 		.4byte	CapSense_CSD_widgetResolution
 3825 0e03 15       		.uleb128 0x15
 3826 0e04 B4000000 		.4byte	.LASF106
 3827 0e08 01       		.byte	0x1
 3828 0e09 6F       		.byte	0x6f
 3829 0e0a 7D0D0000 		.4byte	0xd7d
 3830 0e0e 05       		.uleb128 0x5
 3831 0e0f 03       		.byte	0x3
 3832 0e10 00000000 		.4byte	CapSense_CSD_senseClkDividerVal
 3833 0e14 15       		.uleb128 0x15
 3834 0e15 5F010000 		.4byte	.LASF107
 3835 0e19 01       		.byte	0x1
 3836 0e1a 70       		.byte	0x70
 3837 0e1b 7D0D0000 		.4byte	0xd7d
 3838 0e1f 05       		.uleb128 0x5
 3839 0e20 03       		.byte	0x3
 3840 0e21 00000000 		.4byte	CapSense_CSD_sampleClkDividerVal
 3841 0e25 16       		.uleb128 0x16
 3842 0e26 E0000000 		.4byte	0xe0
 3843 0e2a 350E0000 		.4byte	0xe35
 3844 0e2e 17       		.uleb128 0x17
 3845 0e2f C6000000 		.4byte	0xc6
 3846 0e33 04       		.byte	0x4
 3847 0e34 00       		.byte	0
 3848 0e35 15       		.uleb128 0x15
 3849 0e36 37010000 		.4byte	.LASF108
 3850 0e3a 01       		.byte	0x1
 3851 0e3b 72       		.byte	0x72
 3852 0e3c 460E0000 		.4byte	0xe46
 3853 0e40 05       		.uleb128 0x5
 3854 0e41 03       		.byte	0x3
 3855 0e42 00000000 		.4byte	CapSense_CSD_widgetNumber
 3856 0e46 07       		.uleb128 0x7
 3857 0e47 250E0000 		.4byte	0xe25
 3858 0e4b 16       		.uleb128 0x16
 3859 0e4c 610E0000 		.4byte	0xe61
 3860 0e50 5B0E0000 		.4byte	0xe5b
 3861 0e54 17       		.uleb128 0x17
 3862 0e55 C6000000 		.4byte	0xc6
 3863 0e59 04       		.byte	0x4
 3864 0e5a 00       		.byte	0
 3865 0e5b 06       		.uleb128 0x6
 3866 0e5c 04       		.byte	0x4
 3867 0e5d B5000000 		.4byte	0xb5
 3868 0e61 07       		.uleb128 0x7
 3869 0e62 5B0E0000 		.4byte	0xe5b
 3870 0e66 15       		.uleb128 0x15
 3871 0e67 080B0000 		.4byte	.LASF109
 3872 0e6b 01       		.byte	0x1
 3873 0e6c 7A       		.byte	0x7a
 3874 0e6d 770E0000 		.4byte	0xe77
 3875 0e71 05       		.uleb128 0x5
 3876 0e72 03       		.byte	0x3
 3877 0e73 00000000 		.4byte	CapSense_CSD_prtSelTbl
 3878 0e77 07       		.uleb128 0x7
 3879 0e78 4B0E0000 		.4byte	0xe4b
 3880 0e7c 15       		.uleb128 0x15
ARM GAS  C:\Users\ZTIPRI~1\AppData\Local\Temp\ccBGTz86.s 			page 111


 3881 0e7d 31000000 		.4byte	.LASF110
 3882 0e81 01       		.byte	0x1
 3883 0e82 82       		.byte	0x82
 3884 0e83 8D0E0000 		.4byte	0xe8d
 3885 0e87 05       		.uleb128 0x5
 3886 0e88 03       		.byte	0x3
 3887 0e89 00000000 		.4byte	CapSense_CSD_prtCfgTbl
 3888 0e8d 07       		.uleb128 0x7
 3889 0e8e 4B0E0000 		.4byte	0xe4b
 3890 0e92 15       		.uleb128 0x15
 3891 0e93 4A070000 		.4byte	.LASF111
 3892 0e97 01       		.byte	0x1
 3893 0e98 8A       		.byte	0x8a
 3894 0e99 A30E0000 		.4byte	0xea3
 3895 0e9d 05       		.uleb128 0x5
 3896 0e9e 03       		.byte	0x3
 3897 0e9f 00000000 		.4byte	CapSense_CSD_prtDRTbl
 3898 0ea3 07       		.uleb128 0x7
 3899 0ea4 4B0E0000 		.4byte	0xe4b
 3900 0ea8 16       		.uleb128 0x16
 3901 0ea9 5B0E0000 		.4byte	0xe5b
 3902 0ead B80E0000 		.4byte	0xeb8
 3903 0eb1 17       		.uleb128 0x17
 3904 0eb2 C6000000 		.4byte	0xc6
 3905 0eb6 04       		.byte	0x4
 3906 0eb7 00       		.byte	0
 3907 0eb8 15       		.uleb128 0x15
 3908 0eb9 050A0000 		.4byte	.LASF112
 3909 0ebd 01       		.byte	0x1
 3910 0ebe 44       		.byte	0x44
 3911 0ebf A80E0000 		.4byte	0xea8
 3912 0ec3 05       		.uleb128 0x5
 3913 0ec4 03       		.byte	0x3
 3914 0ec5 00000000 		.4byte	CapSense_CSD_pcTable
 3915 0ec9 15       		.uleb128 0x15
 3916 0eca 60050000 		.4byte	.LASF113
 3917 0ece 01       		.byte	0x1
 3918 0ecf 4C       		.byte	0x4c
 3919 0ed0 DA0E0000 		.4byte	0xeda
 3920 0ed4 05       		.uleb128 0x5
 3921 0ed5 03       		.byte	0x3
 3922 0ed6 00000000 		.4byte	CapSense_CSD_portTable
 3923 0eda 07       		.uleb128 0x7
 3924 0edb 250E0000 		.4byte	0xe25
 3925 0edf 16       		.uleb128 0x16
 3926 0ee0 EF0E0000 		.4byte	0xeef
 3927 0ee4 EF0E0000 		.4byte	0xeef
 3928 0ee8 17       		.uleb128 0x17
 3929 0ee9 C6000000 		.4byte	0xc6
 3930 0eed 04       		.byte	0x4
 3931 0eee 00       		.byte	0
 3932 0eef 07       		.uleb128 0x7
 3933 0ef0 83000000 		.4byte	0x83
 3934 0ef4 15       		.uleb128 0x15
 3935 0ef5 7E040000 		.4byte	.LASF114
 3936 0ef9 01       		.byte	0x1
 3937 0efa 54       		.byte	0x54
ARM GAS  C:\Users\ZTIPRI~1\AppData\Local\Temp\ccBGTz86.s 			page 112


 3938 0efb 050F0000 		.4byte	0xf05
 3939 0eff 05       		.uleb128 0x5
 3940 0f00 03       		.byte	0x3
 3941 0f01 00000000 		.4byte	CapSense_CSD_maskTable
 3942 0f05 07       		.uleb128 0x7
 3943 0f06 DF0E0000 		.4byte	0xedf
 3944 0f0a 15       		.uleb128 0x15
 3945 0f0b C0090000 		.4byte	.LASF115
 3946 0f0f 01       		.byte	0x1
 3947 0f10 5C       		.byte	0x5c
 3948 0f11 1B0F0000 		.4byte	0xf1b
 3949 0f15 05       		.uleb128 0x5
 3950 0f16 03       		.byte	0x3
 3951 0f17 00000000 		.4byte	CapSense_CSD_pinShiftTbl
 3952 0f1b 07       		.uleb128 0x7
 3953 0f1c 250E0000 		.4byte	0xe25
 3954 0f20 18       		.uleb128 0x18
 3955 0f21 D8080000 		.4byte	.LASF116
 3956 0f25 03       		.byte	0x3
 3957 0f26 3E01     		.2byte	0x13e
 3958 0f28 2C0F0000 		.4byte	0xf2c
 3959 0f2c 07       		.uleb128 0x7
 3960 0f2d 250E0000 		.4byte	0xe25
 3961 0f31 18       		.uleb128 0x18
 3962 0f32 95040000 		.4byte	.LASF117
 3963 0f36 03       		.byte	0x3
 3964 0f37 3F01     		.2byte	0x13f
 3965 0f39 3D0F0000 		.4byte	0xf3d
 3966 0f3d 07       		.uleb128 0x7
 3967 0f3e 250E0000 		.4byte	0xe25
 3968 0f42 15       		.uleb128 0x15
 3969 0f43 2E070000 		.4byte	.LASF118
 3970 0f47 01       		.byte	0x1
 3971 0f48 37       		.byte	0x37
 3972 0f49 6B000000 		.4byte	0x6b
 3973 0f4d 05       		.uleb128 0x5
 3974 0f4e 03       		.byte	0x3
 3975 0f4f 00000000 		.4byte	CapSense_CSD_csdTrim1
 3976 0f53 19       		.uleb128 0x19
 3977 0f54 C0010000 		.4byte	.LASF119
 3978 0f58 C0010000 		.4byte	.LASF119
 3979 0f5c 04       		.byte	0x4
 3980 0f5d C5       		.byte	0xc5
 3981 0f5e 19       		.uleb128 0x19
 3982 0f5f 2B050000 		.4byte	.LASF120
 3983 0f63 2B050000 		.4byte	.LASF120
 3984 0f67 04       		.byte	0x4
 3985 0f68 BD       		.byte	0xbd
 3986 0f69 19       		.uleb128 0x19
 3987 0f6a 00000000 		.4byte	.LASF121
 3988 0f6e 00000000 		.4byte	.LASF121
 3989 0f72 04       		.byte	0x4
 3990 0f73 C0       		.byte	0xc0
 3991 0f74 19       		.uleb128 0x19
 3992 0f75 80010000 		.4byte	.LASF122
 3993 0f79 80010000 		.4byte	.LASF122
 3994 0f7d 05       		.byte	0x5
ARM GAS  C:\Users\ZTIPRI~1\AppData\Local\Temp\ccBGTz86.s 			page 113


 3995 0f7e 27       		.byte	0x27
 3996 0f7f 19       		.uleb128 0x19
 3997 0f80 02050000 		.4byte	.LASF123
 3998 0f84 02050000 		.4byte	.LASF123
 3999 0f88 06       		.byte	0x6
 4000 0f89 27       		.byte	0x27
 4001 0f8a 19       		.uleb128 0x19
 4002 0f8b BB050000 		.4byte	.LASF124
 4003 0f8f BB050000 		.4byte	.LASF124
 4004 0f93 06       		.byte	0x6
 4005 0f94 29       		.byte	0x29
 4006 0f95 19       		.uleb128 0x19
 4007 0f96 BC030000 		.4byte	.LASF125
 4008 0f9a BC030000 		.4byte	.LASF125
 4009 0f9e 05       		.byte	0x5
 4010 0f9f 29       		.byte	0x29
 4011 0fa0 19       		.uleb128 0x19
 4012 0fa1 92070000 		.4byte	.LASF126
 4013 0fa5 92070000 		.4byte	.LASF126
 4014 0fa9 05       		.byte	0x5
 4015 0faa 23       		.byte	0x23
 4016 0fab 19       		.uleb128 0x19
 4017 0fac F4070000 		.4byte	.LASF127
 4018 0fb0 F4070000 		.4byte	.LASF127
 4019 0fb4 06       		.byte	0x6
 4020 0fb5 23       		.byte	0x23
 4021 0fb6 19       		.uleb128 0x19
 4022 0fb7 40090000 		.4byte	.LASF128
 4023 0fbb 40090000 		.4byte	.LASF128
 4024 0fbf 04       		.byte	0x4
 4025 0fc0 C3       		.byte	0xc3
 4026 0fc1 19       		.uleb128 0x19
 4027 0fc2 5F0A0000 		.4byte	.LASF129
 4028 0fc6 5F0A0000 		.4byte	.LASF129
 4029 0fca 04       		.byte	0x4
 4030 0fcb E5       		.byte	0xe5
 4031 0fcc 19       		.uleb128 0x19
 4032 0fcd B7040000 		.4byte	.LASF130
 4033 0fd1 B7040000 		.4byte	.LASF130
 4034 0fd5 04       		.byte	0x4
 4035 0fd6 E6       		.byte	0xe6
 4036 0fd7 19       		.uleb128 0x19
 4037 0fd8 CD040000 		.4byte	.LASF131
 4038 0fdc CD040000 		.4byte	.LASF131
 4039 0fe0 04       		.byte	0x4
 4040 0fe1 DC       		.byte	0xdc
 4041 0fe2 1A       		.uleb128 0x1a
 4042 0fe3 8B030000 		.4byte	.LASF132
 4043 0fe7 8B030000 		.4byte	.LASF132
 4044 0feb 07       		.byte	0x7
 4045 0fec BD02     		.2byte	0x2bd
 4046 0fee 00       		.byte	0
 4047              		.section	.debug_abbrev,"",%progbits
 4048              	.Ldebug_abbrev0:
 4049 0000 01       		.uleb128 0x1
 4050 0001 11       		.uleb128 0x11
 4051 0002 01       		.byte	0x1
ARM GAS  C:\Users\ZTIPRI~1\AppData\Local\Temp\ccBGTz86.s 			page 114


 4052 0003 25       		.uleb128 0x25
 4053 0004 0E       		.uleb128 0xe
 4054 0005 13       		.uleb128 0x13
 4055 0006 0B       		.uleb128 0xb
 4056 0007 03       		.uleb128 0x3
 4057 0008 0E       		.uleb128 0xe
 4058 0009 1B       		.uleb128 0x1b
 4059 000a 0E       		.uleb128 0xe
 4060 000b 55       		.uleb128 0x55
 4061 000c 17       		.uleb128 0x17
 4062 000d 11       		.uleb128 0x11
 4063 000e 01       		.uleb128 0x1
 4064 000f 10       		.uleb128 0x10
 4065 0010 17       		.uleb128 0x17
 4066 0011 00       		.byte	0
 4067 0012 00       		.byte	0
 4068 0013 02       		.uleb128 0x2
 4069 0014 24       		.uleb128 0x24
 4070 0015 00       		.byte	0
 4071 0016 0B       		.uleb128 0xb
 4072 0017 0B       		.uleb128 0xb
 4073 0018 3E       		.uleb128 0x3e
 4074 0019 0B       		.uleb128 0xb
 4075 001a 03       		.uleb128 0x3
 4076 001b 0E       		.uleb128 0xe
 4077 001c 00       		.byte	0
 4078 001d 00       		.byte	0
 4079 001e 03       		.uleb128 0x3
 4080 001f 24       		.uleb128 0x24
 4081 0020 00       		.byte	0
 4082 0021 0B       		.uleb128 0xb
 4083 0022 0B       		.uleb128 0xb
 4084 0023 3E       		.uleb128 0x3e
 4085 0024 0B       		.uleb128 0xb
 4086 0025 03       		.uleb128 0x3
 4087 0026 08       		.uleb128 0x8
 4088 0027 00       		.byte	0
 4089 0028 00       		.byte	0
 4090 0029 04       		.uleb128 0x4
 4091 002a 16       		.uleb128 0x16
 4092 002b 00       		.byte	0
 4093 002c 03       		.uleb128 0x3
 4094 002d 0E       		.uleb128 0xe
 4095 002e 3A       		.uleb128 0x3a
 4096 002f 0B       		.uleb128 0xb
 4097 0030 3B       		.uleb128 0x3b
 4098 0031 05       		.uleb128 0x5
 4099 0032 49       		.uleb128 0x49
 4100 0033 13       		.uleb128 0x13
 4101 0034 00       		.byte	0
 4102 0035 00       		.byte	0
 4103 0036 05       		.uleb128 0x5
 4104 0037 35       		.uleb128 0x35
 4105 0038 00       		.byte	0
 4106 0039 49       		.uleb128 0x49
 4107 003a 13       		.uleb128 0x13
 4108 003b 00       		.byte	0
ARM GAS  C:\Users\ZTIPRI~1\AppData\Local\Temp\ccBGTz86.s 			page 115


 4109 003c 00       		.byte	0
 4110 003d 06       		.uleb128 0x6
 4111 003e 0F       		.uleb128 0xf
 4112 003f 00       		.byte	0
 4113 0040 0B       		.uleb128 0xb
 4114 0041 0B       		.uleb128 0xb
 4115 0042 49       		.uleb128 0x49
 4116 0043 13       		.uleb128 0x13
 4117 0044 00       		.byte	0
 4118 0045 00       		.byte	0
 4119 0046 07       		.uleb128 0x7
 4120 0047 26       		.uleb128 0x26
 4121 0048 00       		.byte	0
 4122 0049 49       		.uleb128 0x49
 4123 004a 13       		.uleb128 0x13
 4124 004b 00       		.byte	0
 4125 004c 00       		.byte	0
 4126 004d 08       		.uleb128 0x8
 4127 004e 2E       		.uleb128 0x2e
 4128 004f 01       		.byte	0x1
 4129 0050 3F       		.uleb128 0x3f
 4130 0051 19       		.uleb128 0x19
 4131 0052 03       		.uleb128 0x3
 4132 0053 0E       		.uleb128 0xe
 4133 0054 3A       		.uleb128 0x3a
 4134 0055 0B       		.uleb128 0xb
 4135 0056 3B       		.uleb128 0x3b
 4136 0057 0B       		.uleb128 0xb
 4137 0058 27       		.uleb128 0x27
 4138 0059 19       		.uleb128 0x19
 4139 005a 11       		.uleb128 0x11
 4140 005b 01       		.uleb128 0x1
 4141 005c 12       		.uleb128 0x12
 4142 005d 06       		.uleb128 0x6
 4143 005e 40       		.uleb128 0x40
 4144 005f 18       		.uleb128 0x18
 4145 0060 9742     		.uleb128 0x2117
 4146 0062 19       		.uleb128 0x19
 4147 0063 01       		.uleb128 0x1
 4148 0064 13       		.uleb128 0x13
 4149 0065 00       		.byte	0
 4150 0066 00       		.byte	0
 4151 0067 09       		.uleb128 0x9
 4152 0068 34       		.uleb128 0x34
 4153 0069 00       		.byte	0
 4154 006a 03       		.uleb128 0x3
 4155 006b 0E       		.uleb128 0xe
 4156 006c 3A       		.uleb128 0x3a
 4157 006d 0B       		.uleb128 0xb
 4158 006e 3B       		.uleb128 0x3b
 4159 006f 0B       		.uleb128 0xb
 4160 0070 49       		.uleb128 0x49
 4161 0071 13       		.uleb128 0x13
 4162 0072 02       		.uleb128 0x2
 4163 0073 17       		.uleb128 0x17
 4164 0074 00       		.byte	0
 4165 0075 00       		.byte	0
ARM GAS  C:\Users\ZTIPRI~1\AppData\Local\Temp\ccBGTz86.s 			page 116


 4166 0076 0A       		.uleb128 0xa
 4167 0077 898201   		.uleb128 0x4109
 4168 007a 01       		.byte	0x1
 4169 007b 11       		.uleb128 0x11
 4170 007c 01       		.uleb128 0x1
 4171 007d 31       		.uleb128 0x31
 4172 007e 13       		.uleb128 0x13
 4173 007f 01       		.uleb128 0x1
 4174 0080 13       		.uleb128 0x13
 4175 0081 00       		.byte	0
 4176 0082 00       		.byte	0
 4177 0083 0B       		.uleb128 0xb
 4178 0084 8A8201   		.uleb128 0x410a
 4179 0087 00       		.byte	0
 4180 0088 02       		.uleb128 0x2
 4181 0089 18       		.uleb128 0x18
 4182 008a 9142     		.uleb128 0x2111
 4183 008c 18       		.uleb128 0x18
 4184 008d 00       		.byte	0
 4185 008e 00       		.byte	0
 4186 008f 0C       		.uleb128 0xc
 4187 0090 898201   		.uleb128 0x4109
 4188 0093 01       		.byte	0x1
 4189 0094 11       		.uleb128 0x11
 4190 0095 01       		.uleb128 0x1
 4191 0096 31       		.uleb128 0x31
 4192 0097 13       		.uleb128 0x13
 4193 0098 00       		.byte	0
 4194 0099 00       		.byte	0
 4195 009a 0D       		.uleb128 0xd
 4196 009b 2E       		.uleb128 0x2e
 4197 009c 01       		.byte	0x1
 4198 009d 3F       		.uleb128 0x3f
 4199 009e 19       		.uleb128 0x19
 4200 009f 03       		.uleb128 0x3
 4201 00a0 0E       		.uleb128 0xe
 4202 00a1 3A       		.uleb128 0x3a
 4203 00a2 0B       		.uleb128 0xb
 4204 00a3 3B       		.uleb128 0x3b
 4205 00a4 05       		.uleb128 0x5
 4206 00a5 27       		.uleb128 0x27
 4207 00a6 19       		.uleb128 0x19
 4208 00a7 11       		.uleb128 0x11
 4209 00a8 01       		.uleb128 0x1
 4210 00a9 12       		.uleb128 0x12
 4211 00aa 06       		.uleb128 0x6
 4212 00ab 40       		.uleb128 0x40
 4213 00ac 18       		.uleb128 0x18
 4214 00ad 9742     		.uleb128 0x2117
 4215 00af 19       		.uleb128 0x19
 4216 00b0 01       		.uleb128 0x1
 4217 00b1 13       		.uleb128 0x13
 4218 00b2 00       		.byte	0
 4219 00b3 00       		.byte	0
 4220 00b4 0E       		.uleb128 0xe
 4221 00b5 34       		.uleb128 0x34
 4222 00b6 00       		.byte	0
ARM GAS  C:\Users\ZTIPRI~1\AppData\Local\Temp\ccBGTz86.s 			page 117


 4223 00b7 03       		.uleb128 0x3
 4224 00b8 0E       		.uleb128 0xe
 4225 00b9 3A       		.uleb128 0x3a
 4226 00ba 0B       		.uleb128 0xb
 4227 00bb 3B       		.uleb128 0x3b
 4228 00bc 05       		.uleb128 0x5
 4229 00bd 49       		.uleb128 0x49
 4230 00be 13       		.uleb128 0x13
 4231 00bf 02       		.uleb128 0x2
 4232 00c0 17       		.uleb128 0x17
 4233 00c1 00       		.byte	0
 4234 00c2 00       		.byte	0
 4235 00c3 0F       		.uleb128 0xf
 4236 00c4 898201   		.uleb128 0x4109
 4237 00c7 00       		.byte	0
 4238 00c8 11       		.uleb128 0x11
 4239 00c9 01       		.uleb128 0x1
 4240 00ca 31       		.uleb128 0x31
 4241 00cb 13       		.uleb128 0x13
 4242 00cc 00       		.byte	0
 4243 00cd 00       		.byte	0
 4244 00ce 10       		.uleb128 0x10
 4245 00cf 2E       		.uleb128 0x2e
 4246 00d0 00       		.byte	0
 4247 00d1 3F       		.uleb128 0x3f
 4248 00d2 19       		.uleb128 0x19
 4249 00d3 03       		.uleb128 0x3
 4250 00d4 0E       		.uleb128 0xe
 4251 00d5 3A       		.uleb128 0x3a
 4252 00d6 0B       		.uleb128 0xb
 4253 00d7 3B       		.uleb128 0x3b
 4254 00d8 05       		.uleb128 0x5
 4255 00d9 27       		.uleb128 0x27
 4256 00da 19       		.uleb128 0x19
 4257 00db 49       		.uleb128 0x49
 4258 00dc 13       		.uleb128 0x13
 4259 00dd 11       		.uleb128 0x11
 4260 00de 01       		.uleb128 0x1
 4261 00df 12       		.uleb128 0x12
 4262 00e0 06       		.uleb128 0x6
 4263 00e1 40       		.uleb128 0x40
 4264 00e2 18       		.uleb128 0x18
 4265 00e3 9742     		.uleb128 0x2117
 4266 00e5 19       		.uleb128 0x19
 4267 00e6 00       		.byte	0
 4268 00e7 00       		.byte	0
 4269 00e8 11       		.uleb128 0x11
 4270 00e9 2E       		.uleb128 0x2e
 4271 00ea 01       		.byte	0x1
 4272 00eb 3F       		.uleb128 0x3f
 4273 00ec 19       		.uleb128 0x19
 4274 00ed 03       		.uleb128 0x3
 4275 00ee 0E       		.uleb128 0xe
 4276 00ef 3A       		.uleb128 0x3a
 4277 00f0 0B       		.uleb128 0xb
 4278 00f1 3B       		.uleb128 0x3b
 4279 00f2 05       		.uleb128 0x5
ARM GAS  C:\Users\ZTIPRI~1\AppData\Local\Temp\ccBGTz86.s 			page 118


 4280 00f3 27       		.uleb128 0x27
 4281 00f4 19       		.uleb128 0x19
 4282 00f5 49       		.uleb128 0x49
 4283 00f6 13       		.uleb128 0x13
 4284 00f7 11       		.uleb128 0x11
 4285 00f8 01       		.uleb128 0x1
 4286 00f9 12       		.uleb128 0x12
 4287 00fa 06       		.uleb128 0x6
 4288 00fb 40       		.uleb128 0x40
 4289 00fc 18       		.uleb128 0x18
 4290 00fd 9742     		.uleb128 0x2117
 4291 00ff 19       		.uleb128 0x19
 4292 0100 01       		.uleb128 0x1
 4293 0101 13       		.uleb128 0x13
 4294 0102 00       		.byte	0
 4295 0103 00       		.byte	0
 4296 0104 12       		.uleb128 0x12
 4297 0105 05       		.uleb128 0x5
 4298 0106 00       		.byte	0
 4299 0107 03       		.uleb128 0x3
 4300 0108 0E       		.uleb128 0xe
 4301 0109 3A       		.uleb128 0x3a
 4302 010a 0B       		.uleb128 0xb
 4303 010b 3B       		.uleb128 0x3b
 4304 010c 05       		.uleb128 0x5
 4305 010d 49       		.uleb128 0x49
 4306 010e 13       		.uleb128 0x13
 4307 010f 02       		.uleb128 0x2
 4308 0110 17       		.uleb128 0x17
 4309 0111 00       		.byte	0
 4310 0112 00       		.byte	0
 4311 0113 13       		.uleb128 0x13
 4312 0114 05       		.uleb128 0x5
 4313 0115 00       		.byte	0
 4314 0116 03       		.uleb128 0x3
 4315 0117 0E       		.uleb128 0xe
 4316 0118 3A       		.uleb128 0x3a
 4317 0119 0B       		.uleb128 0xb
 4318 011a 3B       		.uleb128 0x3b
 4319 011b 05       		.uleb128 0x5
 4320 011c 49       		.uleb128 0x49
 4321 011d 13       		.uleb128 0x13
 4322 011e 02       		.uleb128 0x2
 4323 011f 18       		.uleb128 0x18
 4324 0120 00       		.byte	0
 4325 0121 00       		.byte	0
 4326 0122 14       		.uleb128 0x14
 4327 0123 34       		.uleb128 0x34
 4328 0124 00       		.byte	0
 4329 0125 03       		.uleb128 0x3
 4330 0126 0E       		.uleb128 0xe
 4331 0127 3A       		.uleb128 0x3a
 4332 0128 0B       		.uleb128 0xb
 4333 0129 3B       		.uleb128 0x3b
 4334 012a 05       		.uleb128 0x5
 4335 012b 49       		.uleb128 0x49
 4336 012c 13       		.uleb128 0x13
ARM GAS  C:\Users\ZTIPRI~1\AppData\Local\Temp\ccBGTz86.s 			page 119


 4337 012d 02       		.uleb128 0x2
 4338 012e 18       		.uleb128 0x18
 4339 012f 00       		.byte	0
 4340 0130 00       		.byte	0
 4341 0131 15       		.uleb128 0x15
 4342 0132 34       		.uleb128 0x34
 4343 0133 00       		.byte	0
 4344 0134 03       		.uleb128 0x3
 4345 0135 0E       		.uleb128 0xe
 4346 0136 3A       		.uleb128 0x3a
 4347 0137 0B       		.uleb128 0xb
 4348 0138 3B       		.uleb128 0x3b
 4349 0139 0B       		.uleb128 0xb
 4350 013a 49       		.uleb128 0x49
 4351 013b 13       		.uleb128 0x13
 4352 013c 3F       		.uleb128 0x3f
 4353 013d 19       		.uleb128 0x19
 4354 013e 02       		.uleb128 0x2
 4355 013f 18       		.uleb128 0x18
 4356 0140 00       		.byte	0
 4357 0141 00       		.byte	0
 4358 0142 16       		.uleb128 0x16
 4359 0143 01       		.uleb128 0x1
 4360 0144 01       		.byte	0x1
 4361 0145 49       		.uleb128 0x49
 4362 0146 13       		.uleb128 0x13
 4363 0147 01       		.uleb128 0x1
 4364 0148 13       		.uleb128 0x13
 4365 0149 00       		.byte	0
 4366 014a 00       		.byte	0
 4367 014b 17       		.uleb128 0x17
 4368 014c 21       		.uleb128 0x21
 4369 014d 00       		.byte	0
 4370 014e 49       		.uleb128 0x49
 4371 014f 13       		.uleb128 0x13
 4372 0150 2F       		.uleb128 0x2f
 4373 0151 0B       		.uleb128 0xb
 4374 0152 00       		.byte	0
 4375 0153 00       		.byte	0
 4376 0154 18       		.uleb128 0x18
 4377 0155 34       		.uleb128 0x34
 4378 0156 00       		.byte	0
 4379 0157 03       		.uleb128 0x3
 4380 0158 0E       		.uleb128 0xe
 4381 0159 3A       		.uleb128 0x3a
 4382 015a 0B       		.uleb128 0xb
 4383 015b 3B       		.uleb128 0x3b
 4384 015c 05       		.uleb128 0x5
 4385 015d 49       		.uleb128 0x49
 4386 015e 13       		.uleb128 0x13
 4387 015f 3F       		.uleb128 0x3f
 4388 0160 19       		.uleb128 0x19
 4389 0161 3C       		.uleb128 0x3c
 4390 0162 19       		.uleb128 0x19
 4391 0163 00       		.byte	0
 4392 0164 00       		.byte	0
 4393 0165 19       		.uleb128 0x19
ARM GAS  C:\Users\ZTIPRI~1\AppData\Local\Temp\ccBGTz86.s 			page 120


 4394 0166 2E       		.uleb128 0x2e
 4395 0167 00       		.byte	0
 4396 0168 3F       		.uleb128 0x3f
 4397 0169 19       		.uleb128 0x19
 4398 016a 3C       		.uleb128 0x3c
 4399 016b 19       		.uleb128 0x19
 4400 016c 6E       		.uleb128 0x6e
 4401 016d 0E       		.uleb128 0xe
 4402 016e 03       		.uleb128 0x3
 4403 016f 0E       		.uleb128 0xe
 4404 0170 3A       		.uleb128 0x3a
 4405 0171 0B       		.uleb128 0xb
 4406 0172 3B       		.uleb128 0x3b
 4407 0173 0B       		.uleb128 0xb
 4408 0174 00       		.byte	0
 4409 0175 00       		.byte	0
 4410 0176 1A       		.uleb128 0x1a
 4411 0177 2E       		.uleb128 0x2e
 4412 0178 00       		.byte	0
 4413 0179 3F       		.uleb128 0x3f
 4414 017a 19       		.uleb128 0x19
 4415 017b 3C       		.uleb128 0x3c
 4416 017c 19       		.uleb128 0x19
 4417 017d 6E       		.uleb128 0x6e
 4418 017e 0E       		.uleb128 0xe
 4419 017f 03       		.uleb128 0x3
 4420 0180 0E       		.uleb128 0xe
 4421 0181 3A       		.uleb128 0x3a
 4422 0182 0B       		.uleb128 0xb
 4423 0183 3B       		.uleb128 0x3b
 4424 0184 05       		.uleb128 0x5
 4425 0185 00       		.byte	0
 4426 0186 00       		.byte	0
 4427 0187 00       		.byte	0
 4428              		.section	.debug_loc,"",%progbits
 4429              	.Ldebug_loc0:
 4430              	.LLST0:
 4431 0000 0C000000 		.4byte	.LVL0
 4432 0004 10000000 		.4byte	.LVL1
 4433 0008 0100     		.2byte	0x1
 4434 000a 53       		.byte	0x53
 4435 000b 12000000 		.4byte	.LVL2
 4436 000f 1C000000 		.4byte	.LVL3
 4437 0013 0100     		.2byte	0x1
 4438 0015 51       		.byte	0x51
 4439 0016 1C000000 		.4byte	.LVL3
 4440 001a 2C000000 		.4byte	.LVL6
 4441 001e 0100     		.2byte	0x1
 4442 0020 53       		.byte	0x53
 4443 0021 2C000000 		.4byte	.LVL6
 4444 0025 2E000000 		.4byte	.LVL7
 4445 0029 0200     		.2byte	0x2
 4446 002b 70       		.byte	0x70
 4447 002c 00       		.sleb128 0
 4448 002d 38000000 		.4byte	.LVL8
 4449 0031 3C000000 		.4byte	.LVL9
 4450 0035 0100     		.2byte	0x1
ARM GAS  C:\Users\ZTIPRI~1\AppData\Local\Temp\ccBGTz86.s 			page 121


 4451 0037 51       		.byte	0x51
 4452 0038 3C000000 		.4byte	.LVL9
 4453 003c 49000000 		.4byte	.LVL11-1
 4454 0040 0100     		.2byte	0x1
 4455 0042 53       		.byte	0x53
 4456 0043 00000000 		.4byte	0
 4457 0047 00000000 		.4byte	0
 4458              	.LLST1:
 4459 004b 26000000 		.4byte	.LVL20
 4460 004f 31000000 		.4byte	.LVL22-1
 4461 0053 0100     		.2byte	0x1
 4462 0055 53       		.byte	0x53
 4463 0056 00000000 		.4byte	0
 4464 005a 00000000 		.4byte	0
 4465              	.LLST2:
 4466 005e 00000000 		.4byte	.LVL26
 4467 0062 02000000 		.4byte	.LVL27
 4468 0066 0100     		.2byte	0x1
 4469 0068 50       		.byte	0x50
 4470 0069 02000000 		.4byte	.LVL27
 4471 006d 10000000 		.4byte	.LFE42
 4472 0071 0400     		.2byte	0x4
 4473 0073 F3       		.byte	0xf3
 4474 0074 01       		.uleb128 0x1
 4475 0075 50       		.byte	0x50
 4476 0076 9F       		.byte	0x9f
 4477 0077 00000000 		.4byte	0
 4478 007b 00000000 		.4byte	0
 4479              	.LLST3:
 4480 007f 00000000 		.4byte	.LVL28
 4481 0083 02000000 		.4byte	.LVL29
 4482 0087 0100     		.2byte	0x1
 4483 0089 50       		.byte	0x50
 4484 008a 02000000 		.4byte	.LVL29
 4485 008e 10000000 		.4byte	.LFE43
 4486 0092 0400     		.2byte	0x4
 4487 0094 F3       		.byte	0xf3
 4488 0095 01       		.uleb128 0x1
 4489 0096 50       		.byte	0x50
 4490 0097 9F       		.byte	0x9f
 4491 0098 00000000 		.4byte	0
 4492 009c 00000000 		.4byte	0
 4493              	.LLST4:
 4494 00a0 00000000 		.4byte	.LVL30
 4495 00a4 02000000 		.4byte	.LVL31
 4496 00a8 0100     		.2byte	0x1
 4497 00aa 50       		.byte	0x50
 4498 00ab 02000000 		.4byte	.LVL31
 4499 00af 0C000000 		.4byte	.LFE44
 4500 00b3 0400     		.2byte	0x4
 4501 00b5 F3       		.byte	0xf3
 4502 00b6 01       		.uleb128 0x1
 4503 00b7 50       		.byte	0x50
 4504 00b8 9F       		.byte	0x9f
 4505 00b9 00000000 		.4byte	0
 4506 00bd 00000000 		.4byte	0
 4507              	.LLST5:
ARM GAS  C:\Users\ZTIPRI~1\AppData\Local\Temp\ccBGTz86.s 			page 122


 4508 00c1 00000000 		.4byte	.LVL32
 4509 00c5 02000000 		.4byte	.LVL33
 4510 00c9 0100     		.2byte	0x1
 4511 00cb 50       		.byte	0x50
 4512 00cc 02000000 		.4byte	.LVL33
 4513 00d0 0C000000 		.4byte	.LFE45
 4514 00d4 0400     		.2byte	0x4
 4515 00d6 F3       		.byte	0xf3
 4516 00d7 01       		.uleb128 0x1
 4517 00d8 50       		.byte	0x50
 4518 00d9 9F       		.byte	0x9f
 4519 00da 00000000 		.4byte	0
 4520 00de 00000000 		.4byte	0
 4521              	.LLST6:
 4522 00e2 00000000 		.4byte	.LVL34
 4523 00e6 08000000 		.4byte	.LVL36
 4524 00ea 0100     		.2byte	0x1
 4525 00ec 50       		.byte	0x50
 4526 00ed 08000000 		.4byte	.LVL36
 4527 00f1 48000000 		.4byte	.LFE47
 4528 00f5 0400     		.2byte	0x4
 4529 00f7 F3       		.byte	0xf3
 4530 00f8 01       		.uleb128 0x1
 4531 00f9 50       		.byte	0x50
 4532 00fa 9F       		.byte	0x9f
 4533 00fb 00000000 		.4byte	0
 4534 00ff 00000000 		.4byte	0
 4535              	.LLST7:
 4536 0103 10000000 		.4byte	.LVL37
 4537 0107 40000000 		.4byte	.LVL47
 4538 010b 0100     		.2byte	0x1
 4539 010d 55       		.byte	0x55
 4540 010e 40000000 		.4byte	.LVL47
 4541 0112 40000000 		.4byte	.LVL48
 4542 0116 1E00     		.2byte	0x1e
 4543 0118 77       		.byte	0x77
 4544 0119 00       		.sleb128 0
 4545 011a F3       		.byte	0xf3
 4546 011b 01       		.uleb128 0x1
 4547 011c 50       		.byte	0x50
 4548 011d 22       		.byte	0x22
 4549 011e 23       		.byte	0x23
 4550 011f 08       		.uleb128 0x8
 4551 0120 94       		.byte	0x94
 4552 0121 01       		.byte	0x1
 4553 0122 08       		.byte	0x8
 4554 0123 FF       		.byte	0xff
 4555 0124 1A       		.byte	0x1a
 4556 0125 31       		.byte	0x31
 4557 0126 24       		.byte	0x24
 4558 0127 77       		.byte	0x77
 4559 0128 00       		.sleb128 0
 4560 0129 F3       		.byte	0xf3
 4561 012a 01       		.uleb128 0x1
 4562 012b 50       		.byte	0x50
 4563 012c 22       		.byte	0x22
 4564 012d 23       		.byte	0x23
ARM GAS  C:\Users\ZTIPRI~1\AppData\Local\Temp\ccBGTz86.s 			page 123


 4565 012e 08       		.uleb128 0x8
 4566 012f 94       		.byte	0x94
 4567 0130 01       		.byte	0x1
 4568 0131 08       		.byte	0x8
 4569 0132 FF       		.byte	0xff
 4570 0133 1A       		.byte	0x1a
 4571 0134 22       		.byte	0x22
 4572 0135 9F       		.byte	0x9f
 4573 0136 40000000 		.4byte	.LVL48
 4574 013a 48000000 		.4byte	.LFE47
 4575 013e 2000     		.2byte	0x20
 4576 0140 F3       		.byte	0xf3
 4577 0141 01       		.uleb128 0x1
 4578 0142 50       		.byte	0x50
 4579 0143 03       		.byte	0x3
 4580 0144 08000000 		.4byte	.LANCHOR2+8
 4581 0148 22       		.byte	0x22
 4582 0149 94       		.byte	0x94
 4583 014a 01       		.byte	0x1
 4584 014b 08       		.byte	0x8
 4585 014c FF       		.byte	0xff
 4586 014d 1A       		.byte	0x1a
 4587 014e 31       		.byte	0x31
 4588 014f 24       		.byte	0x24
 4589 0150 F3       		.byte	0xf3
 4590 0151 01       		.uleb128 0x1
 4591 0152 50       		.byte	0x50
 4592 0153 03       		.byte	0x3
 4593 0154 08000000 		.4byte	.LANCHOR2+8
 4594 0158 22       		.byte	0x22
 4595 0159 94       		.byte	0x94
 4596 015a 01       		.byte	0x1
 4597 015b 08       		.byte	0x8
 4598 015c FF       		.byte	0xff
 4599 015d 1A       		.byte	0x1a
 4600 015e 22       		.byte	0x22
 4601 015f 9F       		.byte	0x9f
 4602 0160 00000000 		.4byte	0
 4603 0164 00000000 		.4byte	0
 4604              	.LLST8:
 4605 0168 14000000 		.4byte	.LVL38
 4606 016c 30000000 		.4byte	.LVL45
 4607 0170 0100     		.2byte	0x1
 4608 0172 54       		.byte	0x54
 4609 0173 30000000 		.4byte	.LVL45
 4610 0177 40000000 		.4byte	.LVL48
 4611 017b 0D00     		.2byte	0xd
 4612 017d 77       		.byte	0x77
 4613 017e 00       		.sleb128 0
 4614 017f F3       		.byte	0xf3
 4615 0180 01       		.uleb128 0x1
 4616 0181 50       		.byte	0x50
 4617 0182 22       		.byte	0x22
 4618 0183 23       		.byte	0x23
 4619 0184 08       		.uleb128 0x8
 4620 0185 94       		.byte	0x94
 4621 0186 01       		.byte	0x1
ARM GAS  C:\Users\ZTIPRI~1\AppData\Local\Temp\ccBGTz86.s 			page 124


 4622 0187 32       		.byte	0x32
 4623 0188 24       		.byte	0x24
 4624 0189 9F       		.byte	0x9f
 4625 018a 40000000 		.4byte	.LVL48
 4626 018e 48000000 		.4byte	.LFE47
 4627 0192 0E00     		.2byte	0xe
 4628 0194 F3       		.byte	0xf3
 4629 0195 01       		.uleb128 0x1
 4630 0196 50       		.byte	0x50
 4631 0197 03       		.byte	0x3
 4632 0198 08000000 		.4byte	.LANCHOR2+8
 4633 019c 22       		.byte	0x22
 4634 019d 94       		.byte	0x94
 4635 019e 01       		.byte	0x1
 4636 019f 32       		.byte	0x32
 4637 01a0 24       		.byte	0x24
 4638 01a1 9F       		.byte	0x9f
 4639 01a2 00000000 		.4byte	0
 4640 01a6 00000000 		.4byte	0
 4641              	.LLST9:
 4642 01aa 18000000 		.4byte	.LVL39
 4643 01ae 3F000000 		.4byte	.LVL46-1
 4644 01b2 0100     		.2byte	0x1
 4645 01b4 50       		.byte	0x50
 4646 01b5 00000000 		.4byte	0
 4647 01b9 00000000 		.4byte	0
 4648              	.LLST10:
 4649 01bd 20000000 		.4byte	.LVL41
 4650 01c1 26000000 		.4byte	.LVL42
 4651 01c5 0100     		.2byte	0x1
 4652 01c7 52       		.byte	0x52
 4653 01c8 28000000 		.4byte	.LVL43
 4654 01cc 2E000000 		.4byte	.LVL44
 4655 01d0 0100     		.2byte	0x1
 4656 01d2 51       		.byte	0x51
 4657 01d3 2E000000 		.4byte	.LVL44
 4658 01d7 3F000000 		.4byte	.LVL46-1
 4659 01db 0100     		.2byte	0x1
 4660 01dd 52       		.byte	0x52
 4661 01de 00000000 		.4byte	0
 4662 01e2 00000000 		.4byte	0
 4663              	.LLST11:
 4664 01e6 06000000 		.4byte	.LVL35
 4665 01ea 1E000000 		.4byte	.LVL40
 4666 01ee 0100     		.2byte	0x1
 4667 01f0 56       		.byte	0x56
 4668 01f1 1E000000 		.4byte	.LVL40
 4669 01f5 40000000 		.4byte	.LVL48
 4670 01f9 0C00     		.2byte	0xc
 4671 01fb 77       		.byte	0x77
 4672 01fc 00       		.sleb128 0
 4673 01fd F3       		.byte	0xf3
 4674 01fe 01       		.uleb128 0x1
 4675 01ff 50       		.byte	0x50
 4676 0200 22       		.byte	0x22
 4677 0201 94       		.byte	0x94
 4678 0202 01       		.byte	0x1
ARM GAS  C:\Users\ZTIPRI~1\AppData\Local\Temp\ccBGTz86.s 			page 125


 4679 0203 08       		.byte	0x8
 4680 0204 FF       		.byte	0xff
 4681 0205 1A       		.byte	0x1a
 4682 0206 9F       		.byte	0x9f
 4683 0207 40000000 		.4byte	.LVL48
 4684 020b 48000000 		.4byte	.LFE47
 4685 020f 0F00     		.2byte	0xf
 4686 0211 F3       		.byte	0xf3
 4687 0212 01       		.uleb128 0x1
 4688 0213 50       		.byte	0x50
 4689 0214 03       		.byte	0x3
 4690 0215 00000000 		.4byte	.LANCHOR2
 4691 0219 22       		.byte	0x22
 4692 021a 94       		.byte	0x94
 4693 021b 01       		.byte	0x1
 4694 021c 08       		.byte	0x8
 4695 021d FF       		.byte	0xff
 4696 021e 1A       		.byte	0x1a
 4697 021f 9F       		.byte	0x9f
 4698 0220 00000000 		.4byte	0
 4699 0224 00000000 		.4byte	0
 4700              	.LLST12:
 4701 0228 00000000 		.4byte	.LVL49
 4702 022c 18000000 		.4byte	.LVL53
 4703 0230 0100     		.2byte	0x1
 4704 0232 50       		.byte	0x50
 4705 0233 18000000 		.4byte	.LVL53
 4706 0237 70000000 		.4byte	.LFE48
 4707 023b 0400     		.2byte	0x4
 4708 023d F3       		.byte	0xf3
 4709 023e 01       		.uleb128 0x1
 4710 023f 50       		.byte	0x50
 4711 0240 9F       		.byte	0x9f
 4712 0241 00000000 		.4byte	0
 4713 0245 00000000 		.4byte	0
 4714              	.LLST13:
 4715 0249 3C000000 		.4byte	.LVL56
 4716 024d 59000000 		.4byte	.LVL63-1
 4717 0251 0100     		.2byte	0x1
 4718 0253 50       		.byte	0x50
 4719 0254 00000000 		.4byte	0
 4720 0258 00000000 		.4byte	0
 4721              	.LLST14:
 4722 025c 46000000 		.4byte	.LVL59
 4723 0260 4C000000 		.4byte	.LVL60
 4724 0264 0100     		.2byte	0x1
 4725 0266 53       		.byte	0x53
 4726 0267 4E000000 		.4byte	.LVL61
 4727 026b 54000000 		.4byte	.LVL62
 4728 026f 0100     		.2byte	0x1
 4729 0271 52       		.byte	0x52
 4730 0272 54000000 		.4byte	.LVL62
 4731 0276 59000000 		.4byte	.LVL63-1
 4732 027a 0100     		.2byte	0x1
 4733 027c 53       		.byte	0x53
 4734 027d 00000000 		.4byte	0
 4735 0281 00000000 		.4byte	0
ARM GAS  C:\Users\ZTIPRI~1\AppData\Local\Temp\ccBGTz86.s 			page 126


 4736              	.LLST15:
 4737 0285 06000000 		.4byte	.LVL50
 4738 0289 3E000000 		.4byte	.LVL57
 4739 028d 0100     		.2byte	0x1
 4740 028f 54       		.byte	0x54
 4741 0290 3E000000 		.4byte	.LVL57
 4742 0294 40000000 		.4byte	.LVL58
 4743 0298 0F00     		.2byte	0xf
 4744 029a F3       		.byte	0xf3
 4745 029b 01       		.uleb128 0x1
 4746 029c 50       		.byte	0x50
 4747 029d 03       		.byte	0x3
 4748 029e 00000000 		.4byte	.LANCHOR2
 4749 02a2 22       		.byte	0x22
 4750 02a3 94       		.byte	0x94
 4751 02a4 01       		.byte	0x1
 4752 02a5 08       		.byte	0x8
 4753 02a6 FF       		.byte	0xff
 4754 02a7 1A       		.byte	0x1a
 4755 02a8 9F       		.byte	0x9f
 4756 02a9 40000000 		.4byte	.LVL58
 4757 02ad 46000000 		.4byte	.LVL59
 4758 02b1 0C00     		.2byte	0xc
 4759 02b3 73       		.byte	0x73
 4760 02b4 00       		.sleb128 0
 4761 02b5 F3       		.byte	0xf3
 4762 02b6 01       		.uleb128 0x1
 4763 02b7 50       		.byte	0x50
 4764 02b8 22       		.byte	0x22
 4765 02b9 94       		.byte	0x94
 4766 02ba 01       		.byte	0x1
 4767 02bb 08       		.byte	0x8
 4768 02bc FF       		.byte	0xff
 4769 02bd 1A       		.byte	0x1a
 4770 02be 9F       		.byte	0x9f
 4771 02bf 46000000 		.4byte	.LVL59
 4772 02c3 70000000 		.4byte	.LFE48
 4773 02c7 0F00     		.2byte	0xf
 4774 02c9 F3       		.byte	0xf3
 4775 02ca 01       		.uleb128 0x1
 4776 02cb 50       		.byte	0x50
 4777 02cc 03       		.byte	0x3
 4778 02cd 00000000 		.4byte	.LANCHOR2
 4779 02d1 22       		.byte	0x22
 4780 02d2 94       		.byte	0x94
 4781 02d3 01       		.byte	0x1
 4782 02d4 08       		.byte	0x8
 4783 02d5 FF       		.byte	0xff
 4784 02d6 1A       		.byte	0x1a
 4785 02d7 9F       		.byte	0x9f
 4786 02d8 00000000 		.4byte	0
 4787 02dc 00000000 		.4byte	0
 4788              	.LLST16:
 4789 02e0 0E000000 		.4byte	.LVL51
 4790 02e4 3B000000 		.4byte	.LVL56-1
 4791 02e8 0100     		.2byte	0x1
 4792 02ea 51       		.byte	0x51
ARM GAS  C:\Users\ZTIPRI~1\AppData\Local\Temp\ccBGTz86.s 			page 127


 4793 02eb 3B000000 		.4byte	.LVL56-1
 4794 02ef 66000000 		.4byte	.LVL66
 4795 02f3 0500     		.2byte	0x5
 4796 02f5 77       		.byte	0x77
 4797 02f6 00       		.sleb128 0
 4798 02f7 32       		.byte	0x32
 4799 02f8 24       		.byte	0x24
 4800 02f9 9F       		.byte	0x9f
 4801 02fa 66000000 		.4byte	.LVL66
 4802 02fe 70000000 		.4byte	.LFE48
 4803 0302 0E00     		.2byte	0xe
 4804 0304 F3       		.byte	0xf3
 4805 0305 01       		.uleb128 0x1
 4806 0306 50       		.byte	0x50
 4807 0307 03       		.byte	0x3
 4808 0308 08000000 		.4byte	.LANCHOR2+8
 4809 030c 22       		.byte	0x22
 4810 030d 94       		.byte	0x94
 4811 030e 01       		.byte	0x1
 4812 030f 32       		.byte	0x32
 4813 0310 24       		.byte	0x24
 4814 0311 9F       		.byte	0x9f
 4815 0312 00000000 		.4byte	0
 4816 0316 00000000 		.4byte	0
 4817              	.LLST17:
 4818 031a 14000000 		.4byte	.LVL52
 4819 031e 66000000 		.4byte	.LVL64
 4820 0322 0100     		.2byte	0x1
 4821 0324 55       		.byte	0x55
 4822 0325 66000000 		.4byte	.LVL64
 4823 0329 66000000 		.4byte	.LVL66
 4824 032d 0800     		.2byte	0x8
 4825 032f 77       		.byte	0x77
 4826 0330 00       		.sleb128 0
 4827 0331 31       		.byte	0x31
 4828 0332 24       		.byte	0x24
 4829 0333 77       		.byte	0x77
 4830 0334 00       		.sleb128 0
 4831 0335 22       		.byte	0x22
 4832 0336 9F       		.byte	0x9f
 4833 0337 66000000 		.4byte	.LVL66
 4834 033b 70000000 		.4byte	.LFE48
 4835 033f 2000     		.2byte	0x20
 4836 0341 F3       		.byte	0xf3
 4837 0342 01       		.uleb128 0x1
 4838 0343 50       		.byte	0x50
 4839 0344 03       		.byte	0x3
 4840 0345 08000000 		.4byte	.LANCHOR2+8
 4841 0349 22       		.byte	0x22
 4842 034a 94       		.byte	0x94
 4843 034b 01       		.byte	0x1
 4844 034c 08       		.byte	0x8
 4845 034d FF       		.byte	0xff
 4846 034e 1A       		.byte	0x1a
 4847 034f 31       		.byte	0x31
 4848 0350 24       		.byte	0x24
 4849 0351 F3       		.byte	0xf3
ARM GAS  C:\Users\ZTIPRI~1\AppData\Local\Temp\ccBGTz86.s 			page 128


 4850 0352 01       		.uleb128 0x1
 4851 0353 50       		.byte	0x50
 4852 0354 03       		.byte	0x3
 4853 0355 08000000 		.4byte	.LANCHOR2+8
 4854 0359 22       		.byte	0x22
 4855 035a 94       		.byte	0x94
 4856 035b 01       		.byte	0x1
 4857 035c 08       		.byte	0x8
 4858 035d FF       		.byte	0xff
 4859 035e 1A       		.byte	0x1a
 4860 035f 22       		.byte	0x22
 4861 0360 9F       		.byte	0x9f
 4862 0361 00000000 		.4byte	0
 4863 0365 00000000 		.4byte	0
 4864              	.LLST18:
 4865 0369 14000000 		.4byte	.LVL52
 4866 036d 38000000 		.4byte	.LVL55
 4867 0371 0200     		.2byte	0x2
 4868 0373 30       		.byte	0x30
 4869 0374 9F       		.byte	0x9f
 4870 0375 38000000 		.4byte	.LVL55
 4871 0379 66000000 		.4byte	.LVL65
 4872 037d 0100     		.2byte	0x1
 4873 037f 56       		.byte	0x56
 4874 0380 00000000 		.4byte	0
 4875 0384 00000000 		.4byte	0
 4876              	.LLST19:
 4877 0388 18000000 		.4byte	.LVL53
 4878 038c 3B000000 		.4byte	.LVL56-1
 4879 0390 0100     		.2byte	0x1
 4880 0392 50       		.byte	0x50
 4881 0393 00000000 		.4byte	0
 4882 0397 00000000 		.4byte	0
 4883              	.LLST20:
 4884 039b 02000000 		.4byte	.LVL67
 4885 039f 06000000 		.4byte	.LVL68
 4886 03a3 0200     		.2byte	0x2
 4887 03a5 30       		.byte	0x30
 4888 03a6 9F       		.byte	0x9f
 4889 03a7 06000000 		.4byte	.LVL68
 4890 03ab 12000000 		.4byte	.LVL71
 4891 03af 0100     		.2byte	0x1
 4892 03b1 54       		.byte	0x54
 4893 03b2 00000000 		.4byte	0
 4894 03b6 00000000 		.4byte	0
 4895              	.LLST21:
 4896 03ba 00000000 		.4byte	.LVL72
 4897 03be 18000000 		.4byte	.LVL77
 4898 03c2 0100     		.2byte	0x1
 4899 03c4 50       		.byte	0x50
 4900 03c5 18000000 		.4byte	.LVL77
 4901 03c9 24000000 		.4byte	.LFE51
 4902 03cd 0400     		.2byte	0x4
 4903 03cf F3       		.byte	0xf3
 4904 03d0 01       		.uleb128 0x1
 4905 03d1 50       		.byte	0x50
 4906 03d2 9F       		.byte	0x9f
ARM GAS  C:\Users\ZTIPRI~1\AppData\Local\Temp\ccBGTz86.s 			page 129


 4907 03d3 00000000 		.4byte	0
 4908 03d7 00000000 		.4byte	0
 4909              	.LLST22:
 4910 03db 00000000 		.4byte	.LVL72
 4911 03df 06000000 		.4byte	.LVL73
 4912 03e3 0100     		.2byte	0x1
 4913 03e5 51       		.byte	0x51
 4914 03e6 06000000 		.4byte	.LVL73
 4915 03ea 24000000 		.4byte	.LFE51
 4916 03ee 0400     		.2byte	0x4
 4917 03f0 F3       		.byte	0xf3
 4918 03f1 01       		.uleb128 0x1
 4919 03f2 51       		.byte	0x51
 4920 03f3 9F       		.byte	0x9f
 4921 03f4 00000000 		.4byte	0
 4922 03f8 00000000 		.4byte	0
 4923              	.LLST23:
 4924 03fc 00000000 		.4byte	.LVL72
 4925 0400 08000000 		.4byte	.LVL74
 4926 0404 0100     		.2byte	0x1
 4927 0406 52       		.byte	0x52
 4928 0407 08000000 		.4byte	.LVL74
 4929 040b 24000000 		.4byte	.LFE51
 4930 040f 0400     		.2byte	0x4
 4931 0411 F3       		.byte	0xf3
 4932 0412 01       		.uleb128 0x1
 4933 0413 52       		.byte	0x52
 4934 0414 9F       		.byte	0x9f
 4935 0415 00000000 		.4byte	0
 4936 0419 00000000 		.4byte	0
 4937              	.LLST24:
 4938 041d 10000000 		.4byte	.LVL75
 4939 0421 1A000000 		.4byte	.LVL78
 4940 0425 0100     		.2byte	0x1
 4941 0427 53       		.byte	0x53
 4942 0428 1A000000 		.4byte	.LVL78
 4943 042c 24000000 		.4byte	.LFE51
 4944 0430 0100     		.2byte	0x1
 4945 0432 50       		.byte	0x50
 4946 0433 00000000 		.4byte	0
 4947 0437 00000000 		.4byte	0
 4948              	.LLST25:
 4949 043b 00000000 		.4byte	.LVL79
 4950 043f 08000000 		.4byte	.LVL81
 4951 0443 0100     		.2byte	0x1
 4952 0445 50       		.byte	0x50
 4953 0446 08000000 		.4byte	.LVL81
 4954 044a 28000000 		.4byte	.LVL89
 4955 044e 0100     		.2byte	0x1
 4956 0450 55       		.byte	0x55
 4957 0451 28000000 		.4byte	.LVL89
 4958 0455 30000000 		.4byte	.LFE49
 4959 0459 0400     		.2byte	0x4
 4960 045b F3       		.byte	0xf3
 4961 045c 01       		.uleb128 0x1
 4962 045d 50       		.byte	0x50
 4963 045e 9F       		.byte	0x9f
ARM GAS  C:\Users\ZTIPRI~1\AppData\Local\Temp\ccBGTz86.s 			page 130


 4964 045f 00000000 		.4byte	0
 4965 0463 00000000 		.4byte	0
 4966              	.LLST26:
 4967 0467 04000000 		.4byte	.LVL80
 4968 046b 08000000 		.4byte	.LVL81
 4969 046f 0200     		.2byte	0x2
 4970 0471 30       		.byte	0x30
 4971 0472 9F       		.byte	0x9f
 4972 0473 08000000 		.4byte	.LVL81
 4973 0477 18000000 		.4byte	.LVL85
 4974 047b 0100     		.2byte	0x1
 4975 047d 54       		.byte	0x54
 4976 047e 1A000000 		.4byte	.LVL86
 4977 0482 28000000 		.4byte	.LVL88
 4978 0486 0100     		.2byte	0x1
 4979 0488 54       		.byte	0x54
 4980 0489 00000000 		.4byte	0
 4981 048d 00000000 		.4byte	0
 4982              	.LLST27:
 4983 0491 0C000000 		.4byte	.LVL82
 4984 0495 15000000 		.4byte	.LVL84-1
 4985 0499 0100     		.2byte	0x1
 4986 049b 52       		.byte	0x52
 4987 049c 15000000 		.4byte	.LVL84-1
 4988 04a0 18000000 		.4byte	.LVL85
 4989 04a4 0E00     		.2byte	0xe
 4990 04a6 74       		.byte	0x74
 4991 04a7 00       		.sleb128 0
 4992 04a8 03       		.byte	0x3
 4993 04a9 00000000 		.4byte	.LANCHOR2
 4994 04ad 22       		.byte	0x22
 4995 04ae 94       		.byte	0x94
 4996 04af 01       		.byte	0x1
 4997 04b0 08       		.byte	0x8
 4998 04b1 FF       		.byte	0xff
 4999 04b2 1A       		.byte	0x1a
 5000 04b3 9F       		.byte	0x9f
 5001 04b4 18000000 		.4byte	.LVL85
 5002 04b8 1A000000 		.4byte	.LVL86
 5003 04bc 0E00     		.2byte	0xe
 5004 04be 74       		.byte	0x74
 5005 04bf 00       		.sleb128 0
 5006 04c0 03       		.byte	0x3
 5007 04c1 FFFFFFFF 		.4byte	.LANCHOR2-1
 5008 04c5 22       		.byte	0x22
 5009 04c6 94       		.byte	0x94
 5010 04c7 01       		.byte	0x1
 5011 04c8 08       		.byte	0x8
 5012 04c9 FF       		.byte	0xff
 5013 04ca 1A       		.byte	0x1a
 5014 04cb 9F       		.byte	0x9f
 5015 04cc 00000000 		.4byte	0
 5016 04d0 00000000 		.4byte	0
 5017              	.LLST28:
 5018 04d4 10000000 		.4byte	.LVL83
 5019 04d8 15000000 		.4byte	.LVL84-1
 5020 04dc 0100     		.2byte	0x1
ARM GAS  C:\Users\ZTIPRI~1\AppData\Local\Temp\ccBGTz86.s 			page 131


 5021 04de 51       		.byte	0x51
 5022 04df 15000000 		.4byte	.LVL84-1
 5023 04e3 18000000 		.4byte	.LVL85
 5024 04e7 0E00     		.2byte	0xe
 5025 04e9 74       		.byte	0x74
 5026 04ea 00       		.sleb128 0
 5027 04eb 03       		.byte	0x3
 5028 04ec 08000000 		.4byte	.LANCHOR2+8
 5029 04f0 22       		.byte	0x22
 5030 04f1 94       		.byte	0x94
 5031 04f2 01       		.byte	0x1
 5032 04f3 08       		.byte	0x8
 5033 04f4 FF       		.byte	0xff
 5034 04f5 1A       		.byte	0x1a
 5035 04f6 9F       		.byte	0x9f
 5036 04f7 18000000 		.4byte	.LVL85
 5037 04fb 1A000000 		.4byte	.LVL86
 5038 04ff 0E00     		.2byte	0xe
 5039 0501 74       		.byte	0x74
 5040 0502 00       		.sleb128 0
 5041 0503 03       		.byte	0x3
 5042 0504 07000000 		.4byte	.LANCHOR2+7
 5043 0508 22       		.byte	0x22
 5044 0509 94       		.byte	0x94
 5045 050a 01       		.byte	0x1
 5046 050b 08       		.byte	0x8
 5047 050c FF       		.byte	0xff
 5048 050d 1A       		.byte	0x1a
 5049 050e 9F       		.byte	0x9f
 5050 050f 00000000 		.4byte	0
 5051 0513 00000000 		.4byte	0
 5052              	.LLST29:
 5053 0517 0C000000 		.4byte	.LVL91
 5054 051b 10000000 		.4byte	.LVL92
 5055 051f 0100     		.2byte	0x1
 5056 0521 51       		.byte	0x51
 5057 0522 10000000 		.4byte	.LVL92
 5058 0526 24000000 		.4byte	.LFE50
 5059 052a 0100     		.2byte	0x1
 5060 052c 53       		.byte	0x53
 5061 052d 00000000 		.4byte	0
 5062 0531 00000000 		.4byte	0
 5063              	.LLST30:
 5064 0535 00000000 		.4byte	.LVL94
 5065 0539 1E000000 		.4byte	.LVL97
 5066 053d 0100     		.2byte	0x1
 5067 053f 50       		.byte	0x50
 5068 0540 1E000000 		.4byte	.LVL97
 5069 0544 34000000 		.4byte	.LFE54
 5070 0548 0400     		.2byte	0x4
 5071 054a F3       		.byte	0xf3
 5072 054b 01       		.uleb128 0x1
 5073 054c 50       		.byte	0x50
 5074 054d 9F       		.byte	0x9f
 5075 054e 00000000 		.4byte	0
 5076 0552 00000000 		.4byte	0
 5077              	.LLST31:
ARM GAS  C:\Users\ZTIPRI~1\AppData\Local\Temp\ccBGTz86.s 			page 132


 5078 0556 00000000 		.4byte	.LVL94
 5079 055a 04000000 		.4byte	.LVL95
 5080 055e 0100     		.2byte	0x1
 5081 0560 51       		.byte	0x51
 5082 0561 04000000 		.4byte	.LVL95
 5083 0565 34000000 		.4byte	.LFE54
 5084 0569 0400     		.2byte	0x4
 5085 056b F3       		.byte	0xf3
 5086 056c 01       		.uleb128 0x1
 5087 056d 51       		.byte	0x51
 5088 056e 9F       		.byte	0x9f
 5089 056f 00000000 		.4byte	0
 5090 0573 00000000 		.4byte	0
 5091              	.LLST32:
 5092 0577 1C000000 		.4byte	.LVL96
 5093 057b 24000000 		.4byte	.LVL98
 5094 057f 0100     		.2byte	0x1
 5095 0581 53       		.byte	0x53
 5096 0582 26000000 		.4byte	.LVL99
 5097 0586 2C000000 		.4byte	.LVL100
 5098 058a 0100     		.2byte	0x1
 5099 058c 52       		.byte	0x52
 5100 058d 2C000000 		.4byte	.LVL100
 5101 0591 34000000 		.4byte	.LFE54
 5102 0595 0100     		.2byte	0x1
 5103 0597 53       		.byte	0x53
 5104 0598 00000000 		.4byte	0
 5105 059c 00000000 		.4byte	0
 5106              	.LLST33:
 5107 05a0 00000000 		.4byte	.LVL101
 5108 05a4 00000000 		.4byte	.LVL101
 5109 05a8 0100     		.2byte	0x1
 5110 05aa 50       		.byte	0x50
 5111 05ab 00000000 		.4byte	.LVL101
 5112 05af 06000000 		.4byte	.LVL103
 5113 05b3 0500     		.2byte	0x5
 5114 05b5 70       		.byte	0x70
 5115 05b6 00       		.sleb128 0
 5116 05b7 33       		.byte	0x33
 5117 05b8 1A       		.byte	0x1a
 5118 05b9 9F       		.byte	0x9f
 5119 05ba 06000000 		.4byte	.LVL103
 5120 05be 18000000 		.4byte	.LFE55
 5121 05c2 0600     		.2byte	0x6
 5122 05c4 F3       		.byte	0xf3
 5123 05c5 01       		.uleb128 0x1
 5124 05c6 50       		.byte	0x50
 5125 05c7 33       		.byte	0x33
 5126 05c8 1A       		.byte	0x1a
 5127 05c9 9F       		.byte	0x9f
 5128 05ca 00000000 		.4byte	0
 5129 05ce 00000000 		.4byte	0
 5130              	.LLST34:
 5131 05d2 04000000 		.4byte	.LVL102
 5132 05d6 0E000000 		.4byte	.LVL104
 5133 05da 0100     		.2byte	0x1
 5134 05dc 51       		.byte	0x51
ARM GAS  C:\Users\ZTIPRI~1\AppData\Local\Temp\ccBGTz86.s 			page 133


 5135 05dd 0E000000 		.4byte	.LVL104
 5136 05e1 18000000 		.4byte	.LFE55
 5137 05e5 0100     		.2byte	0x1
 5138 05e7 50       		.byte	0x50
 5139 05e8 00000000 		.4byte	0
 5140 05ec 00000000 		.4byte	0
 5141              	.LLST35:
 5142 05f0 00000000 		.4byte	.LVL105
 5143 05f4 12000000 		.4byte	.LVL110
 5144 05f8 0100     		.2byte	0x1
 5145 05fa 50       		.byte	0x50
 5146 05fb 12000000 		.4byte	.LVL110
 5147 05ff 14000000 		.4byte	.LVL111
 5148 0603 0400     		.2byte	0x4
 5149 0605 F3       		.byte	0xf3
 5150 0606 01       		.uleb128 0x1
 5151 0607 50       		.byte	0x50
 5152 0608 9F       		.byte	0x9f
 5153 0609 14000000 		.4byte	.LVL111
 5154 060d 16000000 		.4byte	.LVL112
 5155 0611 0100     		.2byte	0x1
 5156 0613 50       		.byte	0x50
 5157 0614 16000000 		.4byte	.LVL112
 5158 0618 18000000 		.4byte	.LFE57
 5159 061c 0400     		.2byte	0x4
 5160 061e F3       		.byte	0xf3
 5161 061f 01       		.uleb128 0x1
 5162 0620 50       		.byte	0x50
 5163 0621 9F       		.byte	0x9f
 5164 0622 00000000 		.4byte	0
 5165 0626 00000000 		.4byte	0
 5166              	.LLST36:
 5167 062a 00000000 		.4byte	.LVL105
 5168 062e 06000000 		.4byte	.LVL107
 5169 0632 0100     		.2byte	0x1
 5170 0634 51       		.byte	0x51
 5171 0635 06000000 		.4byte	.LVL107
 5172 0639 18000000 		.4byte	.LFE57
 5173 063d 0400     		.2byte	0x4
 5174 063f F3       		.byte	0xf3
 5175 0640 01       		.uleb128 0x1
 5176 0641 51       		.byte	0x51
 5177 0642 9F       		.byte	0x9f
 5178 0643 00000000 		.4byte	0
 5179 0647 00000000 		.4byte	0
 5180              	.LLST37:
 5181 064b 02000000 		.4byte	.LVL106
 5182 064f 0C000000 		.4byte	.LVL109
 5183 0653 0100     		.2byte	0x1
 5184 0655 52       		.byte	0x52
 5185 0656 0C000000 		.4byte	.LVL109
 5186 065a 18000000 		.4byte	.LFE57
 5187 065e 0600     		.2byte	0x6
 5188 0660 F3       		.byte	0xf3
 5189 0661 01       		.uleb128 0x1
 5190 0662 51       		.byte	0x51
 5191 0663 33       		.byte	0x33
ARM GAS  C:\Users\ZTIPRI~1\AppData\Local\Temp\ccBGTz86.s 			page 134


 5192 0664 25       		.byte	0x25
 5193 0665 9F       		.byte	0x9f
 5194 0666 00000000 		.4byte	0
 5195 066a 00000000 		.4byte	0
 5196              	.LLST38:
 5197 066e 00000000 		.4byte	.LVL113
 5198 0672 04000000 		.4byte	.LVL114
 5199 0676 0100     		.2byte	0x1
 5200 0678 50       		.byte	0x50
 5201 0679 04000000 		.4byte	.LVL114
 5202 067d 06000000 		.4byte	.LVL115
 5203 0681 0100     		.2byte	0x1
 5204 0683 54       		.byte	0x54
 5205 0684 08000000 		.4byte	.LVL116
 5206 0688 1C000000 		.4byte	.LVL119
 5207 068c 0100     		.2byte	0x1
 5208 068e 54       		.byte	0x54
 5209 068f 1C000000 		.4byte	.LVL119
 5210 0693 24000000 		.4byte	.LFE37
 5211 0697 0100     		.2byte	0x1
 5212 0699 50       		.byte	0x50
 5213 069a 00000000 		.4byte	0
 5214 069e 00000000 		.4byte	0
 5215              	.LLST39:
 5216 06a2 16000000 		.4byte	.LVL117
 5217 06a6 1A000000 		.4byte	.LVL118
 5218 06aa 0100     		.2byte	0x1
 5219 06ac 50       		.byte	0x50
 5220 06ad 00000000 		.4byte	0
 5221 06b1 00000000 		.4byte	0
 5222              	.LLST40:
 5223 06b5 00000000 		.4byte	.LVL120
 5224 06b9 16000000 		.4byte	.LVL125
 5225 06bd 0100     		.2byte	0x1
 5226 06bf 50       		.byte	0x50
 5227 06c0 16000000 		.4byte	.LVL125
 5228 06c4 19000000 		.4byte	.LVL126-1
 5229 06c8 0100     		.2byte	0x1
 5230 06ca 51       		.byte	0x51
 5231 06cb 19000000 		.4byte	.LVL126-1
 5232 06cf 80000000 		.4byte	.LVL142
 5233 06d3 0100     		.2byte	0x1
 5234 06d5 54       		.byte	0x54
 5235 06d6 80000000 		.4byte	.LVL142
 5236 06da CC000000 		.4byte	.LFE52
 5237 06de 0400     		.2byte	0x4
 5238 06e0 F3       		.byte	0xf3
 5239 06e1 01       		.uleb128 0x1
 5240 06e2 50       		.byte	0x50
 5241 06e3 9F       		.byte	0x9f
 5242 06e4 00000000 		.4byte	0
 5243 06e8 00000000 		.4byte	0
 5244              	.LLST41:
 5245 06ec 0C000000 		.4byte	.LVL121
 5246 06f0 0E000000 		.4byte	.LVL122
 5247 06f4 0100     		.2byte	0x1
 5248 06f6 53       		.byte	0x53
ARM GAS  C:\Users\ZTIPRI~1\AppData\Local\Temp\ccBGTz86.s 			page 135


 5249 06f7 0E000000 		.4byte	.LVL122
 5250 06fb 10000000 		.4byte	.LVL123
 5251 06ff 0B00     		.2byte	0xb
 5252 0701 70       		.byte	0x70
 5253 0702 00       		.sleb128 0
 5254 0703 72       		.byte	0x72
 5255 0704 00       		.sleb128 0
 5256 0705 22       		.byte	0x22
 5257 0706 03       		.byte	0x3
 5258 0707 00000000 		.4byte	.LANCHOR2
 5259 070b 22       		.byte	0x22
 5260 070c 10000000 		.4byte	.LVL123
 5261 0710 16000000 		.4byte	.LVL125
 5262 0714 0800     		.2byte	0x8
 5263 0716 70       		.byte	0x70
 5264 0717 00       		.sleb128 0
 5265 0718 03       		.byte	0x3
 5266 0719 4C000000 		.4byte	.LANCHOR2+76
 5267 071d 22       		.byte	0x22
 5268 071e 16000000 		.4byte	.LVL125
 5269 0722 19000000 		.4byte	.LVL126-1
 5270 0726 0800     		.2byte	0x8
 5271 0728 71       		.byte	0x71
 5272 0729 00       		.sleb128 0
 5273 072a 03       		.byte	0x3
 5274 072b 4C000000 		.4byte	.LANCHOR2+76
 5275 072f 22       		.byte	0x22
 5276 0730 19000000 		.4byte	.LVL126-1
 5277 0734 80000000 		.4byte	.LVL142
 5278 0738 0800     		.2byte	0x8
 5279 073a 74       		.byte	0x74
 5280 073b 00       		.sleb128 0
 5281 073c 03       		.byte	0x3
 5282 073d 4C000000 		.4byte	.LANCHOR2+76
 5283 0741 22       		.byte	0x22
 5284 0742 80000000 		.4byte	.LVL142
 5285 0746 CC000000 		.4byte	.LFE52
 5286 074a 0900     		.2byte	0x9
 5287 074c F3       		.byte	0xf3
 5288 074d 01       		.uleb128 0x1
 5289 074e 50       		.byte	0x50
 5290 074f 03       		.byte	0x3
 5291 0750 4C000000 		.4byte	.LANCHOR2+76
 5292 0754 22       		.byte	0x22
 5293 0755 00000000 		.4byte	0
 5294 0759 00000000 		.4byte	0
 5295              	.LLST42:
 5296 075d 80000000 		.4byte	.LVL142
 5297 0761 92000000 		.4byte	.LVL145
 5298 0765 0100     		.2byte	0x1
 5299 0767 54       		.byte	0x54
 5300 0768 00000000 		.4byte	0
 5301 076c 00000000 		.4byte	0
 5302              	.LLST43:
 5303 0770 4E000000 		.4byte	.LVL133
 5304 0774 60000000 		.4byte	.LVL135
 5305 0778 0100     		.2byte	0x1
ARM GAS  C:\Users\ZTIPRI~1\AppData\Local\Temp\ccBGTz86.s 			page 136


 5306 077a 51       		.byte	0x51
 5307 077b 60000000 		.4byte	.LVL135
 5308 077f 66000000 		.4byte	.LVL136
 5309 0783 0100     		.2byte	0x1
 5310 0785 53       		.byte	0x53
 5311 0786 66000000 		.4byte	.LVL136
 5312 078a 92000000 		.4byte	.LVL146
 5313 078e 0100     		.2byte	0x1
 5314 0790 55       		.byte	0x55
 5315 0791 00000000 		.4byte	0
 5316 0795 00000000 		.4byte	0
 5317              	.LLST44:
 5318 0799 12000000 		.4byte	.LVL124
 5319 079d 92000000 		.4byte	.LVL147
 5320 07a1 0100     		.2byte	0x1
 5321 07a3 56       		.byte	0x56
 5322 07a4 00000000 		.4byte	0
 5323 07a8 00000000 		.4byte	0
 5324              	.LLST45:
 5325 07ac 1A000000 		.4byte	.LVL126
 5326 07b0 2C000000 		.4byte	.LVL129
 5327 07b4 0100     		.2byte	0x1
 5328 07b6 50       		.byte	0x50
 5329 07b7 00000000 		.4byte	0
 5330 07bb 00000000 		.4byte	0
 5331              	.LLST46:
 5332 07bf 00000000 		.4byte	.LVL148
 5333 07c3 13000000 		.4byte	.LVL149-1
 5334 07c7 0100     		.2byte	0x1
 5335 07c9 50       		.byte	0x50
 5336 07ca 13000000 		.4byte	.LVL149-1
 5337 07ce 1C000000 		.4byte	.LFE38
 5338 07d2 0400     		.2byte	0x4
 5339 07d4 F3       		.byte	0xf3
 5340 07d5 01       		.uleb128 0x1
 5341 07d6 50       		.byte	0x50
 5342 07d7 9F       		.byte	0x9f
 5343 07d8 00000000 		.4byte	0
 5344 07dc 00000000 		.4byte	0
 5345              	.LLST47:
 5346 07e0 00000000 		.4byte	.LVL152
 5347 07e4 2A000000 		.4byte	.LVL156
 5348 07e8 0100     		.2byte	0x1
 5349 07ea 50       		.byte	0x50
 5350 07eb 2A000000 		.4byte	.LVL156
 5351 07ef 2D000000 		.4byte	.LVL157-1
 5352 07f3 0100     		.2byte	0x1
 5353 07f5 51       		.byte	0x51
 5354 07f6 2D000000 		.4byte	.LVL157-1
 5355 07fa 64000000 		.4byte	.LVL167
 5356 07fe 0100     		.2byte	0x1
 5357 0800 55       		.byte	0x55
 5358 0801 64000000 		.4byte	.LVL167
 5359 0805 90000000 		.4byte	.LFE53
 5360 0809 0400     		.2byte	0x4
 5361 080b F3       		.byte	0xf3
 5362 080c 01       		.uleb128 0x1
ARM GAS  C:\Users\ZTIPRI~1\AppData\Local\Temp\ccBGTz86.s 			page 137


 5363 080d 50       		.byte	0x50
 5364 080e 9F       		.byte	0x9f
 5365 080f 00000000 		.4byte	0
 5366 0813 00000000 		.4byte	0
 5367              	.LLST48:
 5368 0817 48000000 		.4byte	.LVL161
 5369 081b 4C000000 		.4byte	.LVL162
 5370 081f 0100     		.2byte	0x1
 5371 0821 51       		.byte	0x51
 5372 0822 4C000000 		.4byte	.LVL162
 5373 0826 5A000000 		.4byte	.LVL164
 5374 082a 0100     		.2byte	0x1
 5375 082c 53       		.byte	0x53
 5376 082d 5A000000 		.4byte	.LVL164
 5377 0831 5E000000 		.4byte	.LVL165
 5378 0835 0500     		.2byte	0x5
 5379 0837 0C       		.byte	0xc
 5380 0838 04000840 		.4byte	0x40080004
 5381 083c 00000000 		.4byte	0
 5382 0840 00000000 		.4byte	0
 5383              	.LLST49:
 5384 0844 2E000000 		.4byte	.LVL157
 5385 0848 38000000 		.4byte	.LVL158
 5386 084c 0100     		.2byte	0x1
 5387 084e 50       		.byte	0x50
 5388 084f 00000000 		.4byte	0
 5389 0853 00000000 		.4byte	0
 5390              	.LLST50:
 5391 0857 1A000000 		.4byte	.LVL153
 5392 085b 1C000000 		.4byte	.LVL154
 5393 085f 0100     		.2byte	0x1
 5394 0861 53       		.byte	0x53
 5395 0862 1C000000 		.4byte	.LVL154
 5396 0866 1E000000 		.4byte	.LVL155
 5397 086a 1100     		.2byte	0x11
 5398 086c 70       		.byte	0x70
 5399 086d 00       		.sleb128 0
 5400 086e 72       		.byte	0x72
 5401 086f 00       		.sleb128 0
 5402 0870 22       		.byte	0x22
 5403 0871 03       		.byte	0x3
 5404 0872 00000000 		.4byte	.LANCHOR2
 5405 0876 22       		.byte	0x22
 5406 0877 94       		.byte	0x94
 5407 0878 01       		.byte	0x1
 5408 0879 08       		.byte	0x8
 5409 087a FF       		.byte	0xff
 5410 087b 1A       		.byte	0x1a
 5411 087c 9F       		.byte	0x9f
 5412 087d 1E000000 		.4byte	.LVL155
 5413 0881 2A000000 		.4byte	.LVL156
 5414 0885 0E00     		.2byte	0xe
 5415 0887 70       		.byte	0x70
 5416 0888 00       		.sleb128 0
 5417 0889 03       		.byte	0x3
 5418 088a 4C000000 		.4byte	.LANCHOR2+76
 5419 088e 22       		.byte	0x22
ARM GAS  C:\Users\ZTIPRI~1\AppData\Local\Temp\ccBGTz86.s 			page 138


 5420 088f 94       		.byte	0x94
 5421 0890 01       		.byte	0x1
 5422 0891 08       		.byte	0x8
 5423 0892 FF       		.byte	0xff
 5424 0893 1A       		.byte	0x1a
 5425 0894 9F       		.byte	0x9f
 5426 0895 2A000000 		.4byte	.LVL156
 5427 0899 2D000000 		.4byte	.LVL157-1
 5428 089d 0E00     		.2byte	0xe
 5429 089f 71       		.byte	0x71
 5430 08a0 00       		.sleb128 0
 5431 08a1 03       		.byte	0x3
 5432 08a2 4C000000 		.4byte	.LANCHOR2+76
 5433 08a6 22       		.byte	0x22
 5434 08a7 94       		.byte	0x94
 5435 08a8 01       		.byte	0x1
 5436 08a9 08       		.byte	0x8
 5437 08aa FF       		.byte	0xff
 5438 08ab 1A       		.byte	0x1a
 5439 08ac 9F       		.byte	0x9f
 5440 08ad 2D000000 		.4byte	.LVL157-1
 5441 08b1 64000000 		.4byte	.LVL167
 5442 08b5 0E00     		.2byte	0xe
 5443 08b7 75       		.byte	0x75
 5444 08b8 00       		.sleb128 0
 5445 08b9 03       		.byte	0x3
 5446 08ba 4C000000 		.4byte	.LANCHOR2+76
 5447 08be 22       		.byte	0x22
 5448 08bf 94       		.byte	0x94
 5449 08c0 01       		.byte	0x1
 5450 08c1 08       		.byte	0x8
 5451 08c2 FF       		.byte	0xff
 5452 08c3 1A       		.byte	0x1a
 5453 08c4 9F       		.byte	0x9f
 5454 08c5 64000000 		.4byte	.LVL167
 5455 08c9 90000000 		.4byte	.LFE53
 5456 08cd 0F00     		.2byte	0xf
 5457 08cf F3       		.byte	0xf3
 5458 08d0 01       		.uleb128 0x1
 5459 08d1 50       		.byte	0x50
 5460 08d2 03       		.byte	0x3
 5461 08d3 4C000000 		.4byte	.LANCHOR2+76
 5462 08d7 22       		.byte	0x22
 5463 08d8 94       		.byte	0x94
 5464 08d9 01       		.byte	0x1
 5465 08da 08       		.byte	0x8
 5466 08db FF       		.byte	0xff
 5467 08dc 1A       		.byte	0x1a
 5468 08dd 9F       		.byte	0x9f
 5469 08de 00000000 		.4byte	0
 5470 08e2 00000000 		.4byte	0
 5471              	.LLST51:
 5472 08e6 00000000 		.4byte	.LVL168
 5473 08ea 08000000 		.4byte	.LVL170
 5474 08ee 0100     		.2byte	0x1
 5475 08f0 51       		.byte	0x51
 5476 08f1 08000000 		.4byte	.LVL170
ARM GAS  C:\Users\ZTIPRI~1\AppData\Local\Temp\ccBGTz86.s 			page 139


 5477 08f5 26000000 		.4byte	.LFE58
 5478 08f9 0400     		.2byte	0x4
 5479 08fb F3       		.byte	0xf3
 5480 08fc 01       		.uleb128 0x1
 5481 08fd 51       		.byte	0x51
 5482 08fe 9F       		.byte	0x9f
 5483 08ff 00000000 		.4byte	0
 5484 0903 00000000 		.4byte	0
 5485              	.LLST52:
 5486 0907 00000000 		.4byte	.LVL168
 5487 090b 16000000 		.4byte	.LVL173
 5488 090f 0100     		.2byte	0x1
 5489 0911 52       		.byte	0x52
 5490 0912 16000000 		.4byte	.LVL173
 5491 0916 1C000000 		.4byte	.LVL175
 5492 091a 0400     		.2byte	0x4
 5493 091c F3       		.byte	0xf3
 5494 091d 01       		.uleb128 0x1
 5495 091e 52       		.byte	0x52
 5496 091f 9F       		.byte	0x9f
 5497 0920 1C000000 		.4byte	.LVL175
 5498 0924 20000000 		.4byte	.LVL177
 5499 0928 0100     		.2byte	0x1
 5500 092a 52       		.byte	0x52
 5501 092b 20000000 		.4byte	.LVL177
 5502 092f 26000000 		.4byte	.LFE58
 5503 0933 0400     		.2byte	0x4
 5504 0935 F3       		.byte	0xf3
 5505 0936 01       		.uleb128 0x1
 5506 0937 52       		.byte	0x52
 5507 0938 9F       		.byte	0x9f
 5508 0939 00000000 		.4byte	0
 5509 093d 00000000 		.4byte	0
 5510              	.LLST53:
 5511 0941 04000000 		.4byte	.LVL169
 5512 0945 14000000 		.4byte	.LVL172
 5513 0949 0100     		.2byte	0x1
 5514 094b 54       		.byte	0x54
 5515 094c 14000000 		.4byte	.LVL172
 5516 0950 1C000000 		.4byte	.LVL175
 5517 0954 0600     		.2byte	0x6
 5518 0956 F3       		.byte	0xf3
 5519 0957 01       		.uleb128 0x1
 5520 0958 51       		.byte	0x51
 5521 0959 33       		.byte	0x33
 5522 095a 25       		.byte	0x25
 5523 095b 9F       		.byte	0x9f
 5524 095c 1C000000 		.4byte	.LVL175
 5525 0960 1E000000 		.4byte	.LVL176
 5526 0964 0100     		.2byte	0x1
 5527 0966 54       		.byte	0x54
 5528 0967 1E000000 		.4byte	.LVL176
 5529 096b 26000000 		.4byte	.LFE58
 5530 096f 0600     		.2byte	0x6
 5531 0971 F3       		.byte	0xf3
 5532 0972 01       		.uleb128 0x1
 5533 0973 51       		.byte	0x51
ARM GAS  C:\Users\ZTIPRI~1\AppData\Local\Temp\ccBGTz86.s 			page 140


 5534 0974 33       		.byte	0x33
 5535 0975 25       		.byte	0x25
 5536 0976 9F       		.byte	0x9f
 5537 0977 00000000 		.4byte	0
 5538 097b 00000000 		.4byte	0
 5539              	.LLST54:
 5540 097f 0E000000 		.4byte	.LVL171
 5541 0983 18000000 		.4byte	.LVL174
 5542 0987 0100     		.2byte	0x1
 5543 0989 53       		.byte	0x53
 5544 098a 18000000 		.4byte	.LVL174
 5545 098e 1C000000 		.4byte	.LVL175
 5546 0992 0500     		.2byte	0x5
 5547 0994 31       		.byte	0x31
 5548 0995 71       		.byte	0x71
 5549 0996 00       		.sleb128 0
 5550 0997 24       		.byte	0x24
 5551 0998 9F       		.byte	0x9f
 5552 0999 1C000000 		.4byte	.LVL175
 5553 099d 24000000 		.4byte	.LVL178
 5554 09a1 0100     		.2byte	0x1
 5555 09a3 53       		.byte	0x53
 5556 09a4 24000000 		.4byte	.LVL178
 5557 09a8 26000000 		.4byte	.LFE58
 5558 09ac 0500     		.2byte	0x5
 5559 09ae 31       		.byte	0x31
 5560 09af 71       		.byte	0x71
 5561 09b0 00       		.sleb128 0
 5562 09b1 24       		.byte	0x24
 5563 09b2 9F       		.byte	0x9f
 5564 09b3 00000000 		.4byte	0
 5565 09b7 00000000 		.4byte	0
 5566              	.LLST55:
 5567 09bb 00000000 		.4byte	.LVL179
 5568 09bf 30000000 		.4byte	.LVL186
 5569 09c3 0100     		.2byte	0x1
 5570 09c5 50       		.byte	0x50
 5571 09c6 30000000 		.4byte	.LVL186
 5572 09ca 8C000000 		.4byte	.LFE39
 5573 09ce 0400     		.2byte	0x4
 5574 09d0 F3       		.byte	0xf3
 5575 09d1 01       		.uleb128 0x1
 5576 09d2 50       		.byte	0x50
 5577 09d3 9F       		.byte	0x9f
 5578 09d4 00000000 		.4byte	0
 5579 09d8 00000000 		.4byte	0
 5580              	.LLST56:
 5581 09dc 0E000000 		.4byte	.LVL180
 5582 09e0 16000000 		.4byte	.LVL182
 5583 09e4 0100     		.2byte	0x1
 5584 09e6 55       		.byte	0x55
 5585 09e7 00000000 		.4byte	0
 5586 09eb 00000000 		.4byte	0
 5587              	.LLST57:
 5588 09ef 18000000 		.4byte	.LVL183
 5589 09f3 76000000 		.4byte	.LVL192
 5590 09f7 0100     		.2byte	0x1
ARM GAS  C:\Users\ZTIPRI~1\AppData\Local\Temp\ccBGTz86.s 			page 141


 5591 09f9 55       		.byte	0x55
 5592 09fa 00000000 		.4byte	0
 5593 09fe 00000000 		.4byte	0
 5594              	.LLST58:
 5595 0a02 18000000 		.4byte	.LVL183
 5596 0a06 1C000000 		.4byte	.LVL184
 5597 0a0a 0200     		.2byte	0x2
 5598 0a0c 30       		.byte	0x30
 5599 0a0d 9F       		.byte	0x9f
 5600 0a0e 1C000000 		.4byte	.LVL184
 5601 0a12 30000000 		.4byte	.LVL186
 5602 0a16 0100     		.2byte	0x1
 5603 0a18 53       		.byte	0x53
 5604 0a19 30000000 		.4byte	.LVL186
 5605 0a1d 76000000 		.4byte	.LVL191
 5606 0a21 0100     		.2byte	0x1
 5607 0a23 54       		.byte	0x54
 5608 0a24 00000000 		.4byte	0
 5609 0a28 00000000 		.4byte	0
 5610              	.LLST59:
 5611 0a2c 00000000 		.4byte	.LVL193
 5612 0a30 04000000 		.4byte	.LVL194
 5613 0a34 0100     		.2byte	0x1
 5614 0a36 50       		.byte	0x50
 5615 0a37 04000000 		.4byte	.LVL194
 5616 0a3b 0C000000 		.4byte	.LFE59
 5617 0a3f 0400     		.2byte	0x4
 5618 0a41 F3       		.byte	0xf3
 5619 0a42 01       		.uleb128 0x1
 5620 0a43 50       		.byte	0x50
 5621 0a44 9F       		.byte	0x9f
 5622 0a45 00000000 		.4byte	0
 5623 0a49 00000000 		.4byte	0
 5624              	.LLST60:
 5625 0a4d 00000000 		.4byte	.LVL196
 5626 0a51 04000000 		.4byte	.LVL197
 5627 0a55 0100     		.2byte	0x1
 5628 0a57 50       		.byte	0x50
 5629 0a58 04000000 		.4byte	.LVL197
 5630 0a5c 0C000000 		.4byte	.LFE61
 5631 0a60 0400     		.2byte	0x4
 5632 0a62 F3       		.byte	0xf3
 5633 0a63 01       		.uleb128 0x1
 5634 0a64 50       		.byte	0x50
 5635 0a65 9F       		.byte	0x9f
 5636 0a66 00000000 		.4byte	0
 5637 0a6a 00000000 		.4byte	0
 5638              	.LLST61:
 5639 0a6e 00000000 		.4byte	.LVL199
 5640 0a72 04000000 		.4byte	.LVL200
 5641 0a76 0100     		.2byte	0x1
 5642 0a78 50       		.byte	0x50
 5643 0a79 04000000 		.4byte	.LVL200
 5644 0a7d 0C000000 		.4byte	.LFE63
 5645 0a81 0400     		.2byte	0x4
 5646 0a83 F3       		.byte	0xf3
 5647 0a84 01       		.uleb128 0x1
ARM GAS  C:\Users\ZTIPRI~1\AppData\Local\Temp\ccBGTz86.s 			page 142


 5648 0a85 50       		.byte	0x50
 5649 0a86 9F       		.byte	0x9f
 5650 0a87 00000000 		.4byte	0
 5651 0a8b 00000000 		.4byte	0
 5652              	.LLST62:
 5653 0a8f 00000000 		.4byte	.LVL202
 5654 0a93 04000000 		.4byte	.LVL203
 5655 0a97 0100     		.2byte	0x1
 5656 0a99 50       		.byte	0x50
 5657 0a9a 04000000 		.4byte	.LVL203
 5658 0a9e 0C000000 		.4byte	.LFE65
 5659 0aa2 0400     		.2byte	0x4
 5660 0aa4 F3       		.byte	0xf3
 5661 0aa5 01       		.uleb128 0x1
 5662 0aa6 50       		.byte	0x50
 5663 0aa7 9F       		.byte	0x9f
 5664 0aa8 00000000 		.4byte	0
 5665 0aac 00000000 		.4byte	0
 5666              	.LLST63:
 5667 0ab0 00000000 		.4byte	.LVL206
 5668 0ab4 0A000000 		.4byte	.LVL208
 5669 0ab8 0100     		.2byte	0x1
 5670 0aba 50       		.byte	0x50
 5671 0abb 0A000000 		.4byte	.LVL208
 5672 0abf 28000000 		.4byte	.LVL216
 5673 0ac3 0100     		.2byte	0x1
 5674 0ac5 56       		.byte	0x56
 5675 0ac6 28000000 		.4byte	.LVL216
 5676 0aca 2A000000 		.4byte	.LFE69
 5677 0ace 0400     		.2byte	0x4
 5678 0ad0 F3       		.byte	0xf3
 5679 0ad1 01       		.uleb128 0x1
 5680 0ad2 50       		.byte	0x50
 5681 0ad3 9F       		.byte	0x9f
 5682 0ad4 00000000 		.4byte	0
 5683 0ad8 00000000 		.4byte	0
 5684              	.LLST64:
 5685 0adc 04000000 		.4byte	.LVL207
 5686 0ae0 0A000000 		.4byte	.LVL208
 5687 0ae4 0200     		.2byte	0x2
 5688 0ae6 30       		.byte	0x30
 5689 0ae7 9F       		.byte	0x9f
 5690 0ae8 0A000000 		.4byte	.LVL208
 5691 0aec 28000000 		.4byte	.LVL215
 5692 0af0 0100     		.2byte	0x1
 5693 0af2 55       		.byte	0x55
 5694 0af3 00000000 		.4byte	0
 5695 0af7 00000000 		.4byte	0
 5696              	.LLST65:
 5697 0afb 04000000 		.4byte	.LVL207
 5698 0aff 0A000000 		.4byte	.LVL208
 5699 0b03 0200     		.2byte	0x2
 5700 0b05 30       		.byte	0x30
 5701 0b06 9F       		.byte	0x9f
 5702 0b07 0A000000 		.4byte	.LVL208
 5703 0b0b 28000000 		.4byte	.LVL214
 5704 0b0f 0100     		.2byte	0x1
ARM GAS  C:\Users\ZTIPRI~1\AppData\Local\Temp\ccBGTz86.s 			page 143


 5705 0b11 54       		.byte	0x54
 5706 0b12 00000000 		.4byte	0
 5707 0b16 00000000 		.4byte	0
 5708              	.LLST66:
 5709 0b1a 02000000 		.4byte	.LVL218
 5710 0b1e 06000000 		.4byte	.LVL219
 5711 0b22 0200     		.2byte	0x2
 5712 0b24 30       		.byte	0x30
 5713 0b25 9F       		.byte	0x9f
 5714 0b26 06000000 		.4byte	.LVL219
 5715 0b2a 22000000 		.4byte	.LVL225
 5716 0b2e 0100     		.2byte	0x1
 5717 0b30 54       		.byte	0x54
 5718 0b31 00000000 		.4byte	0
 5719 0b35 00000000 		.4byte	0
 5720              		.section	.debug_aranges,"",%progbits
 5721 0000 4C010000 		.4byte	0x14c
 5722 0004 0200     		.2byte	0x2
 5723 0006 00000000 		.4byte	.Ldebug_info0
 5724 000a 04       		.byte	0x4
 5725 000b 00       		.byte	0
 5726 000c 0000     		.2byte	0
 5727 000e 0000     		.2byte	0
 5728 0010 00000000 		.4byte	.LFB33
 5729 0014 84000000 		.4byte	.LFE33-.LFB33
 5730 0018 00000000 		.4byte	.LFB34
 5731 001c 3C000000 		.4byte	.LFE34-.LFB34
 5732 0020 00000000 		.4byte	.LFB36
 5733 0024 2C000000 		.4byte	.LFE36-.LFB36
 5734 0028 00000000 		.4byte	.LFB41
 5735 002c 10000000 		.4byte	.LFE41-.LFB41
 5736 0030 00000000 		.4byte	.LFB42
 5737 0034 10000000 		.4byte	.LFE42-.LFB42
 5738 0038 00000000 		.4byte	.LFB43
 5739 003c 10000000 		.4byte	.LFE43-.LFB43
 5740 0040 00000000 		.4byte	.LFB44
 5741 0044 0C000000 		.4byte	.LFE44-.LFB44
 5742 0048 00000000 		.4byte	.LFB45
 5743 004c 0C000000 		.4byte	.LFE45-.LFB45
 5744 0050 00000000 		.4byte	.LFB47
 5745 0054 48000000 		.4byte	.LFE47-.LFB47
 5746 0058 00000000 		.4byte	.LFB48
 5747 005c 70000000 		.4byte	.LFE48-.LFB48
 5748 0060 00000000 		.4byte	.LFB46
 5749 0064 14000000 		.4byte	.LFE46-.LFB46
 5750 0068 00000000 		.4byte	.LFB51
 5751 006c 24000000 		.4byte	.LFE51-.LFB51
 5752 0070 00000000 		.4byte	.LFB49
 5753 0074 30000000 		.4byte	.LFE49-.LFB49
 5754 0078 00000000 		.4byte	.LFB50
 5755 007c 24000000 		.4byte	.LFE50-.LFB50
 5756 0080 00000000 		.4byte	.LFB54
 5757 0084 34000000 		.4byte	.LFE54-.LFB54
 5758 0088 00000000 		.4byte	.LFB55
 5759 008c 18000000 		.4byte	.LFE55-.LFB55
 5760 0090 00000000 		.4byte	.LFB56
 5761 0094 1C000000 		.4byte	.LFE56-.LFB56
ARM GAS  C:\Users\ZTIPRI~1\AppData\Local\Temp\ccBGTz86.s 			page 144


 5762 0098 00000000 		.4byte	.LFB57
 5763 009c 18000000 		.4byte	.LFE57-.LFB57
 5764 00a0 00000000 		.4byte	.LFB37
 5765 00a4 24000000 		.4byte	.LFE37-.LFB37
 5766 00a8 00000000 		.4byte	.LFB52
 5767 00ac CC000000 		.4byte	.LFE52-.LFB52
 5768 00b0 00000000 		.4byte	.LFB38
 5769 00b4 1C000000 		.4byte	.LFE38-.LFB38
 5770 00b8 00000000 		.4byte	.LFB40
 5771 00bc 38000000 		.4byte	.LFE40-.LFB40
 5772 00c0 00000000 		.4byte	.LFB53
 5773 00c4 90000000 		.4byte	.LFE53-.LFB53
 5774 00c8 00000000 		.4byte	.LFB58
 5775 00cc 26000000 		.4byte	.LFE58-.LFB58
 5776 00d0 00000000 		.4byte	.LFB39
 5777 00d4 8C000000 		.4byte	.LFE39-.LFB39
 5778 00d8 00000000 		.4byte	.LFB59
 5779 00dc 0C000000 		.4byte	.LFE59-.LFB59
 5780 00e0 00000000 		.4byte	.LFB60
 5781 00e4 0C000000 		.4byte	.LFE60-.LFB60
 5782 00e8 00000000 		.4byte	.LFB61
 5783 00ec 0C000000 		.4byte	.LFE61-.LFB61
 5784 00f0 00000000 		.4byte	.LFB62
 5785 00f4 0C000000 		.4byte	.LFE62-.LFB62
 5786 00f8 00000000 		.4byte	.LFB63
 5787 00fc 0C000000 		.4byte	.LFE63-.LFB63
 5788 0100 00000000 		.4byte	.LFB64
 5789 0104 0C000000 		.4byte	.LFE64-.LFB64
 5790 0108 00000000 		.4byte	.LFB65
 5791 010c 0C000000 		.4byte	.LFE65-.LFB65
 5792 0110 00000000 		.4byte	.LFB66
 5793 0114 0C000000 		.4byte	.LFE66-.LFB66
 5794 0118 00000000 		.4byte	.LFB67
 5795 011c 14000000 		.4byte	.LFE67-.LFB67
 5796 0120 00000000 		.4byte	.LFB68
 5797 0124 28000000 		.4byte	.LFE68-.LFB68
 5798 0128 00000000 		.4byte	.LFB69
 5799 012c 2A000000 		.4byte	.LFE69-.LFB69
 5800 0130 00000000 		.4byte	.LFB70
 5801 0134 0C000000 		.4byte	.LFE70-.LFB70
 5802 0138 00000000 		.4byte	.LFB32
 5803 013c 24000000 		.4byte	.LFE32-.LFB32
 5804 0140 00000000 		.4byte	.LFB35
 5805 0144 38000000 		.4byte	.LFE35-.LFB35
 5806 0148 00000000 		.4byte	0
 5807 014c 00000000 		.4byte	0
 5808              		.section	.debug_ranges,"",%progbits
 5809              	.Ldebug_ranges0:
 5810 0000 00000000 		.4byte	.LFB33
 5811 0004 84000000 		.4byte	.LFE33
 5812 0008 00000000 		.4byte	.LFB34
 5813 000c 3C000000 		.4byte	.LFE34
 5814 0010 00000000 		.4byte	.LFB36
 5815 0014 2C000000 		.4byte	.LFE36
 5816 0018 00000000 		.4byte	.LFB41
 5817 001c 10000000 		.4byte	.LFE41
 5818 0020 00000000 		.4byte	.LFB42
ARM GAS  C:\Users\ZTIPRI~1\AppData\Local\Temp\ccBGTz86.s 			page 145


 5819 0024 10000000 		.4byte	.LFE42
 5820 0028 00000000 		.4byte	.LFB43
 5821 002c 10000000 		.4byte	.LFE43
 5822 0030 00000000 		.4byte	.LFB44
 5823 0034 0C000000 		.4byte	.LFE44
 5824 0038 00000000 		.4byte	.LFB45
 5825 003c 0C000000 		.4byte	.LFE45
 5826 0040 00000000 		.4byte	.LFB47
 5827 0044 48000000 		.4byte	.LFE47
 5828 0048 00000000 		.4byte	.LFB48
 5829 004c 70000000 		.4byte	.LFE48
 5830 0050 00000000 		.4byte	.LFB46
 5831 0054 14000000 		.4byte	.LFE46
 5832 0058 00000000 		.4byte	.LFB51
 5833 005c 24000000 		.4byte	.LFE51
 5834 0060 00000000 		.4byte	.LFB49
 5835 0064 30000000 		.4byte	.LFE49
 5836 0068 00000000 		.4byte	.LFB50
 5837 006c 24000000 		.4byte	.LFE50
 5838 0070 00000000 		.4byte	.LFB54
 5839 0074 34000000 		.4byte	.LFE54
 5840 0078 00000000 		.4byte	.LFB55
 5841 007c 18000000 		.4byte	.LFE55
 5842 0080 00000000 		.4byte	.LFB56
 5843 0084 1C000000 		.4byte	.LFE56
 5844 0088 00000000 		.4byte	.LFB57
 5845 008c 18000000 		.4byte	.LFE57
 5846 0090 00000000 		.4byte	.LFB37
 5847 0094 24000000 		.4byte	.LFE37
 5848 0098 00000000 		.4byte	.LFB52
 5849 009c CC000000 		.4byte	.LFE52
 5850 00a0 00000000 		.4byte	.LFB38
 5851 00a4 1C000000 		.4byte	.LFE38
 5852 00a8 00000000 		.4byte	.LFB40
 5853 00ac 38000000 		.4byte	.LFE40
 5854 00b0 00000000 		.4byte	.LFB53
 5855 00b4 90000000 		.4byte	.LFE53
 5856 00b8 00000000 		.4byte	.LFB58
 5857 00bc 26000000 		.4byte	.LFE58
 5858 00c0 00000000 		.4byte	.LFB39
 5859 00c4 8C000000 		.4byte	.LFE39
 5860 00c8 00000000 		.4byte	.LFB59
 5861 00cc 0C000000 		.4byte	.LFE59
 5862 00d0 00000000 		.4byte	.LFB60
 5863 00d4 0C000000 		.4byte	.LFE60
 5864 00d8 00000000 		.4byte	.LFB61
 5865 00dc 0C000000 		.4byte	.LFE61
 5866 00e0 00000000 		.4byte	.LFB62
 5867 00e4 0C000000 		.4byte	.LFE62
 5868 00e8 00000000 		.4byte	.LFB63
 5869 00ec 0C000000 		.4byte	.LFE63
 5870 00f0 00000000 		.4byte	.LFB64
 5871 00f4 0C000000 		.4byte	.LFE64
 5872 00f8 00000000 		.4byte	.LFB65
 5873 00fc 0C000000 		.4byte	.LFE65
 5874 0100 00000000 		.4byte	.LFB66
 5875 0104 0C000000 		.4byte	.LFE66
ARM GAS  C:\Users\ZTIPRI~1\AppData\Local\Temp\ccBGTz86.s 			page 146


 5876 0108 00000000 		.4byte	.LFB67
 5877 010c 14000000 		.4byte	.LFE67
 5878 0110 00000000 		.4byte	.LFB68
 5879 0114 28000000 		.4byte	.LFE68
 5880 0118 00000000 		.4byte	.LFB69
 5881 011c 2A000000 		.4byte	.LFE69
 5882 0120 00000000 		.4byte	.LFB70
 5883 0124 0C000000 		.4byte	.LFE70
 5884 0128 00000000 		.4byte	.LFB32
 5885 012c 24000000 		.4byte	.LFE32
 5886 0130 00000000 		.4byte	.LFB35
 5887 0134 38000000 		.4byte	.LFE35
 5888 0138 00000000 		.4byte	0
 5889 013c 00000000 		.4byte	0
 5890              		.section	.debug_line,"",%progbits
 5891              	.Ldebug_line0:
 5892 0000 CD040000 		.section	.debug_str,"MS",%progbits,1
 5892      0200B400 
 5892      00000201 
 5892      FB0E0D00 
 5892      01010101 
 5893              	.LASF121:
 5894 0000 4379496E 		.ascii	"CyIntSetPriority\000"
 5894      74536574 
 5894      5072696F 
 5894      72697479 
 5894      00
 5895              	.LASF74:
 5896 0011 43617053 		.ascii	"CapSense_CSD_SetSenseClkDivider\000"
 5896      656E7365 
 5896      5F435344 
 5896      5F536574 
 5896      53656E73 
 5897              	.LASF110:
 5898 0031 43617053 		.ascii	"CapSense_CSD_prtCfgTbl\000"
 5898      656E7365 
 5898      5F435344 
 5898      5F707274 
 5898      43666754 
 5899              	.LASF105:
 5900 0048 43617053 		.ascii	"CapSense_CSD_widgetResolution\000"
 5900      656E7365 
 5900      5F435344 
 5900      5F776964 
 5900      67657452 
 5901              	.LASF50:
 5902 0066 43617053 		.ascii	"CapSense_CSD_RestoreDriveModeAllPins\000"
 5902      656E7365 
 5902      5F435344 
 5902      5F526573 
 5902      746F7265 
 5903              	.LASF103:
 5904 008b 43617053 		.ascii	"CapSense_CSD_modulationIDAC\000"
 5904      656E7365 
 5904      5F435344 
 5904      5F6D6F64 
 5904      756C6174 
ARM GAS  C:\Users\ZTIPRI~1\AppData\Local\Temp\ccBGTz86.s 			page 147


 5905              	.LASF8:
 5906 00a7 756E7369 		.ascii	"unsigned int\000"
 5906      676E6564 
 5906      20696E74 
 5906      00
 5907              	.LASF106:
 5908 00b4 43617053 		.ascii	"CapSense_CSD_senseClkDividerVal\000"
 5908      656E7365 
 5908      5F435344 
 5908      5F73656E 
 5908      7365436C 
 5909              	.LASF61:
 5910 00d4 43617053 		.ascii	"CapSense_CSD_FindNextSensor\000"
 5910      656E7365 
 5910      5F435344 
 5910      5F46696E 
 5910      644E6578 
 5911              	.LASF69:
 5912 00f0 43617053 		.ascii	"CapSense_CSD_SetBitValue\000"
 5912      656E7365 
 5912      5F435344 
 5912      5F536574 
 5912      42697456 
 5913              	.LASF88:
 5914 0109 43617053 		.ascii	"CapSense_CSD_GetSensorRaw\000"
 5914      656E7365 
 5914      5F435344 
 5914      5F476574 
 5914      53656E73 
 5915              	.LASF34:
 5916 0123 696E7465 		.ascii	"interruptState\000"
 5916      72727570 
 5916      74537461 
 5916      746500
 5917              	.LASF15:
 5918 0132 72656738 		.ascii	"reg8\000"
 5918      00
 5919              	.LASF108:
 5920 0137 43617053 		.ascii	"CapSense_CSD_widgetNumber\000"
 5920      656E7365 
 5920      5F435344 
 5920      5F776964 
 5920      6765744E 
 5921              	.LASF33:
 5922 0151 70696E48 		.ascii	"pinHSIOMShift\000"
 5922      53494F4D 
 5922      53686966 
 5922      7400
 5923              	.LASF107:
 5924 015f 43617053 		.ascii	"CapSense_CSD_sampleClkDividerVal\000"
 5924      656E7365 
 5924      5F435344 
 5924      5F73616D 
 5924      706C6543 
 5925              	.LASF122:
 5926 0180 43617053 		.ascii	"CapSense_CSD_SenseClk_Stop\000"
 5926      656E7365 
ARM GAS  C:\Users\ZTIPRI~1\AppData\Local\Temp\ccBGTz86.s 			page 148


 5926      5F435344 
 5926      5F53656E 
 5926      7365436C 
 5927              	.LASF91:
 5928 019b 43617053 		.ascii	"CapSense_CSD_SetUnscannedSensorState\000"
 5928      656E7365 
 5928      5F435344 
 5928      5F536574 
 5928      556E7363 
 5929              	.LASF119:
 5930 01c0 4379496E 		.ascii	"CyIntDisable\000"
 5930      74446973 
 5930      61626C65 
 5930      00
 5931              	.LASF90:
 5932 01cd 61766756 		.ascii	"avgVal\000"
 5932      616C00
 5933              	.LASF32:
 5934 01d4 70696E4D 		.ascii	"pinModeShift\000"
 5934      6F646553 
 5934      68696674 
 5934      00
 5935              	.LASF99:
 5936 01e1 43617053 		.ascii	"CapSense_CSD_sensorRaw\000"
 5936      656E7365 
 5936      5F435344 
 5936      5F73656E 
 5936      736F7252 
 5937              	.LASF38:
 5938 01f8 696E6163 		.ascii	"inactiveConnect\000"
 5938      74697665 
 5938      436F6E6E 
 5938      65637400 
 5939              	.LASF86:
 5940 0208 43617053 		.ascii	"CapSense_CSD_SetIDACRange\000"
 5940      656E7365 
 5940      5F435344 
 5940      5F536574 
 5940      49444143 
 5941              	.LASF56:
 5942 0222 43617053 		.ascii	"CapSense_CSD_GetBitValue\000"
 5942      656E7365 
 5942      5F435344 
 5942      5F476574 
 5942      42697456 
 5943              	.LASF12:
 5944 023b 666C6F61 		.ascii	"float\000"
 5944      7400
 5945              	.LASF22:
 5946 0241 43617053 		.ascii	"CapSense_CSD_Stop\000"
 5946      656E7365 
 5946      5F435344 
 5946      5F53746F 
 5946      7000
 5947              	.LASF7:
 5948 0253 6C6F6E67 		.ascii	"long long unsigned int\000"
 5948      206C6F6E 
ARM GAS  C:\Users\ZTIPRI~1\AppData\Local\Temp\ccBGTz86.s 			page 149


 5948      6720756E 
 5948      7369676E 
 5948      65642069 
 5949              	.LASF27:
 5950 026a 77696467 		.ascii	"widget\000"
 5950      657400
 5951              	.LASF73:
 5952 0271 43617053 		.ascii	"CapSense_CSD_GetSenseClkDivider\000"
 5952      656E7365 
 5952      5F435344 
 5952      5F476574 
 5952      53656E73 
 5953              	.LASF25:
 5954 0291 76616C75 		.ascii	"value\000"
 5954      6500
 5955              	.LASF133:
 5956 0297 474E5520 		.ascii	"GNU C11 5.4.1 20160609 (release) [ARM/embedded-5-br"
 5956      43313120 
 5956      352E342E 
 5956      31203230 
 5956      31363036 
 5957 02ca 616E6368 		.ascii	"anch revision 237715] -mcpu=cortex-m0 -mthumb -g -O"
 5957      20726576 
 5957      6973696F 
 5957      6E203233 
 5957      37373135 
 5958 02fd 67202D66 		.ascii	"g -ffunction-sections -ffat-lto-objects\000"
 5958      66756E63 
 5958      74696F6E 
 5958      2D736563 
 5958      74696F6E 
 5959              	.LASF51:
 5960 0325 43617053 		.ascii	"CapSense_CSD_EnableShieldElectrode\000"
 5960      656E7365 
 5960      5F435344 
 5960      5F456E61 
 5960      626C6553 
 5961              	.LASF35:
 5962 0348 6E657752 		.ascii	"newRegisterValue\000"
 5962      65676973 
 5962      74657256 
 5962      616C7565 
 5962      00
 5963              	.LASF26:
 5964 0359 43617053 		.ascii	"CapSense_CSD_SetScanResolution\000"
 5964      656E7365 
 5964      5F435344 
 5964      5F536574 
 5964      5363616E 
 5965              	.LASF39:
 5966 0378 73656E73 		.ascii	"sensorState\000"
 5966      6F725374 
 5966      61746500 
 5967              	.LASF59:
 5968 0384 6F666673 		.ascii	"offset\000"
 5968      657400
 5969              	.LASF132:
ARM GAS  C:\Users\ZTIPRI~1\AppData\Local\Temp\ccBGTz86.s 			page 150


 5970 038b 43617053 		.ascii	"CapSense_CSD_AutoTune\000"
 5970      656E7365 
 5970      5F435344 
 5970      5F417574 
 5970      6F54756E 
 5971              	.LASF29:
 5972 03a1 43617053 		.ascii	"CapSense_CSD_ReadSensorRaw\000"
 5972      656E7365 
 5972      5F435344 
 5972      5F526561 
 5972      6453656E 
 5973              	.LASF125:
 5974 03bc 43617053 		.ascii	"CapSense_CSD_SenseClk_SetFractionalDividerRegister\000"
 5974      656E7365 
 5974      5F435344 
 5974      5F53656E 
 5974      7365436C 
 5975              	.LASF48:
 5976 03ef 7072744E 		.ascii	"prtNumberTmp\000"
 5976      756D6265 
 5976      72546D70 
 5976      00
 5977              	.LASF71:
 5978 03fc 73656E73 		.ascii	"sensorsPerWidget\000"
 5978      6F727350 
 5978      65725769 
 5978      64676574 
 5978      00
 5979              	.LASF30:
 5980 040d 43617053 		.ascii	"CapSense_CSD_GetScanResolution\000"
 5980      656E7365 
 5980      5F435344 
 5980      5F476574 
 5980      5363616E 
 5981              	.LASF67:
 5982 042c 43617053 		.ascii	"CapSense_CSD_ScanEnabledWidgets\000"
 5982      656E7365 
 5982      5F435344 
 5982      5F536361 
 5982      6E456E61 
 5983              	.LASF89:
 5984 044c 63757253 		.ascii	"curSample\000"
 5984      616D706C 
 5984      6500
 5985              	.LASF83:
 5986 0456 43617053 		.ascii	"CapSense_CSD_SetCompensationIDAC\000"
 5986      656E7365 
 5986      5F435344 
 5986      5F536574 
 5986      436F6D70 
 5987              	.LASF24:
 5988 0477 73656E73 		.ascii	"sensor\000"
 5988      6F7200
 5989              	.LASF114:
 5990 047e 43617053 		.ascii	"CapSense_CSD_maskTable\000"
 5990      656E7365 
 5990      5F435344 
ARM GAS  C:\Users\ZTIPRI~1\AppData\Local\Temp\ccBGTz86.s 			page 151


 5990      5F6D6173 
 5990      6B546162 
 5991              	.LASF117:
 5992 0495 43617053 		.ascii	"CapSense_CSD_numberOfSensors\000"
 5992      656E7365 
 5992      5F435344 
 5992      5F6E756D 
 5992      6265724F 
 5993              	.LASF14:
 5994 04b2 63686172 		.ascii	"char\000"
 5994      00
 5995              	.LASF130:
 5996 04b7 43794578 		.ascii	"CyExitCriticalSection\000"
 5996      69744372 
 5996      69746963 
 5996      616C5365 
 5996      6374696F 
 5997              	.LASF131:
 5998 04cd 43794465 		.ascii	"CyDelayCycles\000"
 5998      6C617943 
 5998      79636C65 
 5998      7300
 5999              	.LASF55:
 6000 04db 43617053 		.ascii	"CapSense_CSD_ReadCurrentScanningSensor\000"
 6000      656E7365 
 6000      5F435344 
 6000      5F526561 
 6000      64437572 
 6001              	.LASF123:
 6002 0502 43617053 		.ascii	"CapSense_CSD_SampleClk_Stop\000"
 6002      656E7365 
 6002      5F435344 
 6002      5F53616D 
 6002      706C6543 
 6003              	.LASF57:
 6004 051e 7461626C 		.ascii	"table\000"
 6004      6500
 6005              	.LASF10:
 6006 0524 75696E74 		.ascii	"uint16\000"
 6006      313600
 6007              	.LASF120:
 6008 052b 4379496E 		.ascii	"CyIntSetVector\000"
 6008      74536574 
 6008      56656374 
 6008      6F7200
 6009              	.LASF28:
 6010 053a 7265736F 		.ascii	"resolution\000"
 6010      6C757469 
 6010      6F6E00
 6011              	.LASF49:
 6012 0545 70696E4E 		.ascii	"pinNumberTmp\000"
 6012      756D6265 
 6012      72546D70 
 6012      00
 6013              	.LASF6:
 6014 0552 6C6F6E67 		.ascii	"long long int\000"
 6014      206C6F6E 
ARM GAS  C:\Users\ZTIPRI~1\AppData\Local\Temp\ccBGTz86.s 			page 152


 6014      6720696E 
 6014      7400
 6015              	.LASF113:
 6016 0560 43617053 		.ascii	"CapSense_CSD_portTable\000"
 6016      656E7365 
 6016      5F435344 
 6016      5F706F72 
 6016      74546162 
 6017              	.LASF62:
 6018 0577 656E6162 		.ascii	"enableFlag\000"
 6018      6C65466C 
 6018      616700
 6019              	.LASF68:
 6020 0582 43617053 		.ascii	"CapSense_CSD_PostScan\000"
 6020      656E7365 
 6020      5F435344 
 6020      5F506F73 
 6020      74536361 
 6021              	.LASF100:
 6022 0598 43617053 		.ascii	"CapSense_CSD_unscannedSnsDriveMode\000"
 6022      656E7365 
 6022      5F435344 
 6022      5F756E73 
 6022      63616E6E 
 6023              	.LASF124:
 6024 05bb 43617053 		.ascii	"CapSense_CSD_SampleClk_SetFractionalDividerRegister"
 6024      656E7365 
 6024      5F435344 
 6024      5F53616D 
 6024      706C6543 
 6025 05ee 00       		.ascii	"\000"
 6026              	.LASF93:
 6027 05ef 43617053 		.ascii	"CapSense_CSD_Start\000"
 6027      656E7365 
 6027      5F435344 
 6027      5F537461 
 6027      727400
 6028              	.LASF11:
 6029 0602 75696E74 		.ascii	"uint32\000"
 6029      333200
 6030              	.LASF96:
 6031 0609 43617053 		.ascii	"CapSense_CSD_scanSpeedTbl\000"
 6031      656E7365 
 6031      5F435344 
 6031      5F736361 
 6031      6E537065 
 6032              	.LASF98:
 6033 0623 43617053 		.ascii	"CapSense_CSD_sensorIndex\000"
 6033      656E7365 
 6033      5F435344 
 6033      5F73656E 
 6033      736F7249 
 6034              	.LASF97:
 6035 063c 43617053 		.ascii	"CapSense_CSD_csdStatusVar\000"
 6035      656E7365 
 6035      5F435344 
 6035      5F637364 
ARM GAS  C:\Users\ZTIPRI~1\AppData\Local\Temp\ccBGTz86.s 			page 153


 6035      53746174 
 6036              	.LASF44:
 6037 0656 70696E4E 		.ascii	"pinNumber\000"
 6037      756D6265 
 6037      7200
 6038              	.LASF41:
 6039 0660 736E7349 		.ascii	"snsIndex\000"
 6039      6E646578 
 6039      00
 6040              	.LASF70:
 6041 0669 43617053 		.ascii	"CapSense_CSD_ScanWidget\000"
 6041      656E7365 
 6041      5F435344 
 6041      5F536361 
 6041      6E576964 
 6042              	.LASF18:
 6043 0681 6C6F6E67 		.ascii	"long double\000"
 6043      20646F75 
 6043      626C6500 
 6044              	.LASF72:
 6045 068d 6C617374 		.ascii	"lastSensor\000"
 6045      53656E73 
 6045      6F7200
 6046              	.LASF16:
 6047 0698 72656733 		.ascii	"reg32\000"
 6047      3200
 6048              	.LASF45:
 6049 069e 706F7274 		.ascii	"portNumber\000"
 6049      4E756D62 
 6049      657200
 6050              	.LASF102:
 6051 06a9 43617053 		.ascii	"CapSense_CSD_sensorEnableMask\000"
 6051      656E7365 
 6051      5F435344 
 6051      5F73656E 
 6051      736F7245 
 6052              	.LASF75:
 6053 06c7 73656E73 		.ascii	"senseClk\000"
 6053      65436C6B 
 6053      00
 6054              	.LASF37:
 6055 06d0 43617053 		.ascii	"CapSense_CSD_DisableSensor\000"
 6055      656E7365 
 6055      5F435344 
 6055      5F446973 
 6055      61626C65 
 6056              	.LASF2:
 6057 06eb 73686F72 		.ascii	"short int\000"
 6057      7420696E 
 6057      7400
 6058              	.LASF104:
 6059 06f5 43617053 		.ascii	"CapSense_CSD_compensationIDAC\000"
 6059      656E7365 
 6059      5F435344 
 6059      5F636F6D 
 6059      70656E73 
 6060              	.LASF4:
ARM GAS  C:\Users\ZTIPRI~1\AppData\Local\Temp\ccBGTz86.s 			page 154


 6061 0713 6C6F6E67 		.ascii	"long int\000"
 6061      20696E74 
 6061      00
 6062              	.LASF92:
 6063 071c 43617053 		.ascii	"CapSense_CSD_Init\000"
 6063      656E7365 
 6063      5F435344 
 6063      5F496E69 
 6063      7400
 6064              	.LASF118:
 6065 072e 43617053 		.ascii	"CapSense_CSD_csdTrim1\000"
 6065      656E7365 
 6065      5F435344 
 6065      5F637364 
 6065      5472696D 
 6066              	.LASF53:
 6067 0744 64656C61 		.ascii	"delay\000"
 6067      7900
 6068              	.LASF111:
 6069 074a 43617053 		.ascii	"CapSense_CSD_prtDRTbl\000"
 6069      656E7365 
 6069      5F435344 
 6069      5F707274 
 6069      44525462 
 6070              	.LASF42:
 6071 0760 43617053 		.ascii	"CapSense_CSD_SetPinDriveMode\000"
 6071      656E7365 
 6071      5F435344 
 6071      5F536574 
 6071      50696E44 
 6072              	.LASF94:
 6073 077d 43617053 		.ascii	"CapSense_CSD_initVar\000"
 6073      656E7365 
 6073      5F435344 
 6073      5F696E69 
 6073      74566172 
 6074              	.LASF126:
 6075 0792 43617053 		.ascii	"CapSense_CSD_SenseClk_Start\000"
 6075      656E7365 
 6075      5F435344 
 6075      5F53656E 
 6075      7365436C 
 6076              	.LASF77:
 6077 07ae 43617053 		.ascii	"CapSense_CSD_SetModulatorClkDivider\000"
 6077      656E7365 
 6077      5F435344 
 6077      5F536574 
 6077      4D6F6475 
 6078              	.LASF87:
 6079 07d2 69446163 		.ascii	"iDacRange\000"
 6079      52616E67 
 6079      6500
 6080              	.LASF66:
 6081 07dc 43617053 		.ascii	"CapSense_CSD_ScanSensor\000"
 6081      656E7365 
 6081      5F435344 
 6081      5F536361 
ARM GAS  C:\Users\ZTIPRI~1\AppData\Local\Temp\ccBGTz86.s 			page 155


 6081      6E53656E 
 6082              	.LASF127:
 6083 07f4 43617053 		.ascii	"CapSense_CSD_SampleClk_Start\000"
 6083      656E7365 
 6083      5F435344 
 6083      5F53616D 
 6083      706C6543 
 6084              	.LASF40:
 6085 0811 43617053 		.ascii	"CapSense_CSD_ClearSensors\000"
 6085      656E7365 
 6085      5F435344 
 6085      5F436C65 
 6085      61725365 
 6086              	.LASF135:
 6087 082b 443A5C5A 		.ascii	"D:\\Zuru Shaunak\\Documents\\PSoC Creator\\Workspac"
 6087      75727520 
 6087      53686175 
 6087      6E616B5C 
 6087      446F6375 
 6088 085a 6530325C 		.ascii	"e02\\Design01.cydsn\000"
 6088      44657369 
 6088      676E3031 
 6088      2E637964 
 6088      736E00
 6089              	.LASF84:
 6090 086d 636F6D70 		.ascii	"compIdacValue\000"
 6090      49646163 
 6090      56616C75 
 6090      6500
 6091              	.LASF95:
 6092 087b 43617053 		.ascii	"CapSense_CSD_lowLevelTuningDone\000"
 6092      656E7365 
 6092      5F435344 
 6092      5F6C6F77 
 6092      4C657665 
 6093              	.LASF81:
 6094 089b 6D6F6449 		.ascii	"modIdacValue\000"
 6094      64616356 
 6094      616C7565 
 6094      00
 6095              	.LASF63:
 6096 08a8 43617053 		.ascii	"CapSense_CSD_PreScan\000"
 6096      656E7365 
 6096      5F435344 
 6096      5F507265 
 6096      5363616E 
 6097              	.LASF17:
 6098 08bd 73697A65 		.ascii	"sizetype\000"
 6098      74797065 
 6098      00
 6099              	.LASF5:
 6100 08c6 6C6F6E67 		.ascii	"long unsigned int\000"
 6100      20756E73 
 6100      69676E65 
 6100      6420696E 
 6100      7400
 6101              	.LASF116:
ARM GAS  C:\Users\ZTIPRI~1\AppData\Local\Temp\ccBGTz86.s 			page 156


 6102 08d8 43617053 		.ascii	"CapSense_CSD_rawDataIndex\000"
 6102      656E7365 
 6102      5F435344 
 6102      5F726177 
 6102      44617461 
 6103              	.LASF134:
 6104 08f2 47656E65 		.ascii	"Generated_Source\\PSoC4\\CapSense_CSD.c\000"
 6104      72617465 
 6104      645F536F 
 6104      75726365 
 6104      5C50536F 
 6105              	.LASF36:
 6106 0918 706F7274 		.ascii	"port\000"
 6106      00
 6107              	.LASF60:
 6108 091d 656E4D61 		.ascii	"enMask\000"
 6108      736B00
 6109              	.LASF52:
 6110 0924 43617053 		.ascii	"CapSense_CSD_SetShieldDelay\000"
 6110      656E7365 
 6110      5F435344 
 6110      5F536574 
 6110      53686965 
 6111              	.LASF128:
 6112 0940 4379496E 		.ascii	"CyIntEnable\000"
 6112      74456E61 
 6112      626C6500 
 6113              	.LASF76:
 6114 094c 43617053 		.ascii	"CapSense_CSD_GetModulatorClkDivider\000"
 6114      656E7365 
 6114      5F435344 
 6114      5F476574 
 6114      4D6F6475 
 6115              	.LASF54:
 6116 0970 43617053 		.ascii	"CapSense_CSD_IsBusy\000"
 6116      656E7365 
 6116      5F435344 
 6116      5F497342 
 6116      75737900 
 6117              	.LASF1:
 6118 0984 756E7369 		.ascii	"unsigned char\000"
 6118      676E6564 
 6118      20636861 
 6118      7200
 6119              	.LASF19:
 6120 0992 43617053 		.ascii	"CapSense_CSD_CsdHwBlockInit\000"
 6120      656E7365 
 6120      5F435344 
 6120      5F437364 
 6120      4877426C 
 6121              	.LASF64:
 6122 09ae 636F756E 		.ascii	"counterResolution\000"
 6122      74657252 
 6122      65736F6C 
 6122      7574696F 
 6122      6E00
 6123              	.LASF115:
ARM GAS  C:\Users\ZTIPRI~1\AppData\Local\Temp\ccBGTz86.s 			page 157


 6124 09c0 43617053 		.ascii	"CapSense_CSD_pinShiftTbl\000"
 6124      656E7365 
 6124      5F435344 
 6124      5F70696E 
 6124      53686966 
 6125              	.LASF78:
 6126 09d9 6D6F6475 		.ascii	"modulatorClk\000"
 6126      6C61746F 
 6126      72436C6B 
 6126      00
 6127              	.LASF79:
 6128 09e6 43617053 		.ascii	"CapSense_CSD_GetModulationIDAC\000"
 6128      656E7365 
 6128      5F435344 
 6128      5F476574 
 6128      4D6F6475 
 6129              	.LASF112:
 6130 0a05 43617053 		.ascii	"CapSense_CSD_pcTable\000"
 6130      656E7365 
 6130      5F435344 
 6130      5F706354 
 6130      61626C65 
 6131              	.LASF82:
 6132 0a1a 43617053 		.ascii	"CapSense_CSD_GetCompensationIDAC\000"
 6132      656E7365 
 6132      5F435344 
 6132      5F476574 
 6132      436F6D70 
 6133              	.LASF101:
 6134 0a3b 43617053 		.ascii	"CapSense_CSD_sensorEnableMaskBackup\000"
 6134      656E7365 
 6134      5F435344 
 6134      5F73656E 
 6134      736F7245 
 6135              	.LASF129:
 6136 0a5f 4379456E 		.ascii	"CyEnterCriticalSection\000"
 6136      74657243 
 6136      72697469 
 6136      63616C53 
 6136      65637469 
 6137              	.LASF0:
 6138 0a76 7369676E 		.ascii	"signed char\000"
 6138      65642063 
 6138      68617200 
 6139              	.LASF3:
 6140 0a82 73686F72 		.ascii	"short unsigned int\000"
 6140      7420756E 
 6140      7369676E 
 6140      65642069 
 6140      6E7400
 6141              	.LASF85:
 6142 0a95 43617053 		.ascii	"CapSense_CSD_GetIDACRange\000"
 6142      656E7365 
 6142      5F435344 
 6142      5F476574 
 6142      49444143 
 6143              	.LASF80:
ARM GAS  C:\Users\ZTIPRI~1\AppData\Local\Temp\ccBGTz86.s 			page 158


 6144 0aaf 43617053 		.ascii	"CapSense_CSD_SetModulationIDAC\000"
 6144      656E7365 
 6144      5F435344 
 6144      5F536574 
 6144      4D6F6475 
 6145              	.LASF21:
 6146 0ace 6E657752 		.ascii	"newRegValue\000"
 6146      65675661 
 6146      6C756500 
 6147              	.LASF46:
 6148 0ada 43617053 		.ascii	"CapSense_CSD_SetDriveModeAllPins\000"
 6148      656E7365 
 6148      5F435344 
 6148      5F536574 
 6148      44726976 
 6149              	.LASF9:
 6150 0afb 75696E74 		.ascii	"uint8\000"
 6150      3800
 6151              	.LASF13:
 6152 0b01 646F7562 		.ascii	"double\000"
 6152      6C6500
 6153              	.LASF109:
 6154 0b08 43617053 		.ascii	"CapSense_CSD_prtSelTbl\000"
 6154      656E7365 
 6154      5F435344 
 6154      5F707274 
 6154      53656C54 
 6155              	.LASF47:
 6156 0b1f 63757253 		.ascii	"curSensor\000"
 6156      656E736F 
 6156      7200
 6157              	.LASF23:
 6158 0b29 43617053 		.ascii	"CapSense_CSD_WriteSensorRaw\000"
 6158      656E7365 
 6158      5F435344 
 6158      5F577269 
 6158      74655365 
 6159              	.LASF65:
 6160 0b45 6F766572 		.ascii	"oversamplingFactor\000"
 6160      73616D70 
 6160      6C696E67 
 6160      46616374 
 6160      6F7200
 6161              	.LASF43:
 6162 0b58 64726976 		.ascii	"driveMode\000"
 6162      654D6F64 
 6162      6500
 6163              	.LASF31:
 6164 0b62 43617053 		.ascii	"CapSense_CSD_EnableSensor\000"
 6164      656E7365 
 6164      5F435344 
 6164      5F456E61 
 6164      626C6553 
 6165              	.LASF58:
 6166 0b7c 706F7369 		.ascii	"position\000"
 6166      74696F6E 
 6166      00
ARM GAS  C:\Users\ZTIPRI~1\AppData\Local\Temp\ccBGTz86.s 			page 159


 6167              	.LASF20:
 6168 0b85 43617053 		.ascii	"CapSense_CSD_Enable\000"
 6168      656E7365 
 6168      5F435344 
 6168      5F456E61 
 6168      626C6500 
 6169              		.ident	"GCC: (GNU Tools for ARM Embedded Processors) 5.4.1 20160609 (release) [ARM/embedded-5-bran
