ARM GAS  C:\Users\ZURUSH~1\AppData\Local\Temp\ccIBvwAy.s 			page 1


   1              		.syntax unified
   2              		.cpu cortex-m0
   3              		.fpu softvfp
   4              		.eabi_attribute 20, 1
   5              		.eabi_attribute 21, 1
   6              		.eabi_attribute 23, 3
   7              		.eabi_attribute 24, 1
   8              		.eabi_attribute 25, 1
   9              		.eabi_attribute 26, 1
  10              		.eabi_attribute 30, 1
  11              		.eabi_attribute 34, 0
  12              		.eabi_attribute 18, 4
  13              		.thumb
  14              		.syntax unified
  15              		.file	"CapSense.c"
  16              		.text
  17              	.Ltext0:
  18              		.cfi_sections	.debug_frame
  19              		.section	.text.CapSense_CsdHwBlockInit,"ax",%progbits
  20              		.align	2
  21              		.global	CapSense_CsdHwBlockInit
  22              		.code	16
  23              		.thumb_func
  24              		.type	CapSense_CsdHwBlockInit, %function
  25              	CapSense_CsdHwBlockInit:
  26              	.LFB33:
  27              		.file 1 "Generated_Source\\PSoC4\\CapSense.c"
   1:Generated_Source\PSoC4/CapSense.c **** /*******************************************************************************
   2:Generated_Source\PSoC4/CapSense.c **** * File Name: CapSense.c
   3:Generated_Source\PSoC4/CapSense.c **** * Version 2.60
   4:Generated_Source\PSoC4/CapSense.c **** *
   5:Generated_Source\PSoC4/CapSense.c **** * Description:
   6:Generated_Source\PSoC4/CapSense.c **** *  This file provides the source code for scanning APIs for the CapSense CSD
   7:Generated_Source\PSoC4/CapSense.c **** *  component.
   8:Generated_Source\PSoC4/CapSense.c **** *
   9:Generated_Source\PSoC4/CapSense.c **** * Note:
  10:Generated_Source\PSoC4/CapSense.c **** *
  11:Generated_Source\PSoC4/CapSense.c **** ********************************************************************************
  12:Generated_Source\PSoC4/CapSense.c **** * Copyright 2013-2016, Cypress Semiconductor Corporation.  All rights reserved.
  13:Generated_Source\PSoC4/CapSense.c **** * You may use this file only in accordance with the license, terms, conditions,
  14:Generated_Source\PSoC4/CapSense.c **** * disclaimers, and limitations in the end user license agreement accompanying
  15:Generated_Source\PSoC4/CapSense.c **** * the software package with which this file was provided.
  16:Generated_Source\PSoC4/CapSense.c **** *******************************************************************************/
  17:Generated_Source\PSoC4/CapSense.c **** 
  18:Generated_Source\PSoC4/CapSense.c **** #include "CapSense.h"
  19:Generated_Source\PSoC4/CapSense.c **** #include "CapSense_PVT.h"
  20:Generated_Source\PSoC4/CapSense.c **** #include "cypins.h"
  21:Generated_Source\PSoC4/CapSense.c **** #include "cyapicallbacks.h"
  22:Generated_Source\PSoC4/CapSense.c **** 
  23:Generated_Source\PSoC4/CapSense.c **** #if(0u != CapSense_CSHL_API_GENERATE)
  24:Generated_Source\PSoC4/CapSense.c ****     #include "CapSense_CSHL.h"
  25:Generated_Source\PSoC4/CapSense.c **** #endif /* (0u != CapSense_CSHL_API_GENERATE) */
  26:Generated_Source\PSoC4/CapSense.c **** 
  27:Generated_Source\PSoC4/CapSense.c **** /* This definition is intended to prevent unexpected linker error.
  28:Generated_Source\PSoC4/CapSense.c ****    For more details please see the IAR Technical Note 49981 */
  29:Generated_Source\PSoC4/CapSense.c **** #if defined(__ICCARM__)
  30:Generated_Source\PSoC4/CapSense.c ****     extern void CapSense_EnableSensor(uint32 sensor);
ARM GAS  C:\Users\ZURUSH~1\AppData\Local\Temp\ccIBvwAy.s 			page 2


  31:Generated_Source\PSoC4/CapSense.c ****     extern void CapSense_DisableSensor(uint32 sensor);
  32:Generated_Source\PSoC4/CapSense.c **** #endif /* (__ICCARM__) */
  33:Generated_Source\PSoC4/CapSense.c **** 
  34:Generated_Source\PSoC4/CapSense.c **** /* SmartSense functions */
  35:Generated_Source\PSoC4/CapSense.c **** #if (CapSense_TUNING_METHOD == CapSense__TUNING_AUTO)
  36:Generated_Source\PSoC4/CapSense.c ****     uint8 CapSense_lowLevelTuningDone = 0u;
  37:Generated_Source\PSoC4/CapSense.c ****     uint8 CapSense_scanSpeedTbl[((CapSense_TOTAL_SENSOR_COUNT - 1u) / 8u) + 1u];
  38:Generated_Source\PSoC4/CapSense.c **** #endif /* (CapSense_TUNING_METHOD == CapSense__TUNING_AUTO) */
  39:Generated_Source\PSoC4/CapSense.c **** 
  40:Generated_Source\PSoC4/CapSense.c **** #if(CapSense_PRS_OPTIONS != CapSense__PRS_NONE)
  41:Generated_Source\PSoC4/CapSense.c ****     uint8 CapSense_prescalersTuningDone = 0u;
  42:Generated_Source\PSoC4/CapSense.c **** #endif /* (CapSense_PRS_OPTIONS == CapSense__PRS_NONE) */
  43:Generated_Source\PSoC4/CapSense.c **** 
  44:Generated_Source\PSoC4/CapSense.c **** /* Global software variables */
  45:Generated_Source\PSoC4/CapSense.c **** volatile uint8 CapSense_csdStatusVar = 0u;   /* CapSense CSD status, variable */
  46:Generated_Source\PSoC4/CapSense.c **** volatile uint8 CapSense_sensorIndex = 0u;    /* Index of scannig sensor */
  47:Generated_Source\PSoC4/CapSense.c **** 
  48:Generated_Source\PSoC4/CapSense.c **** /* Global array of Raw Counts */
  49:Generated_Source\PSoC4/CapSense.c **** uint16 CapSense_sensorRaw[CapSense_TOTAL_SENSOR_COUNT] = {0u};
  50:Generated_Source\PSoC4/CapSense.c **** 
  51:Generated_Source\PSoC4/CapSense.c **** /* Backup variables for trim registers*/
  52:Generated_Source\PSoC4/CapSense.c **** #if (CapSense_IDAC1_POLARITY == CapSense__IDAC_SINK)
  53:Generated_Source\PSoC4/CapSense.c ****     uint8 CapSense_csdTrim2;
  54:Generated_Source\PSoC4/CapSense.c **** #else
  55:Generated_Source\PSoC4/CapSense.c ****     uint8 CapSense_csdTrim1;
  56:Generated_Source\PSoC4/CapSense.c **** #endif /* (CapSense_IDAC1_POLARITY == CapSense__IDAC_SINK) */
  57:Generated_Source\PSoC4/CapSense.c **** 
  58:Generated_Source\PSoC4/CapSense.c **** /* Global array of un-scanned sensors state */
  59:Generated_Source\PSoC4/CapSense.c **** uint8 CapSense_unscannedSnsDriveMode[CapSense_PORT_PIN_CONFIG_TBL_ZISE];
  60:Generated_Source\PSoC4/CapSense.c **** 
  61:Generated_Source\PSoC4/CapSense.c **** /* Backup array for CapSense_sensorEnableMask */
  62:Generated_Source\PSoC4/CapSense.c **** uint8 CapSense_sensorEnableMaskBackup[(((CapSense_TOTAL_SENSOR_COUNT - 1u) / 8u) + 1u)];
  63:Generated_Source\PSoC4/CapSense.c **** 
  64:Generated_Source\PSoC4/CapSense.c **** /* Configured constants and arrays by Customizer */
  65:Generated_Source\PSoC4/CapSense.c **** uint8 CapSense_sensorEnableMask[(((CapSense_TOTAL_SENSOR_COUNT - 1u) / 8u) + 1u)] = {
  66:Generated_Source\PSoC4/CapSense.c **** 0x1u, };
  67:Generated_Source\PSoC4/CapSense.c **** 
  68:Generated_Source\PSoC4/CapSense.c **** reg32 * CapSense_pcTable[] = {
  69:Generated_Source\PSoC4/CapSense.c ****     (reg32 *)CapSense_Sns__Button0__BTN__PC, 
  70:Generated_Source\PSoC4/CapSense.c **** };
  71:Generated_Source\PSoC4/CapSense.c **** 
  72:Generated_Source\PSoC4/CapSense.c **** const uint8 CapSense_portTable[] = {
  73:Generated_Source\PSoC4/CapSense.c ****     CapSense_Sns__Button0__BTN__PORT, 
  74:Generated_Source\PSoC4/CapSense.c **** };
  75:Generated_Source\PSoC4/CapSense.c **** 
  76:Generated_Source\PSoC4/CapSense.c **** const uint32 CapSense_maskTable[] = {
  77:Generated_Source\PSoC4/CapSense.c ****     CapSense_Sns__Button0__BTN__MASK, 
  78:Generated_Source\PSoC4/CapSense.c **** };
  79:Generated_Source\PSoC4/CapSense.c **** 
  80:Generated_Source\PSoC4/CapSense.c **** const uint8 CapSense_pinShiftTbl[] = {
  81:Generated_Source\PSoC4/CapSense.c ****     (uint8) CapSense_Sns__Button0__BTN__SHIFT, 
  82:Generated_Source\PSoC4/CapSense.c **** };
  83:Generated_Source\PSoC4/CapSense.c **** 
  84:Generated_Source\PSoC4/CapSense.c **** uint8 CapSense_modulationIDAC[CapSense_TOTAL_SENSOR_COUNT];
  85:Generated_Source\PSoC4/CapSense.c **** uint8 CapSense_compensationIDAC[CapSense_TOTAL_SENSOR_COUNT];
  86:Generated_Source\PSoC4/CapSense.c **** 
  87:Generated_Source\PSoC4/CapSense.c **** uint32 CapSense_widgetResolution[CapSense_RESOLUTIONS_TBL_SIZE] = {
ARM GAS  C:\Users\ZURUSH~1\AppData\Local\Temp\ccIBvwAy.s 			page 3


  88:Generated_Source\PSoC4/CapSense.c ****     CapSense_RESOLUTION_12_BITS,
  89:Generated_Source\PSoC4/CapSense.c **** };
  90:Generated_Source\PSoC4/CapSense.c **** 
  91:Generated_Source\PSoC4/CapSense.c **** uint8 CapSense_senseClkDividerVal[CapSense_TOTAL_SCANSLOT_COUNT];
  92:Generated_Source\PSoC4/CapSense.c **** uint8 CapSense_sampleClkDividerVal[CapSense_TOTAL_SCANSLOT_COUNT];
  93:Generated_Source\PSoC4/CapSense.c **** 
  94:Generated_Source\PSoC4/CapSense.c **** const uint8 CapSense_widgetNumber[CapSense_TOTAL_SENSOR_COUNT] = {
  95:Generated_Source\PSoC4/CapSense.c ****     0u, /* Button0__BTN */
  96:Generated_Source\PSoC4/CapSense.c **** };
  97:Generated_Source\PSoC4/CapSense.c **** 
  98:Generated_Source\PSoC4/CapSense.c **** reg32* const CapSense_prtSelTbl[CapSense_CFG_REG_TBL_SIZE] = {
  99:Generated_Source\PSoC4/CapSense.c ****     ((reg32 *) CYREG_HSIOM_PORT_SEL0),
 100:Generated_Source\PSoC4/CapSense.c ****     ((reg32 *) CYREG_HSIOM_PORT_SEL1),
 101:Generated_Source\PSoC4/CapSense.c ****     ((reg32 *) CYREG_HSIOM_PORT_SEL2),
 102:Generated_Source\PSoC4/CapSense.c ****     ((reg32 *) CYREG_HSIOM_PORT_SEL3),
 103:Generated_Source\PSoC4/CapSense.c ****     ((reg32 *) CYREG_HSIOM_PORT_SEL4),
 104:Generated_Source\PSoC4/CapSense.c **** };
 105:Generated_Source\PSoC4/CapSense.c **** 
 106:Generated_Source\PSoC4/CapSense.c **** reg32* const CapSense_prtCfgTbl[CapSense_CFG_REG_TBL_SIZE] = {
 107:Generated_Source\PSoC4/CapSense.c ****     ((reg32 *) CYREG_PRT0_PC),
 108:Generated_Source\PSoC4/CapSense.c ****     ((reg32 *) CYREG_PRT1_PC),
 109:Generated_Source\PSoC4/CapSense.c ****     ((reg32 *) CYREG_PRT2_PC),
 110:Generated_Source\PSoC4/CapSense.c ****     ((reg32 *) CYREG_PRT3_PC),
 111:Generated_Source\PSoC4/CapSense.c ****     ((reg32 *) CYREG_PRT4_PC),
 112:Generated_Source\PSoC4/CapSense.c **** };
 113:Generated_Source\PSoC4/CapSense.c **** 
 114:Generated_Source\PSoC4/CapSense.c **** reg32* const CapSense_prtDRTbl[CapSense_CFG_REG_TBL_SIZE] = {
 115:Generated_Source\PSoC4/CapSense.c ****     ((reg32 *) CYREG_PRT0_DR),
 116:Generated_Source\PSoC4/CapSense.c ****     ((reg32 *) CYREG_PRT1_DR),
 117:Generated_Source\PSoC4/CapSense.c ****     ((reg32 *) CYREG_PRT2_DR),
 118:Generated_Source\PSoC4/CapSense.c ****     ((reg32 *) CYREG_PRT3_DR),
 119:Generated_Source\PSoC4/CapSense.c ****     ((reg32 *) CYREG_PRT4_DR),
 120:Generated_Source\PSoC4/CapSense.c **** };
 121:Generated_Source\PSoC4/CapSense.c **** 
 122:Generated_Source\PSoC4/CapSense.c **** 
 123:Generated_Source\PSoC4/CapSense.c **** 
 124:Generated_Source\PSoC4/CapSense.c **** /*******************************************************************************
 125:Generated_Source\PSoC4/CapSense.c **** * Function Name: CapSense_Init
 126:Generated_Source\PSoC4/CapSense.c **** ********************************************************************************
 127:Generated_Source\PSoC4/CapSense.c **** *
 128:Generated_Source\PSoC4/CapSense.c **** * Summary:
 129:Generated_Source\PSoC4/CapSense.c **** *  API initializes default CapSense configuration provided by the customizer that defines
 130:Generated_Source\PSoC4/CapSense.c **** *  the mode of component operations and resets all the sensors to an inactive state.
 131:Generated_Source\PSoC4/CapSense.c **** *
 132:Generated_Source\PSoC4/CapSense.c **** * Parameters:
 133:Generated_Source\PSoC4/CapSense.c **** *  None
 134:Generated_Source\PSoC4/CapSense.c **** *
 135:Generated_Source\PSoC4/CapSense.c **** * Return:
 136:Generated_Source\PSoC4/CapSense.c **** *  None
 137:Generated_Source\PSoC4/CapSense.c **** *
 138:Generated_Source\PSoC4/CapSense.c **** * Global Variables:
 139:Generated_Source\PSoC4/CapSense.c **** *  CapSense_immunityIndex - defines immunity level.
 140:Generated_Source\PSoC4/CapSense.c **** *
 141:Generated_Source\PSoC4/CapSense.c **** * Side Effects:
 142:Generated_Source\PSoC4/CapSense.c **** *  None
 143:Generated_Source\PSoC4/CapSense.c **** *
 144:Generated_Source\PSoC4/CapSense.c **** *******************************************************************************/
ARM GAS  C:\Users\ZURUSH~1\AppData\Local\Temp\ccIBvwAy.s 			page 4


 145:Generated_Source\PSoC4/CapSense.c **** void CapSense_Init(void)
 146:Generated_Source\PSoC4/CapSense.c **** {
 147:Generated_Source\PSoC4/CapSense.c ****     uint32 curSensor;
 148:Generated_Source\PSoC4/CapSense.c **** 
 149:Generated_Source\PSoC4/CapSense.c ****     #if(CapSense_IS_SHIELD_ENABLE)
 150:Generated_Source\PSoC4/CapSense.c **** 
 151:Generated_Source\PSoC4/CapSense.c ****         #if((CapSense_CSH_TANK_PREGARGE_OPTION == CapSense__CAPPRIOBUF) || (0u != CapSense_CSH_TANK
 152:Generated_Source\PSoC4/CapSense.c ****             uint32 newRegValue;
 153:Generated_Source\PSoC4/CapSense.c **** 
 154:Generated_Source\PSoC4/CapSense.c ****             newRegValue = CapSense_CTANK_CONNECTION_REG;
 155:Generated_Source\PSoC4/CapSense.c ****             newRegValue &= ~(CapSense_CSD_CTANK_CONNECTION_MASK);
 156:Generated_Source\PSoC4/CapSense.c ****             newRegValue |= CapSense_CSD_CTANK_TO_AMUXBUS_B;
 157:Generated_Source\PSoC4/CapSense.c ****             CapSense_CTANK_CONNECTION_REG = newRegValue;
 158:Generated_Source\PSoC4/CapSense.c **** 
 159:Generated_Source\PSoC4/CapSense.c ****             #if(CapSense_CSH_TANK_PREGARGE_OPTION == CapSense__CAPPRIOBUF)
 160:Generated_Source\PSoC4/CapSense.c ****                 newRegValue = CapSense_CTANK_PORT_PC_REG;
 161:Generated_Source\PSoC4/CapSense.c ****                 newRegValue &= ~(CapSense_CSD_CTANK_PC_MASK);
 162:Generated_Source\PSoC4/CapSense.c ****                 newRegValue |= CapSense_CTANK_PC_STRONG_MODE;
 163:Generated_Source\PSoC4/CapSense.c ****                 CapSense_CTANK_PORT_PC_REG = newRegValue;
 164:Generated_Source\PSoC4/CapSense.c **** 
 165:Generated_Source\PSoC4/CapSense.c ****                 newRegValue = CapSense_CTANK_PORT_DR_REG;
 166:Generated_Source\PSoC4/CapSense.c ****                 newRegValue &= ~(CapSense_CTANK_DR_MASK);
 167:Generated_Source\PSoC4/CapSense.c ****                 newRegValue |= CapSense_CTANK_DR_CONFIG;
 168:Generated_Source\PSoC4/CapSense.c ****                 CapSense_CTANK_PORT_DR_REG = newRegValue;
 169:Generated_Source\PSoC4/CapSense.c ****             #endif /* (CapSense_CSH_TANK_PREGARGE_OPTION == CapSense__CAPPRIOBUF) */
 170:Generated_Source\PSoC4/CapSense.c **** 
 171:Generated_Source\PSoC4/CapSense.c ****         #endif /* ((CapSense_CSH_TANK_PREGARGE_OPTION == CapSense__CAPPRIOBUF) || (CapSense_CSH_TAN
 172:Generated_Source\PSoC4/CapSense.c **** 
 173:Generated_Source\PSoC4/CapSense.c ****         CapSense_EnableShieldElectrode((uint32)CapSense_SHIELD_PIN_NUMBER, (uint32)CapSense_SHIELD_
 174:Generated_Source\PSoC4/CapSense.c **** 
 175:Generated_Source\PSoC4/CapSense.c ****     #endif /* (CapSense_IS_SHIELD_ENABLE) */
 176:Generated_Source\PSoC4/CapSense.c **** 
 177:Generated_Source\PSoC4/CapSense.c ****     for(curSensor = 0u; curSensor < CapSense_TOTAL_SENSOR_COUNT; curSensor++)
 178:Generated_Source\PSoC4/CapSense.c ****     {
 179:Generated_Source\PSoC4/CapSense.c ****         CapSense_SetUnscannedSensorState(curSensor, CapSense_CONNECT_INACTIVE_SNS);
 180:Generated_Source\PSoC4/CapSense.c ****     }
 181:Generated_Source\PSoC4/CapSense.c **** 
 182:Generated_Source\PSoC4/CapSense.c ****     CapSense_CsdHwBlockInit();
 183:Generated_Source\PSoC4/CapSense.c ****     CapSense_SetShieldDelay(CapSense_SHIELD_DELAY );
 184:Generated_Source\PSoC4/CapSense.c **** 
 185:Generated_Source\PSoC4/CapSense.c ****     /* Clear all sensors */
 186:Generated_Source\PSoC4/CapSense.c ****     CapSense_ClearSensors();
 187:Generated_Source\PSoC4/CapSense.c **** }
 188:Generated_Source\PSoC4/CapSense.c **** 
 189:Generated_Source\PSoC4/CapSense.c **** /*******************************************************************************
 190:Generated_Source\PSoC4/CapSense.c **** * Function Name: CapSense_CsdHwBlockInit
 191:Generated_Source\PSoC4/CapSense.c **** ********************************************************************************
 192:Generated_Source\PSoC4/CapSense.c **** *
 193:Generated_Source\PSoC4/CapSense.c **** * Summary:
 194:Generated_Source\PSoC4/CapSense.c **** *  Initialises the hardware parameters of the CSD block
 195:Generated_Source\PSoC4/CapSense.c **** *
 196:Generated_Source\PSoC4/CapSense.c **** * Parameters:
 197:Generated_Source\PSoC4/CapSense.c **** *  None
 198:Generated_Source\PSoC4/CapSense.c **** *
 199:Generated_Source\PSoC4/CapSense.c **** * Return:
 200:Generated_Source\PSoC4/CapSense.c **** *  None
 201:Generated_Source\PSoC4/CapSense.c **** *
ARM GAS  C:\Users\ZURUSH~1\AppData\Local\Temp\ccIBvwAy.s 			page 5


 202:Generated_Source\PSoC4/CapSense.c **** * Global Variables:
 203:Generated_Source\PSoC4/CapSense.c **** *  CapSense_csdTrim1 - Contains IDAC trim register value for Sourcing Mode.
 204:Generated_Source\PSoC4/CapSense.c **** *  CapSense_csdTrim2 - Contains IDAC trim register value for Sinking Mode.
 205:Generated_Source\PSoC4/CapSense.c **** *
 206:Generated_Source\PSoC4/CapSense.c **** * Side Effects:
 207:Generated_Source\PSoC4/CapSense.c **** *  None
 208:Generated_Source\PSoC4/CapSense.c **** *
 209:Generated_Source\PSoC4/CapSense.c **** *******************************************************************************/
 210:Generated_Source\PSoC4/CapSense.c **** void CapSense_CsdHwBlockInit(void)
 211:Generated_Source\PSoC4/CapSense.c **** {
  28              		.loc 1 211 0
  29              		.cfi_startproc
  30              		@ args = 0, pretend = 0, frame = 0
  31              		@ frame_needed = 0, uses_anonymous_args = 0
  32 0000 70B5     		push	{r4, r5, r6, lr}
  33              		.cfi_def_cfa_offset 16
  34              		.cfi_offset 4, -16
  35              		.cfi_offset 5, -12
  36              		.cfi_offset 6, -8
  37              		.cfi_offset 14, -4
 212:Generated_Source\PSoC4/CapSense.c ****     uint32 newRegValue;
 213:Generated_Source\PSoC4/CapSense.c **** 
 214:Generated_Source\PSoC4/CapSense.c ****         /* Set trim registers for CSD Mode */
 215:Generated_Source\PSoC4/CapSense.c ****     #if (CapSense_IDAC1_POLARITY == CapSense__IDAC_SINK)
 216:Generated_Source\PSoC4/CapSense.c ****         /* iDAC1 Sinking Mode */
 217:Generated_Source\PSoC4/CapSense.c ****         CapSense_csdTrim2 = (uint8)CapSense_CSD_TRIM2_REG;
 218:Generated_Source\PSoC4/CapSense.c ****         newRegValue = CapSense_csdTrim2;
 219:Generated_Source\PSoC4/CapSense.c ****         newRegValue &= CapSense_CSD_IDAC1_TRIM_MASK;
 220:Generated_Source\PSoC4/CapSense.c ****         newRegValue |= (uint32)((uint32)CapSense_SFLASH_CSD_TRIM2_REG & (uint32)CapSense_CSFLASH_TR
 221:Generated_Source\PSoC4/CapSense.c **** 
 222:Generated_Source\PSoC4/CapSense.c ****         #if (CapSense_IDAC_CNT == 2u)
 223:Generated_Source\PSoC4/CapSense.c ****             /* iDAC2 Sinking Mode */
 224:Generated_Source\PSoC4/CapSense.c ****             newRegValue &= CapSense_CSD_IDAC2_TRIM_MASK;
 225:Generated_Source\PSoC4/CapSense.c ****             newRegValue |= (uint32)((uint32)CapSense_SFLASH_CSD_TRIM2_REG & (uint32)CapSense_CSFLAS
 226:Generated_Source\PSoC4/CapSense.c ****         #endif /* (CapSense_IDAC_CNT == 2u) */
 227:Generated_Source\PSoC4/CapSense.c ****         CapSense_CSD_TRIM2_REG = newRegValue;
 228:Generated_Source\PSoC4/CapSense.c ****     #else
 229:Generated_Source\PSoC4/CapSense.c ****         /* iDAC1 Sourcing Mode */
 230:Generated_Source\PSoC4/CapSense.c ****         CapSense_csdTrim1 = (uint8)CapSense_CSD_TRIM1_REG;
  38              		.loc 1 230 0
  39 0002 1648     		ldr	r0, .L2
  40 0004 0368     		ldr	r3, [r0]
  41 0006 DBB2     		uxtb	r3, r3
  42 0008 154A     		ldr	r2, .L2+4
  43 000a 1370     		strb	r3, [r2]
  44              	.LVL0:
 231:Generated_Source\PSoC4/CapSense.c ****         newRegValue = CapSense_csdTrim1;
 232:Generated_Source\PSoC4/CapSense.c ****         newRegValue &= CapSense_CSD_IDAC1_TRIM_MASK;
  45              		.loc 1 232 0
  46 000c 0F24     		movs	r4, #15
  47 000e A343     		bics	r3, r4
  48              	.LVL1:
  49 0010 1900     		movs	r1, r3
  50              	.LVL2:
 233:Generated_Source\PSoC4/CapSense.c ****         newRegValue |= (uint32)((uint32)CapSense_SFLASH_CSD_TRIM1_REG & (uint32)CapSense_CSFLASH_TR
  51              		.loc 1 233 0
  52 0012 144D     		ldr	r5, .L2+8
ARM GAS  C:\Users\ZURUSH~1\AppData\Local\Temp\ccIBvwAy.s 			page 6


  53 0014 2B78     		ldrb	r3, [r5]
  54 0016 0F22     		movs	r2, #15
  55 0018 1340     		ands	r3, r2
  56 001a 0B43     		orrs	r3, r1
  57              	.LVL3:
 234:Generated_Source\PSoC4/CapSense.c ****         #if (CapSense_IDAC_CNT == 2u)
 235:Generated_Source\PSoC4/CapSense.c ****              /* iDAC2 Sourcing Mode */
 236:Generated_Source\PSoC4/CapSense.c ****             newRegValue &= CapSense_CSD_IDAC2_TRIM_MASK;
  58              		.loc 1 236 0
  59 001c E132     		adds	r2, r2, #225
  60 001e 9343     		bics	r3, r2
  61              	.LVL4:
 237:Generated_Source\PSoC4/CapSense.c ****             newRegValue |= (uint32)((uint32)CapSense_SFLASH_CSD_TRIM1_REG & (uint32)CapSense_CSFLAS
  62              		.loc 1 237 0
  63 0020 2A78     		ldrb	r2, [r5]
  64 0022 A243     		bics	r2, r4
  65 0024 1343     		orrs	r3, r2
  66              	.LVL5:
 238:Generated_Source\PSoC4/CapSense.c ****         #endif
 239:Generated_Source\PSoC4/CapSense.c ****         CapSense_CSD_TRIM1_REG = newRegValue;
  67              		.loc 1 239 0
  68 0026 0360     		str	r3, [r0]
 240:Generated_Source\PSoC4/CapSense.c ****     #endif /* (CapSense_IDAC1_POLARITY == CapSense__IDAC_SINK) */
 241:Generated_Source\PSoC4/CapSense.c **** 
 242:Generated_Source\PSoC4/CapSense.c ****     /* Configure CSD and IDAC */
 243:Generated_Source\PSoC4/CapSense.c ****     #if (CapSense_IDAC_CNT > 1u)
 244:Generated_Source\PSoC4/CapSense.c ****         CapSense_CSD_IDAC_REG = CapSense_DEFAULT_CSD_IDAC_CONFIG;
  69              		.loc 1 244 0
  70 0028 0F4A     		ldr	r2, .L2+12
  71 002a 104B     		ldr	r3, .L2+16
  72              	.LVL6:
  73 002c 1A60     		str	r2, [r3]
  74              	.LVL7:
 245:Generated_Source\PSoC4/CapSense.c ****         CapSense_CSD_CFG_REG = CapSense_DEFAULT_CSD_CONFIG;
  75              		.loc 1 245 0
  76 002e 104A     		ldr	r2, .L2+20
  77 0030 104B     		ldr	r3, .L2+24
  78 0032 1A60     		str	r2, [r3]
 246:Generated_Source\PSoC4/CapSense.c ****     #else
 247:Generated_Source\PSoC4/CapSense.c ****         CapSense_CSD_IDAC_REG &= ~(CapSense_CSD_IDAC1_MODE_MASK  | CapSense_CSD_IDAC1_DATA_MASK);
 248:Generated_Source\PSoC4/CapSense.c ****         CapSense_CSD_IDAC_REG |= CapSense_DEFAULT_CSD_IDAC_CONFIG;
 249:Generated_Source\PSoC4/CapSense.c **** 
 250:Generated_Source\PSoC4/CapSense.c ****         CapSense_CSD_CFG_REG &= ~(CapSense_CSD_CONFIG_MASK);
 251:Generated_Source\PSoC4/CapSense.c ****         CapSense_CSD_CFG_REG |= (CapSense_DEFAULT_CSD_CONFIG);
 252:Generated_Source\PSoC4/CapSense.c ****     #endif /* (CapSense_IDAC_CNT > 1u) */
 253:Generated_Source\PSoC4/CapSense.c **** 
 254:Generated_Source\PSoC4/CapSense.c **** 
 255:Generated_Source\PSoC4/CapSense.c ****     /* Connect Cmod to AMUX bus */
 256:Generated_Source\PSoC4/CapSense.c ****     newRegValue = CapSense_CMOD_CONNECTION_REG;
  79              		.loc 1 256 0
  80 0034 104A     		ldr	r2, .L2+28
  81 0036 1168     		ldr	r1, [r2]
  82              	.LVL8:
 257:Generated_Source\PSoC4/CapSense.c ****     newRegValue &= ~(CapSense_CSD_CMOD_CONNECTION_MASK);
  83              		.loc 1 257 0
  84 0038 104B     		ldr	r3, .L2+32
  85 003a 0B40     		ands	r3, r1
ARM GAS  C:\Users\ZURUSH~1\AppData\Local\Temp\ccIBvwAy.s 			page 7


  86              	.LVL9:
 258:Generated_Source\PSoC4/CapSense.c ****     newRegValue |= CapSense_CSD_CMOD_TO_AMUXBUS_A;
  87              		.loc 1 258 0
  88 003c C021     		movs	r1, #192
  89 003e C900     		lsls	r1, r1, #3
  90 0040 0B43     		orrs	r3, r1
  91              	.LVL10:
 259:Generated_Source\PSoC4/CapSense.c ****     CapSense_CMOD_CONNECTION_REG = newRegValue;
  92              		.loc 1 259 0
  93 0042 1360     		str	r3, [r2]
 260:Generated_Source\PSoC4/CapSense.c **** 
 261:Generated_Source\PSoC4/CapSense.c ****     /* Configure Dead Band PWM if it is enabled */
 262:Generated_Source\PSoC4/CapSense.c ****     #if(CapSense_CSD_4B_PWM_MODE != CapSense__PWM_OFF)
 263:Generated_Source\PSoC4/CapSense.c ****         CapSense_CSD_4B_PWM_REG = CapSense_DEFAULT_CSD_4B_PWM_CONFIG;
 264:Generated_Source\PSoC4/CapSense.c ****     #endif /* (CapSense_CSD_4B_PWM_MODE != CapSense__PWM_OFF) */
 265:Generated_Source\PSoC4/CapSense.c **** 
 266:Generated_Source\PSoC4/CapSense.c ****     /* Setup ISR */
 267:Generated_Source\PSoC4/CapSense.c ****     CyIntDisable(CapSense_ISR_NUMBER);
  94              		.loc 1 267 0
  95 0044 0F20     		movs	r0, #15
  96 0046 FFF7FEFF 		bl	CyIntDisable
  97              	.LVL11:
 268:Generated_Source\PSoC4/CapSense.c ****     #if !defined(CY_EXTERNAL_INTERRUPT_CONFIG)
 269:Generated_Source\PSoC4/CapSense.c ****         (void)CyIntSetVector(CapSense_ISR_NUMBER, &CapSense_ISR);
  98              		.loc 1 269 0
  99 004a 0D49     		ldr	r1, .L2+36
 100 004c 0F20     		movs	r0, #15
 101 004e FFF7FEFF 		bl	CyIntSetVector
 102              	.LVL12:
 270:Generated_Source\PSoC4/CapSense.c ****         CyIntSetPriority(CapSense_ISR_NUMBER, CapSense_ISR_PRIORITY);
 103              		.loc 1 270 0
 104 0052 0321     		movs	r1, #3
 105 0054 0F20     		movs	r0, #15
 106 0056 FFF7FEFF 		bl	CyIntSetPriority
 107              	.LVL13:
 271:Generated_Source\PSoC4/CapSense.c ****     #endif /* (CY_EXTERNAL_INTERRUPT_CONFIG) */
 272:Generated_Source\PSoC4/CapSense.c **** }
 108              		.loc 1 272 0
 109              		@ sp needed
 110 005a 70BD     		pop	{r4, r5, r6, pc}
 111              	.L3:
 112              		.align	2
 113              	.L2:
 114 005c 00FF0840 		.word	1074331392
 115 0060 00000000 		.word	CapSense_csdTrim1
 116 0064 62F1FF0F 		.word	268431714
 117 0068 00020001 		.word	16777728
 118 006c 08000840 		.word	1074266120
 119 0070 0008A001 		.word	27265024
 120 0074 04000840 		.word	1074266116
 121 0078 10000140 		.word	1073807376
 122 007c FFF0FFFF 		.word	-3841
 123 0080 00000000 		.word	CapSense_ISR
 124              		.cfi_endproc
 125              	.LFE33:
 126              		.size	CapSense_CsdHwBlockInit, .-CapSense_CsdHwBlockInit
 127              		.section	.text.CapSense_Enable,"ax",%progbits
ARM GAS  C:\Users\ZURUSH~1\AppData\Local\Temp\ccIBvwAy.s 			page 8


 128              		.align	2
 129              		.global	CapSense_Enable
 130              		.code	16
 131              		.thumb_func
 132              		.type	CapSense_Enable, %function
 133              	CapSense_Enable:
 134              	.LFB34:
 273:Generated_Source\PSoC4/CapSense.c **** 
 274:Generated_Source\PSoC4/CapSense.c **** 
 275:Generated_Source\PSoC4/CapSense.c **** /*******************************************************************************
 276:Generated_Source\PSoC4/CapSense.c **** * Function Name: CapSense_Enable
 277:Generated_Source\PSoC4/CapSense.c **** ********************************************************************************
 278:Generated_Source\PSoC4/CapSense.c **** *
 279:Generated_Source\PSoC4/CapSense.c **** * Summary:
 280:Generated_Source\PSoC4/CapSense.c **** *  Enables the CSD block and related resources to an active mode.
 281:Generated_Source\PSoC4/CapSense.c **** *
 282:Generated_Source\PSoC4/CapSense.c **** * Parameters:
 283:Generated_Source\PSoC4/CapSense.c **** *  None
 284:Generated_Source\PSoC4/CapSense.c **** *
 285:Generated_Source\PSoC4/CapSense.c **** * Return:
 286:Generated_Source\PSoC4/CapSense.c **** *  None
 287:Generated_Source\PSoC4/CapSense.c **** *
 288:Generated_Source\PSoC4/CapSense.c **** * Global Variables:
 289:Generated_Source\PSoC4/CapSense.c **** *  None.
 290:Generated_Source\PSoC4/CapSense.c **** *
 291:Generated_Source\PSoC4/CapSense.c **** * Side Effects:
 292:Generated_Source\PSoC4/CapSense.c **** *  None
 293:Generated_Source\PSoC4/CapSense.c **** *
 294:Generated_Source\PSoC4/CapSense.c **** *******************************************************************************/
 295:Generated_Source\PSoC4/CapSense.c **** void CapSense_Enable(void)
 296:Generated_Source\PSoC4/CapSense.c **** {
 135              		.loc 1 296 0
 136              		.cfi_startproc
 137              		@ args = 0, pretend = 0, frame = 0
 138              		@ frame_needed = 0, uses_anonymous_args = 0
 139 0000 10B5     		push	{r4, lr}
 140              		.cfi_def_cfa_offset 8
 141              		.cfi_offset 4, -8
 142              		.cfi_offset 14, -4
 297:Generated_Source\PSoC4/CapSense.c ****     uint32 newRegValue;
 298:Generated_Source\PSoC4/CapSense.c **** 
 299:Generated_Source\PSoC4/CapSense.c ****     /* Enable Clocks */
 300:Generated_Source\PSoC4/CapSense.c ****     CapSense_SenseClk_Stop();
 143              		.loc 1 300 0
 144 0002 FFF7FEFF 		bl	CapSense_SenseClk_Stop
 145              	.LVL14:
 301:Generated_Source\PSoC4/CapSense.c ****     CapSense_SampleClk_Stop();
 146              		.loc 1 301 0
 147 0006 FFF7FEFF 		bl	CapSense_SampleClk_Stop
 148              	.LVL15:
 302:Generated_Source\PSoC4/CapSense.c **** 
 303:Generated_Source\PSoC4/CapSense.c ****     CapSense_SampleClk_SetDividerValue((uint16)CapSense_INITIAL_CLK_DIVIDER);
 149              		.loc 1 303 0
 150 000a 0021     		movs	r1, #0
 151 000c 0020     		movs	r0, #0
 152 000e FFF7FEFF 		bl	CapSense_SampleClk_SetFractionalDividerRegister
 153              	.LVL16:
ARM GAS  C:\Users\ZURUSH~1\AppData\Local\Temp\ccIBvwAy.s 			page 9


 304:Generated_Source\PSoC4/CapSense.c ****     CapSense_SenseClk_SetDividerValue((uint16)CapSense_INITIAL_CLK_DIVIDER);
 154              		.loc 1 304 0
 155 0012 0021     		movs	r1, #0
 156 0014 0020     		movs	r0, #0
 157 0016 FFF7FEFF 		bl	CapSense_SenseClk_SetFractionalDividerRegister
 158              	.LVL17:
 305:Generated_Source\PSoC4/CapSense.c **** 
 306:Generated_Source\PSoC4/CapSense.c ****     #if (0u == CapSense_IS_M0S8PERI_BLOCK)
 307:Generated_Source\PSoC4/CapSense.c ****         CapSense_SenseClk_Start();
 159              		.loc 1 307 0
 160 001a FFF7FEFF 		bl	CapSense_SenseClk_Start
 161              	.LVL18:
 308:Generated_Source\PSoC4/CapSense.c ****         CapSense_SampleClk_Start();
 162              		.loc 1 308 0
 163 001e FFF7FEFF 		bl	CapSense_SampleClk_Start
 164              	.LVL19:
 309:Generated_Source\PSoC4/CapSense.c ****     #else
 310:Generated_Source\PSoC4/CapSense.c ****         CapSense_SampleClk_Start();
 311:Generated_Source\PSoC4/CapSense.c ****         CapSense_SenseClk_StartEx(CapSense_SampleClk__DIV_ID);
 312:Generated_Source\PSoC4/CapSense.c ****     #endif /* (0u == CapSense_IS_M0S8PERI_BLOCK) */
 313:Generated_Source\PSoC4/CapSense.c **** 
 314:Generated_Source\PSoC4/CapSense.c ****     /* Enable the CSD block */
 315:Generated_Source\PSoC4/CapSense.c ****     newRegValue = CapSense_CSD_CFG_REG;
 165              		.loc 1 315 0
 166 0022 044A     		ldr	r2, .L5
 167 0024 1368     		ldr	r3, [r2]
 168              	.LVL20:
 316:Generated_Source\PSoC4/CapSense.c ****     newRegValue |= (CapSense_CSD_CFG_ENABLE | CapSense_CSD_CFG_SENSE_COMP_EN
 169              		.loc 1 316 0
 170 0026 0449     		ldr	r1, .L5+4
 171 0028 0B43     		orrs	r3, r1
 172              	.LVL21:
 317:Generated_Source\PSoC4/CapSense.c ****                                                    | CapSense_CSD_CFG_SENSE_EN);
 318:Generated_Source\PSoC4/CapSense.c ****     CapSense_CSD_CFG_REG = newRegValue;
 173              		.loc 1 318 0
 174 002a 1360     		str	r3, [r2]
 319:Generated_Source\PSoC4/CapSense.c **** 
 320:Generated_Source\PSoC4/CapSense.c ****     /* Enable interrupt */
 321:Generated_Source\PSoC4/CapSense.c ****     CyIntEnable(CapSense_ISR_NUMBER);
 175              		.loc 1 321 0
 176 002c 0F20     		movs	r0, #15
 177 002e FFF7FEFF 		bl	CyIntEnable
 178              	.LVL22:
 322:Generated_Source\PSoC4/CapSense.c **** }
 179              		.loc 1 322 0
 180              		@ sp needed
 181 0032 10BD     		pop	{r4, pc}
 182              	.L6:
 183              		.align	2
 184              	.L5:
 185 0034 04000840 		.word	1074266116
 186 0038 00100880 		.word	-2146955264
 187              		.cfi_endproc
 188              	.LFE34:
 189              		.size	CapSense_Enable, .-CapSense_Enable
 190              		.section	.text.CapSense_Stop,"ax",%progbits
 191              		.align	2
ARM GAS  C:\Users\ZURUSH~1\AppData\Local\Temp\ccIBvwAy.s 			page 10


 192              		.global	CapSense_Stop
 193              		.code	16
 194              		.thumb_func
 195              		.type	CapSense_Stop, %function
 196              	CapSense_Stop:
 197              	.LFB36:
 323:Generated_Source\PSoC4/CapSense.c **** 
 324:Generated_Source\PSoC4/CapSense.c **** 
 325:Generated_Source\PSoC4/CapSense.c **** /*******************************************************************************
 326:Generated_Source\PSoC4/CapSense.c **** * Function Name: CapSense_Start
 327:Generated_Source\PSoC4/CapSense.c **** ********************************************************************************
 328:Generated_Source\PSoC4/CapSense.c **** *
 329:Generated_Source\PSoC4/CapSense.c **** * Summary:
 330:Generated_Source\PSoC4/CapSense.c **** *  This is the preferred method to begin the component operation. CapSense_Start()
 331:Generated_Source\PSoC4/CapSense.c **** *  calls the CapSense_Init() function, and then calls the CapSense_Enable()
 332:Generated_Source\PSoC4/CapSense.c **** *  function. Initializes the registers and starts the CSD method of the CapSense
 333:Generated_Source\PSoC4/CapSense.c **** *  component. Resets all the sensors to an inactive state. Enables interrupts for
 334:Generated_Source\PSoC4/CapSense.c **** *  sensors scanning. When the SmartSense tuning mode is selected, the tuning procedure
 335:Generated_Source\PSoC4/CapSense.c **** *  is applied for all the sensors. The CapSense_Start() routine must be called before
 336:Generated_Source\PSoC4/CapSense.c **** *  any other API routines.
 337:Generated_Source\PSoC4/CapSense.c **** *
 338:Generated_Source\PSoC4/CapSense.c **** * Parameters:
 339:Generated_Source\PSoC4/CapSense.c **** *  None
 340:Generated_Source\PSoC4/CapSense.c **** *
 341:Generated_Source\PSoC4/CapSense.c **** * Return:
 342:Generated_Source\PSoC4/CapSense.c **** *  None
 343:Generated_Source\PSoC4/CapSense.c **** *
 344:Generated_Source\PSoC4/CapSense.c **** * Global Variables:
 345:Generated_Source\PSoC4/CapSense.c **** *   CapSense_initVar - used to check the initial configuration,
 346:Generated_Source\PSoC4/CapSense.c **** *   modified on the first function call.
 347:Generated_Source\PSoC4/CapSense.c **** *  CapSense_lowLevelTuningDone - Used to notify the Tuner GUI that
 348:Generated_Source\PSoC4/CapSense.c **** *   tuning of the scanning parameters is done.
 349:Generated_Source\PSoC4/CapSense.c **** *
 350:Generated_Source\PSoC4/CapSense.c **** * Side Effects:
 351:Generated_Source\PSoC4/CapSense.c **** *  None
 352:Generated_Source\PSoC4/CapSense.c **** *
 353:Generated_Source\PSoC4/CapSense.c **** *******************************************************************************/
 354:Generated_Source\PSoC4/CapSense.c **** void CapSense_Start(void)
 355:Generated_Source\PSoC4/CapSense.c **** {
 356:Generated_Source\PSoC4/CapSense.c **** 
 357:Generated_Source\PSoC4/CapSense.c ****     static uint8 CapSense_initVar = 0u;
 358:Generated_Source\PSoC4/CapSense.c **** 
 359:Generated_Source\PSoC4/CapSense.c ****     #if((0u != CapSense_AUTOCALIBRATION_ENABLE) && (CapSense_TUNING_METHOD != CapSense__TUNING_AUTO
 360:Generated_Source\PSoC4/CapSense.c ****         uint32 curSensor;
 361:Generated_Source\PSoC4/CapSense.c ****         uint32 rawLevel;
 362:Generated_Source\PSoC4/CapSense.c ****         uint32 widget;
 363:Generated_Source\PSoC4/CapSense.c ****     #endif /* ((0u != CapSense_AUTOCALIBRATION_ENABLE) && (CapSense_TUNING_METHOD != CapSense__TUNI
 364:Generated_Source\PSoC4/CapSense.c **** 
 365:Generated_Source\PSoC4/CapSense.c ****     if (CapSense_initVar == 0u)
 366:Generated_Source\PSoC4/CapSense.c ****     {
 367:Generated_Source\PSoC4/CapSense.c ****         CapSense_Init();
 368:Generated_Source\PSoC4/CapSense.c ****         CapSense_initVar = 1u;
 369:Generated_Source\PSoC4/CapSense.c ****     }
 370:Generated_Source\PSoC4/CapSense.c ****     CapSense_Enable();
 371:Generated_Source\PSoC4/CapSense.c **** 
 372:Generated_Source\PSoC4/CapSense.c ****     /* AutoTunning start */
 373:Generated_Source\PSoC4/CapSense.c ****     #if(CapSense_TUNING_METHOD == CapSense__TUNING_AUTO)
ARM GAS  C:\Users\ZURUSH~1\AppData\Local\Temp\ccIBvwAy.s 			page 11


 374:Generated_Source\PSoC4/CapSense.c ****         #if(0u != CapSense_CSHL_API_GENERATE)
 375:Generated_Source\PSoC4/CapSense.c ****             CapSense_AutoTune();
 376:Generated_Source\PSoC4/CapSense.c ****             CapSense_lowLevelTuningDone = 1u;
 377:Generated_Source\PSoC4/CapSense.c ****         #endif /* (0u != CapSense_CSHL_API_GENERATE) */
 378:Generated_Source\PSoC4/CapSense.c ****     #else
 379:Generated_Source\PSoC4/CapSense.c ****         #if(0u != CapSense_AUTOCALIBRATION_ENABLE)
 380:Generated_Source\PSoC4/CapSense.c **** 
 381:Generated_Source\PSoC4/CapSense.c ****             #if(CapSense_IDAC_CNT > 1u)
 382:Generated_Source\PSoC4/CapSense.c ****                 CapSense_CSD_IDAC_REG &= ~(CapSense_CSD_IDAC2_MODE_MASK);
 383:Generated_Source\PSoC4/CapSense.c ****             #endif /* (CapSense_IDAC_CNT > 1u) */
 384:Generated_Source\PSoC4/CapSense.c **** 
 385:Generated_Source\PSoC4/CapSense.c ****             for(curSensor = 0u; curSensor < CapSense_TOTAL_SCANSLOT_COUNT; curSensor++)
 386:Generated_Source\PSoC4/CapSense.c ****             {
 387:Generated_Source\PSoC4/CapSense.c ****                 widget = CapSense_widgetNumber[curSensor];
 388:Generated_Source\PSoC4/CapSense.c ****                 rawLevel = CapSense_widgetResolution[widget] >> CapSense_RESOLUTION_OFFSET;
 389:Generated_Source\PSoC4/CapSense.c **** 
 390:Generated_Source\PSoC4/CapSense.c ****                 /* Calibration level should be equal to 85% from scanning resolution */
 391:Generated_Source\PSoC4/CapSense.c ****                 rawLevel = (rawLevel * 85u) / 100u;
 392:Generated_Source\PSoC4/CapSense.c **** 
 393:Generated_Source\PSoC4/CapSense.c ****                 CapSense_CalibrateSensor(curSensor, rawLevel, CapSense_modulationIDAC);
 394:Generated_Source\PSoC4/CapSense.c ****             }
 395:Generated_Source\PSoC4/CapSense.c **** 
 396:Generated_Source\PSoC4/CapSense.c ****             #if(0u != CapSense_TOTAL_CENTROIDS_COUNT)
 397:Generated_Source\PSoC4/CapSense.c ****                 CapSense_NormalizeWidgets(CapSense_END_OF_WIDGETS_INDEX, CapSense_modulationIDAC);
 398:Generated_Source\PSoC4/CapSense.c ****             #endif /* (0u != CapSense_TOTAL_CENTROIDS_COUNT)  */
 399:Generated_Source\PSoC4/CapSense.c **** 
 400:Generated_Source\PSoC4/CapSense.c ****             #if(CapSense_IDAC_CNT > 1u)
 401:Generated_Source\PSoC4/CapSense.c ****                 for(curSensor = 0u; curSensor < CapSense_TOTAL_SCANSLOT_COUNT; curSensor++)
 402:Generated_Source\PSoC4/CapSense.c ****                 {
 403:Generated_Source\PSoC4/CapSense.c ****                     CapSense_compensationIDAC[curSensor] = CapSense_modulationIDAC[curSensor] / 2u;
 404:Generated_Source\PSoC4/CapSense.c ****                     CapSense_modulationIDAC[curSensor] = (CapSense_modulationIDAC[curSensor] + 1u) 
 405:Generated_Source\PSoC4/CapSense.c ****                 }
 406:Generated_Source\PSoC4/CapSense.c ****                 CapSense_CSD_IDAC_REG |= CapSense_CSD_IDAC2_MODE_FIXED;
 407:Generated_Source\PSoC4/CapSense.c ****             #endif /* (CapSense_IDAC_CNT > 1u) */
 408:Generated_Source\PSoC4/CapSense.c **** 
 409:Generated_Source\PSoC4/CapSense.c ****         #endif /* (0u != CapSense_AUTOCALIBRATION_ENABLE) */
 410:Generated_Source\PSoC4/CapSense.c **** 
 411:Generated_Source\PSoC4/CapSense.c ****     #endif /* ((CapSense_TUNING_METHOD == CapSense__TUNING_AUTO) */
 412:Generated_Source\PSoC4/CapSense.c **** 
 413:Generated_Source\PSoC4/CapSense.c ****     /* Initialize Advanced Centroid */
 414:Generated_Source\PSoC4/CapSense.c ****     #if(CapSense_TOTAL_TRACKPAD_GESTURES_COUNT > 0u)
 415:Generated_Source\PSoC4/CapSense.c ****         CapSense_AdvancedCentroidInit();
 416:Generated_Source\PSoC4/CapSense.c ****     #endif /* (CapSense_TOTAL_TRACKPAD_GESTURES_COUNT > 0u) */
 417:Generated_Source\PSoC4/CapSense.c **** 
 418:Generated_Source\PSoC4/CapSense.c ****     /* Connect sense comparator input to AMUXA */
 419:Generated_Source\PSoC4/CapSense.c ****     CapSense_CSD_CFG_REG |= CapSense_CSD_CFG_SENSE_INSEL;
 420:Generated_Source\PSoC4/CapSense.c **** }
 421:Generated_Source\PSoC4/CapSense.c **** 
 422:Generated_Source\PSoC4/CapSense.c **** 
 423:Generated_Source\PSoC4/CapSense.c **** /*******************************************************************************
 424:Generated_Source\PSoC4/CapSense.c **** * Function Name: CapSense_Stop
 425:Generated_Source\PSoC4/CapSense.c **** ********************************************************************************
 426:Generated_Source\PSoC4/CapSense.c **** *
 427:Generated_Source\PSoC4/CapSense.c **** * Summary:
 428:Generated_Source\PSoC4/CapSense.c **** *  Stops the sensor scanning, disables component interrupts, and resets all the
 429:Generated_Source\PSoC4/CapSense.c **** *  sensors to an inactive state. Disables the Active mode power template bits for
 430:Generated_Source\PSoC4/CapSense.c **** *  the subcomponents used within CapSense.
ARM GAS  C:\Users\ZURUSH~1\AppData\Local\Temp\ccIBvwAy.s 			page 12


 431:Generated_Source\PSoC4/CapSense.c **** *
 432:Generated_Source\PSoC4/CapSense.c **** * Parameters:
 433:Generated_Source\PSoC4/CapSense.c **** *  None
 434:Generated_Source\PSoC4/CapSense.c **** *
 435:Generated_Source\PSoC4/CapSense.c **** * Return:
 436:Generated_Source\PSoC4/CapSense.c **** *  None
 437:Generated_Source\PSoC4/CapSense.c **** *
 438:Generated_Source\PSoC4/CapSense.c **** * Global Variables:
 439:Generated_Source\PSoC4/CapSense.c **** *  CapSense_csdTrim1 - Contains the IDAC trim register value for the Sourcing Mode.
 440:Generated_Source\PSoC4/CapSense.c **** *  CapSense_csdTrim2 - Contains the IDAC trim register value for vSinking Mode.
 441:Generated_Source\PSoC4/CapSense.c **** *
 442:Generated_Source\PSoC4/CapSense.c **** * Side Effects:
 443:Generated_Source\PSoC4/CapSense.c **** *  This function should be called after scans are completed.
 444:Generated_Source\PSoC4/CapSense.c **** *
 445:Generated_Source\PSoC4/CapSense.c **** *******************************************************************************/
 446:Generated_Source\PSoC4/CapSense.c **** void CapSense_Stop(void)
 447:Generated_Source\PSoC4/CapSense.c **** {
 198              		.loc 1 447 0
 199              		.cfi_startproc
 200              		@ args = 0, pretend = 0, frame = 0
 201              		@ frame_needed = 0, uses_anonymous_args = 0
 202 0000 10B5     		push	{r4, lr}
 203              		.cfi_def_cfa_offset 8
 204              		.cfi_offset 4, -8
 205              		.cfi_offset 14, -4
 448:Generated_Source\PSoC4/CapSense.c ****     /* Disable interrupt */
 449:Generated_Source\PSoC4/CapSense.c ****     CyIntDisable(CapSense_ISR_NUMBER);
 206              		.loc 1 449 0
 207 0002 0F20     		movs	r0, #15
 208 0004 FFF7FEFF 		bl	CyIntDisable
 209              	.LVL23:
 450:Generated_Source\PSoC4/CapSense.c **** 
 451:Generated_Source\PSoC4/CapSense.c ****     CapSense_CSD_CFG_REG &= ~(CapSense_CSD_CFG_SENSE_COMP_EN | CapSense_CSD_CFG_SENSE_EN);
 210              		.loc 1 451 0
 211 0008 064A     		ldr	r2, .L8
 212 000a 1168     		ldr	r1, [r2]
 213 000c 064B     		ldr	r3, .L8+4
 214 000e 0B40     		ands	r3, r1
 215 0010 1360     		str	r3, [r2]
 452:Generated_Source\PSoC4/CapSense.c **** 
 453:Generated_Source\PSoC4/CapSense.c ****     #if(CapSense_IDAC_CNT == 2u)
 454:Generated_Source\PSoC4/CapSense.c ****         CapSense_CSD_CFG_REG &= ~(CapSense_CSD_CFG_ENABLE);
 216              		.loc 1 454 0
 217 0012 1368     		ldr	r3, [r2]
 218 0014 5B00     		lsls	r3, r3, #1
 219 0016 5B08     		lsrs	r3, r3, #1
 220 0018 1360     		str	r3, [r2]
 455:Generated_Source\PSoC4/CapSense.c ****     #endif /* (CapSense_IDAC_CNT == 2u) */
 456:Generated_Source\PSoC4/CapSense.c **** 
 457:Generated_Source\PSoC4/CapSense.c ****     /* Disable the Clocks */
 458:Generated_Source\PSoC4/CapSense.c ****     CapSense_SenseClk_Stop();
 221              		.loc 1 458 0
 222 001a FFF7FEFF 		bl	CapSense_SenseClk_Stop
 223              	.LVL24:
 459:Generated_Source\PSoC4/CapSense.c ****     CapSense_SampleClk_Stop();
 224              		.loc 1 459 0
 225 001e FFF7FEFF 		bl	CapSense_SampleClk_Stop
ARM GAS  C:\Users\ZURUSH~1\AppData\Local\Temp\ccIBvwAy.s 			page 13


 226              	.LVL25:
 460:Generated_Source\PSoC4/CapSense.c **** }
 227              		.loc 1 460 0
 228              		@ sp needed
 229 0022 10BD     		pop	{r4, pc}
 230              	.L9:
 231              		.align	2
 232              	.L8:
 233 0024 04000840 		.word	1074266116
 234 0028 FFEFF7FF 		.word	-528385
 235              		.cfi_endproc
 236              	.LFE36:
 237              		.size	CapSense_Stop, .-CapSense_Stop
 238              		.section	.text.CapSense_IsBusy,"ax",%progbits
 239              		.align	2
 240              		.global	CapSense_IsBusy
 241              		.code	16
 242              		.thumb_func
 243              		.type	CapSense_IsBusy, %function
 244              	CapSense_IsBusy:
 245              	.LFB41:
 461:Generated_Source\PSoC4/CapSense.c **** 
 462:Generated_Source\PSoC4/CapSense.c **** 
 463:Generated_Source\PSoC4/CapSense.c **** /*******************************************************************************
 464:Generated_Source\PSoC4/CapSense.c **** * Function Name: CapSense_FindNextSensor
 465:Generated_Source\PSoC4/CapSense.c **** ********************************************************************************
 466:Generated_Source\PSoC4/CapSense.c **** *
 467:Generated_Source\PSoC4/CapSense.c **** * Summary:
 468:Generated_Source\PSoC4/CapSense.c **** *  Finds the next sensor to scan.
 469:Generated_Source\PSoC4/CapSense.c **** *
 470:Generated_Source\PSoC4/CapSense.c **** * Parameters:
 471:Generated_Source\PSoC4/CapSense.c **** *  snsIndex:  Current index of sensor.
 472:Generated_Source\PSoC4/CapSense.c **** *
 473:Generated_Source\PSoC4/CapSense.c **** * Return:
 474:Generated_Source\PSoC4/CapSense.c **** *  Returns the next sensor index to scan.
 475:Generated_Source\PSoC4/CapSense.c **** *
 476:Generated_Source\PSoC4/CapSense.c **** * Global Variables:
 477:Generated_Source\PSoC4/CapSense.c **** *  CapSense_sensorEnableMask[] - used to store bit masks of the enabled sensors.
 478:Generated_Source\PSoC4/CapSense.c **** *
 479:Generated_Source\PSoC4/CapSense.c **** * Side Effects:
 480:Generated_Source\PSoC4/CapSense.c **** *  This function affects the  current scanning and should not
 481:Generated_Source\PSoC4/CapSense.c **** *  be used outside the component.
 482:Generated_Source\PSoC4/CapSense.c **** *
 483:Generated_Source\PSoC4/CapSense.c **** *******************************************************************************/
 484:Generated_Source\PSoC4/CapSense.c **** uint8 CapSense_FindNextSensor(uint8 snsIndex)
 485:Generated_Source\PSoC4/CapSense.c **** {
 486:Generated_Source\PSoC4/CapSense.c ****     uint32 enableFlag;
 487:Generated_Source\PSoC4/CapSense.c **** 
 488:Generated_Source\PSoC4/CapSense.c ****     /* Check if sensor enabled */
 489:Generated_Source\PSoC4/CapSense.c ****     do
 490:Generated_Source\PSoC4/CapSense.c ****     {
 491:Generated_Source\PSoC4/CapSense.c ****         /* Proceed with next sensor */
 492:Generated_Source\PSoC4/CapSense.c ****         snsIndex++;
 493:Generated_Source\PSoC4/CapSense.c ****         if(snsIndex == CapSense_TOTAL_SENSOR_COUNT)
 494:Generated_Source\PSoC4/CapSense.c ****         {
 495:Generated_Source\PSoC4/CapSense.c ****             break;
 496:Generated_Source\PSoC4/CapSense.c ****         }
ARM GAS  C:\Users\ZURUSH~1\AppData\Local\Temp\ccIBvwAy.s 			page 14


 497:Generated_Source\PSoC4/CapSense.c ****         enableFlag = CapSense_GetBitValue(CapSense_sensorEnableMask, (uint32)snsIndex);
 498:Generated_Source\PSoC4/CapSense.c ****     }
 499:Generated_Source\PSoC4/CapSense.c ****     while(enableFlag == 0u);
 500:Generated_Source\PSoC4/CapSense.c **** 
 501:Generated_Source\PSoC4/CapSense.c ****     return ((uint8)snsIndex);
 502:Generated_Source\PSoC4/CapSense.c **** }
 503:Generated_Source\PSoC4/CapSense.c **** 
 504:Generated_Source\PSoC4/CapSense.c **** 
 505:Generated_Source\PSoC4/CapSense.c **** /*******************************************************************************
 506:Generated_Source\PSoC4/CapSense.c **** * Function Name: CapSense_ScanSensor
 507:Generated_Source\PSoC4/CapSense.c **** ********************************************************************************
 508:Generated_Source\PSoC4/CapSense.c **** *
 509:Generated_Source\PSoC4/CapSense.c **** * Summary:
 510:Generated_Source\PSoC4/CapSense.c **** *  Sets the scan settings and starts scanning a sensor. After scanning is complete,
 511:Generated_Source\PSoC4/CapSense.c **** *  the ISR copies the measured sensor raw data to the global raw sensor array.
 512:Generated_Source\PSoC4/CapSense.c **** *  Use of the ISR ensures this function is non-blocking.
 513:Generated_Source\PSoC4/CapSense.c **** *  Each sensor has a unique number within the sensor array.
 514:Generated_Source\PSoC4/CapSense.c **** *  This number is assigned by the CapSense customizer in sequence.
 515:Generated_Source\PSoC4/CapSense.c **** *
 516:Generated_Source\PSoC4/CapSense.c **** * Parameters:
 517:Generated_Source\PSoC4/CapSense.c **** *  sensor:  Sensor number.
 518:Generated_Source\PSoC4/CapSense.c **** *
 519:Generated_Source\PSoC4/CapSense.c **** * Return:
 520:Generated_Source\PSoC4/CapSense.c **** *  None
 521:Generated_Source\PSoC4/CapSense.c **** *
 522:Generated_Source\PSoC4/CapSense.c **** * Global Variables:
 523:Generated_Source\PSoC4/CapSense.c **** *  CapSense_csdStatusVar - used to provide the status and mode of the scanning process.
 524:Generated_Source\PSoC4/CapSense.c **** *  Sets the busy status(scan in progress) and mode of scan as single scan.
 525:Generated_Source\PSoC4/CapSense.c **** *  CapSense_sensorIndex - used to store a sensor scanning sensor number.
 526:Generated_Source\PSoC4/CapSense.c **** *  Sets to the provided sensor argument.
 527:Generated_Source\PSoC4/CapSense.c **** *
 528:Generated_Source\PSoC4/CapSense.c **** * Side Effects:
 529:Generated_Source\PSoC4/CapSense.c **** *  None
 530:Generated_Source\PSoC4/CapSense.c **** *
 531:Generated_Source\PSoC4/CapSense.c **** *******************************************************************************/
 532:Generated_Source\PSoC4/CapSense.c **** void CapSense_ScanSensor(uint32 sensor)
 533:Generated_Source\PSoC4/CapSense.c **** {
 534:Generated_Source\PSoC4/CapSense.c ****     /* Clears status/control variable and set sensorIndex */
 535:Generated_Source\PSoC4/CapSense.c ****     CapSense_csdStatusVar = 0u;
 536:Generated_Source\PSoC4/CapSense.c ****     CapSense_sensorIndex = (uint8)sensor;
 537:Generated_Source\PSoC4/CapSense.c **** 
 538:Generated_Source\PSoC4/CapSense.c ****     /* Start of sensor scan */
 539:Generated_Source\PSoC4/CapSense.c ****     CapSense_csdStatusVar = (CapSense_SW_STS_BUSY | CapSense_SW_CTRL_SINGLE_SCAN);
 540:Generated_Source\PSoC4/CapSense.c ****     CapSense_PreScan(sensor);
 541:Generated_Source\PSoC4/CapSense.c **** }
 542:Generated_Source\PSoC4/CapSense.c **** 
 543:Generated_Source\PSoC4/CapSense.c **** 
 544:Generated_Source\PSoC4/CapSense.c **** #if(0u != CapSense_CSHL_API_GENERATE)
 545:Generated_Source\PSoC4/CapSense.c **** /*******************************************************************************
 546:Generated_Source\PSoC4/CapSense.c **** * Function Name: CapSense_ScanWidget
 547:Generated_Source\PSoC4/CapSense.c **** ********************************************************************************
 548:Generated_Source\PSoC4/CapSense.c **** *
 549:Generated_Source\PSoC4/CapSense.c **** * Summary:
 550:Generated_Source\PSoC4/CapSense.c **** *  Sets the scan settings and starts scanning a widget.
 551:Generated_Source\PSoC4/CapSense.c **** *
 552:Generated_Source\PSoC4/CapSense.c **** * Parameters:
 553:Generated_Source\PSoC4/CapSense.c **** *  uint32 widget: Widget number.
ARM GAS  C:\Users\ZURUSH~1\AppData\Local\Temp\ccIBvwAy.s 			page 15


 554:Generated_Source\PSoC4/CapSense.c **** *
 555:Generated_Source\PSoC4/CapSense.c **** * Return:
 556:Generated_Source\PSoC4/CapSense.c **** *  None
 557:Generated_Source\PSoC4/CapSense.c **** *
 558:Generated_Source\PSoC4/CapSense.c **** * Global Variables:
 559:Generated_Source\PSoC4/CapSense.c **** *  CapSense_csdStatusVar - used to provide the status and mode of the scanning process.
 560:Generated_Source\PSoC4/CapSense.c **** *  Sets the busy status(scan in progress) and clears the single scan mode.
 561:Generated_Source\PSoC4/CapSense.c **** *  CapSense_sensorIndex - used to store a sensor scanning sensor number.
 562:Generated_Source\PSoC4/CapSense.c **** *  Sets to 0xFF and provided to function CapSense_FindNextSensor or
 563:Generated_Source\PSoC4/CapSense.c **** *  CapSense_sensorEnableMask[] - used to store bit masks of the enabled sensors.
 564:Generated_Source\PSoC4/CapSense.c **** *  CapSense_sensorEnableMaskBackup[] - used to backup bit masks of the enabled
 565:Generated_Source\PSoC4/CapSense.c **** *   sensors.
 566:Generated_Source\PSoC4/CapSense.c **** *
 567:Generated_Source\PSoC4/CapSense.c **** * Side Effects:
 568:Generated_Source\PSoC4/CapSense.c **** *  None
 569:Generated_Source\PSoC4/CapSense.c **** *
 570:Generated_Source\PSoC4/CapSense.c **** *******************************************************************************/
 571:Generated_Source\PSoC4/CapSense.c **** void CapSense_ScanWidget(uint32 widget)
 572:Generated_Source\PSoC4/CapSense.c **** {
 573:Generated_Source\PSoC4/CapSense.c ****     uint32 sensorsPerWidget;
 574:Generated_Source\PSoC4/CapSense.c ****     uint32 lastSensor;
 575:Generated_Source\PSoC4/CapSense.c ****     uint32 snsIndex;
 576:Generated_Source\PSoC4/CapSense.c **** 
 577:Generated_Source\PSoC4/CapSense.c ****     /* Get first sensor in widget */
 578:Generated_Source\PSoC4/CapSense.c ****     CapSense_sensorIndex = CapSense_rawDataIndex[widget];
 579:Generated_Source\PSoC4/CapSense.c **** 
 580:Generated_Source\PSoC4/CapSense.c ****     /* Get number of sensors in widget */
 581:Generated_Source\PSoC4/CapSense.c ****     sensorsPerWidget = CapSense_numberOfSensors[widget];
 582:Generated_Source\PSoC4/CapSense.c **** 
 583:Generated_Source\PSoC4/CapSense.c ****     /* Check if generic Sensor */
 584:Generated_Source\PSoC4/CapSense.c ****     if(sensorsPerWidget == 0u)
 585:Generated_Source\PSoC4/CapSense.c ****     {
 586:Generated_Source\PSoC4/CapSense.c ****         sensorsPerWidget = 1u;
 587:Generated_Source\PSoC4/CapSense.c ****     }
 588:Generated_Source\PSoC4/CapSense.c **** 
 589:Generated_Source\PSoC4/CapSense.c ****     /* Get last sensor in widget */
 590:Generated_Source\PSoC4/CapSense.c ****     lastSensor = (CapSense_rawDataIndex[widget] + sensorsPerWidget) - 1u;
 591:Generated_Source\PSoC4/CapSense.c **** 
 592:Generated_Source\PSoC4/CapSense.c ****     /* Backup sensorEnableMask array */
 593:Generated_Source\PSoC4/CapSense.c ****     for(snsIndex = 0u; snsIndex < CapSense_TOTAL_SENSOR_MASK; snsIndex++)
 594:Generated_Source\PSoC4/CapSense.c ****     {
 595:Generated_Source\PSoC4/CapSense.c ****         /* Backup sensorEnableMask array */
 596:Generated_Source\PSoC4/CapSense.c ****         CapSense_sensorEnableMaskBackup[snsIndex] = CapSense_sensorEnableMask[snsIndex];
 597:Generated_Source\PSoC4/CapSense.c ****     }
 598:Generated_Source\PSoC4/CapSense.c **** 
 599:Generated_Source\PSoC4/CapSense.c ****     /* Update sensorEnableMask to scan the sensors that belong to widget */
 600:Generated_Source\PSoC4/CapSense.c ****     for(snsIndex = 0u; snsIndex < CapSense_TOTAL_SENSOR_COUNT; snsIndex++)
 601:Generated_Source\PSoC4/CapSense.c ****     {
 602:Generated_Source\PSoC4/CapSense.c ****         /* Update sensorEnableMask array bits to scan the widget only */
 603:Generated_Source\PSoC4/CapSense.c ****         if((snsIndex >= CapSense_sensorIndex) && (snsIndex <= lastSensor))
 604:Generated_Source\PSoC4/CapSense.c ****         {
 605:Generated_Source\PSoC4/CapSense.c ****             /* Set sensor bit to scan */
 606:Generated_Source\PSoC4/CapSense.c ****             CapSense_SetBitValue(CapSense_sensorEnableMask, snsIndex, 1u);
 607:Generated_Source\PSoC4/CapSense.c ****         }
 608:Generated_Source\PSoC4/CapSense.c ****         else
 609:Generated_Source\PSoC4/CapSense.c ****         {
 610:Generated_Source\PSoC4/CapSense.c ****             /* Reset sensor bit to do not scan */
ARM GAS  C:\Users\ZURUSH~1\AppData\Local\Temp\ccIBvwAy.s 			page 16


 611:Generated_Source\PSoC4/CapSense.c ****             CapSense_SetBitValue(CapSense_sensorEnableMask, snsIndex, 0u);
 612:Generated_Source\PSoC4/CapSense.c ****         }
 613:Generated_Source\PSoC4/CapSense.c ****     }
 614:Generated_Source\PSoC4/CapSense.c **** 
 615:Generated_Source\PSoC4/CapSense.c ****     /* Check end of scan condition */
 616:Generated_Source\PSoC4/CapSense.c ****     if(CapSense_sensorIndex < CapSense_TOTAL_SENSOR_COUNT)
 617:Generated_Source\PSoC4/CapSense.c ****     {
 618:Generated_Source\PSoC4/CapSense.c ****         /* Set widget busy bit in status/control variable*/
 619:Generated_Source\PSoC4/CapSense.c ****         CapSense_csdStatusVar = (CapSense_SW_STS_BUSY | CapSense_SW_CTRL_WIDGET_SCAN);
 620:Generated_Source\PSoC4/CapSense.c ****         /* Scan first sensor of widget*/
 621:Generated_Source\PSoC4/CapSense.c ****         CapSense_PreScan((uint32)CapSense_sensorIndex);
 622:Generated_Source\PSoC4/CapSense.c ****     }
 623:Generated_Source\PSoC4/CapSense.c **** }
 624:Generated_Source\PSoC4/CapSense.c **** #endif /* (0u != CapSense_CSHL_API_GENERATE) */
 625:Generated_Source\PSoC4/CapSense.c **** 
 626:Generated_Source\PSoC4/CapSense.c **** 
 627:Generated_Source\PSoC4/CapSense.c **** /*******************************************************************************
 628:Generated_Source\PSoC4/CapSense.c **** * Function Name: CapSense_ScanEnableWidgets
 629:Generated_Source\PSoC4/CapSense.c **** ********************************************************************************
 630:Generated_Source\PSoC4/CapSense.c **** *
 631:Generated_Source\PSoC4/CapSense.c **** * Summary:
 632:Generated_Source\PSoC4/CapSense.c **** *  This is the preferred method to scan all of the enabled widgets.
 633:Generated_Source\PSoC4/CapSense.c **** *  The API starts scanning a sensor within the enabled widgets.
 634:Generated_Source\PSoC4/CapSense.c **** *  The ISR continues scanning the sensors until all the enabled widgets are scanned.
 635:Generated_Source\PSoC4/CapSense.c **** *  Use of the ISR ensures this function is non-blocking.
 636:Generated_Source\PSoC4/CapSense.c **** *  All the widgets are enabled by default except proximity widgets.
 637:Generated_Source\PSoC4/CapSense.c **** *  The proximity widgets must be manually enabled as their long scan time
 638:Generated_Source\PSoC4/CapSense.c **** *  is incompatible with a fast response required of other widget types.
 639:Generated_Source\PSoC4/CapSense.c **** *
 640:Generated_Source\PSoC4/CapSense.c **** * Parameters:
 641:Generated_Source\PSoC4/CapSense.c **** *  None
 642:Generated_Source\PSoC4/CapSense.c **** *
 643:Generated_Source\PSoC4/CapSense.c **** * Return:
 644:Generated_Source\PSoC4/CapSense.c **** *  None
 645:Generated_Source\PSoC4/CapSense.c **** *
 646:Generated_Source\PSoC4/CapSense.c **** * Global Variables:
 647:Generated_Source\PSoC4/CapSense.c **** *  CapSense_csdStatusVar - used to provide the status and mode of the scanning process.
 648:Generated_Source\PSoC4/CapSense.c **** *  Sets the busy status(scan in progress) and clears the single scan mode.
 649:Generated_Source\PSoC4/CapSense.c **** *  CapSense_sensorIndex - used to store a sensor scanning sensor number.
 650:Generated_Source\PSoC4/CapSense.c **** *  Sets to 0xFF and provided to function CapSense_FindNextSensor or
 651:Generated_Source\PSoC4/CapSense.c **** *
 652:Generated_Source\PSoC4/CapSense.c **** * Side Effects:
 653:Generated_Source\PSoC4/CapSense.c **** *  None
 654:Generated_Source\PSoC4/CapSense.c **** *
 655:Generated_Source\PSoC4/CapSense.c **** *******************************************************************************/
 656:Generated_Source\PSoC4/CapSense.c **** void CapSense_ScanEnabledWidgets(void)
 657:Generated_Source\PSoC4/CapSense.c **** {
 658:Generated_Source\PSoC4/CapSense.c ****     /* Clears status/control variable and set sensorIndex */
 659:Generated_Source\PSoC4/CapSense.c ****     CapSense_csdStatusVar = 0u;
 660:Generated_Source\PSoC4/CapSense.c ****     CapSense_sensorIndex = 0xFFu;
 661:Generated_Source\PSoC4/CapSense.c **** 
 662:Generated_Source\PSoC4/CapSense.c ****     /* Find next sensor */
 663:Generated_Source\PSoC4/CapSense.c ****     CapSense_sensorIndex = (uint8)CapSense_FindNextSensor(CapSense_sensorIndex);
 664:Generated_Source\PSoC4/CapSense.c **** 
 665:Generated_Source\PSoC4/CapSense.c ****     /* Check end of scan condition */
 666:Generated_Source\PSoC4/CapSense.c ****     if(CapSense_sensorIndex < CapSense_TOTAL_SENSOR_COUNT)
 667:Generated_Source\PSoC4/CapSense.c ****     {
ARM GAS  C:\Users\ZURUSH~1\AppData\Local\Temp\ccIBvwAy.s 			page 17


 668:Generated_Source\PSoC4/CapSense.c ****         CapSense_csdStatusVar |= CapSense_SW_STS_BUSY;
 669:Generated_Source\PSoC4/CapSense.c ****         CapSense_PreScan((uint32)CapSense_sensorIndex);
 670:Generated_Source\PSoC4/CapSense.c ****     }
 671:Generated_Source\PSoC4/CapSense.c **** }
 672:Generated_Source\PSoC4/CapSense.c **** 
 673:Generated_Source\PSoC4/CapSense.c **** 
 674:Generated_Source\PSoC4/CapSense.c **** /*******************************************************************************
 675:Generated_Source\PSoC4/CapSense.c **** * Function Name: CapSense_IsBusy
 676:Generated_Source\PSoC4/CapSense.c **** ********************************************************************************
 677:Generated_Source\PSoC4/CapSense.c **** *
 678:Generated_Source\PSoC4/CapSense.c **** * Summary:
 679:Generated_Source\PSoC4/CapSense.c **** *  Returns the state of the CapSense component. 1 means that scanning in
 680:Generated_Source\PSoC4/CapSense.c **** *  progress and 0 means that scanning is complete.
 681:Generated_Source\PSoC4/CapSense.c **** *
 682:Generated_Source\PSoC4/CapSense.c **** * Parameters:
 683:Generated_Source\PSoC4/CapSense.c **** *  None
 684:Generated_Source\PSoC4/CapSense.c **** *
 685:Generated_Source\PSoC4/CapSense.c **** * Return:
 686:Generated_Source\PSoC4/CapSense.c **** *  Returns the state of scanning. 1 - scanning in progress, 0 - scanning
 687:Generated_Source\PSoC4/CapSense.c **** *  completed.
 688:Generated_Source\PSoC4/CapSense.c **** *
 689:Generated_Source\PSoC4/CapSense.c **** * Global Variables:
 690:Generated_Source\PSoC4/CapSense.c **** *  CapSense_csdStatusVar - used to provide the status and mode of the scanning process.
 691:Generated_Source\PSoC4/CapSense.c **** *  Checks the busy status.
 692:Generated_Source\PSoC4/CapSense.c **** *
 693:Generated_Source\PSoC4/CapSense.c **** * Side Effects:
 694:Generated_Source\PSoC4/CapSense.c **** *  None
 695:Generated_Source\PSoC4/CapSense.c **** *
 696:Generated_Source\PSoC4/CapSense.c **** *******************************************************************************/
 697:Generated_Source\PSoC4/CapSense.c **** uint32 CapSense_IsBusy(void)
 698:Generated_Source\PSoC4/CapSense.c **** {
 246              		.loc 1 698 0
 247              		.cfi_startproc
 248              		@ args = 0, pretend = 0, frame = 0
 249              		@ frame_needed = 0, uses_anonymous_args = 0
 250              		@ link register save eliminated.
 699:Generated_Source\PSoC4/CapSense.c ****     return ((uint32)((0u != (CapSense_csdStatusVar & CapSense_SW_STS_BUSY)) ? 1u : 0u));
 251              		.loc 1 699 0
 252 0000 024B     		ldr	r3, .L11
 253 0002 1878     		ldrb	r0, [r3]
 254 0004 0123     		movs	r3, #1
 255 0006 1840     		ands	r0, r3
 700:Generated_Source\PSoC4/CapSense.c **** }
 256              		.loc 1 700 0
 257              		@ sp needed
 258 0008 7047     		bx	lr
 259              	.L12:
 260 000a C046     		.align	2
 261              	.L11:
 262 000c 00000000 		.word	.LANCHOR0
 263              		.cfi_endproc
 264              	.LFE41:
 265              		.size	CapSense_IsBusy, .-CapSense_IsBusy
 266              		.section	.text.CapSense_ReadSensorRaw,"ax",%progbits
 267              		.align	2
 268              		.global	CapSense_ReadSensorRaw
 269              		.code	16
ARM GAS  C:\Users\ZURUSH~1\AppData\Local\Temp\ccIBvwAy.s 			page 18


 270              		.thumb_func
 271              		.type	CapSense_ReadSensorRaw, %function
 272              	CapSense_ReadSensorRaw:
 273              	.LFB42:
 701:Generated_Source\PSoC4/CapSense.c **** 
 702:Generated_Source\PSoC4/CapSense.c **** 
 703:Generated_Source\PSoC4/CapSense.c **** /*******************************************************************************
 704:Generated_Source\PSoC4/CapSense.c **** * Function Name: CapSense_ReadSensorRaw
 705:Generated_Source\PSoC4/CapSense.c **** ********************************************************************************
 706:Generated_Source\PSoC4/CapSense.c **** *
 707:Generated_Source\PSoC4/CapSense.c **** * Summary:
 708:Generated_Source\PSoC4/CapSense.c **** *  Returns sensor raw data from the global CapSense_sensorRaw[ ] array.
 709:Generated_Source\PSoC4/CapSense.c **** *  Each scan sensor has a unique number within the sensor array.
 710:Generated_Source\PSoC4/CapSense.c **** *  This number is assigned by the CapSense customizer in sequence.
 711:Generated_Source\PSoC4/CapSense.c **** *  Raw data can be used to perform calculations outside of the CapSense
 712:Generated_Source\PSoC4/CapSense.c **** *  provided framework.
 713:Generated_Source\PSoC4/CapSense.c **** *
 714:Generated_Source\PSoC4/CapSense.c **** * Parameters:
 715:Generated_Source\PSoC4/CapSense.c **** *  sensor:  Sensor number.
 716:Generated_Source\PSoC4/CapSense.c **** *
 717:Generated_Source\PSoC4/CapSense.c **** * Return:
 718:Generated_Source\PSoC4/CapSense.c **** *  Returns the current raw data value for a defined sensor number.
 719:Generated_Source\PSoC4/CapSense.c **** *
 720:Generated_Source\PSoC4/CapSense.c **** * Global Variables:
 721:Generated_Source\PSoC4/CapSense.c **** *  CapSense_sensorRaw[] - used to store sensors raw data.
 722:Generated_Source\PSoC4/CapSense.c **** *
 723:Generated_Source\PSoC4/CapSense.c **** * Side Effects:
 724:Generated_Source\PSoC4/CapSense.c **** *  None
 725:Generated_Source\PSoC4/CapSense.c **** *
 726:Generated_Source\PSoC4/CapSense.c **** *******************************************************************************/
 727:Generated_Source\PSoC4/CapSense.c **** uint16 CapSense_ReadSensorRaw(uint32 sensor)
 728:Generated_Source\PSoC4/CapSense.c **** {
 274              		.loc 1 728 0
 275              		.cfi_startproc
 276              		@ args = 0, pretend = 0, frame = 0
 277              		@ frame_needed = 0, uses_anonymous_args = 0
 278              		@ link register save eliminated.
 279              	.LVL26:
 729:Generated_Source\PSoC4/CapSense.c ****     return CapSense_sensorRaw[sensor];
 280              		.loc 1 729 0
 281 0000 4000     		lsls	r0, r0, #1
 282              	.LVL27:
 283 0002 024B     		ldr	r3, .L14
 284 0004 1818     		adds	r0, r3, r0
 285 0006 8088     		ldrh	r0, [r0, #4]
 730:Generated_Source\PSoC4/CapSense.c **** }
 286              		.loc 1 730 0
 287              		@ sp needed
 288 0008 7047     		bx	lr
 289              	.L15:
 290 000a C046     		.align	2
 291              	.L14:
 292 000c 00000000 		.word	.LANCHOR0
 293              		.cfi_endproc
 294              	.LFE42:
 295              		.size	CapSense_ReadSensorRaw, .-CapSense_ReadSensorRaw
 296              		.section	.text.CapSense_WriteSensorRaw,"ax",%progbits
ARM GAS  C:\Users\ZURUSH~1\AppData\Local\Temp\ccIBvwAy.s 			page 19


 297              		.align	2
 298              		.global	CapSense_WriteSensorRaw
 299              		.code	16
 300              		.thumb_func
 301              		.type	CapSense_WriteSensorRaw, %function
 302              	CapSense_WriteSensorRaw:
 303              	.LFB43:
 731:Generated_Source\PSoC4/CapSense.c **** 
 732:Generated_Source\PSoC4/CapSense.c **** 
 733:Generated_Source\PSoC4/CapSense.c **** /*******************************************************************************
 734:Generated_Source\PSoC4/CapSense.c **** * Function Name: CapSense_WriteSensorRaw
 735:Generated_Source\PSoC4/CapSense.c **** ********************************************************************************
 736:Generated_Source\PSoC4/CapSense.c **** *
 737:Generated_Source\PSoC4/CapSense.c **** * Summary:
 738:Generated_Source\PSoC4/CapSense.c **** *  This API writes the raw count value passed as an argument to the sensor Raw count array.
 739:Generated_Source\PSoC4/CapSense.c **** *
 740:Generated_Source\PSoC4/CapSense.c **** * Parameters:
 741:Generated_Source\PSoC4/CapSense.c **** *  sensor:  Sensor number.
 742:Generated_Source\PSoC4/CapSense.c **** *  value: Raw count value.
 743:Generated_Source\PSoC4/CapSense.c **** *
 744:Generated_Source\PSoC4/CapSense.c **** * Global Variables:
 745:Generated_Source\PSoC4/CapSense.c **** *  CapSense_sensorRaw[] - used to store sensors raw data.
 746:Generated_Source\PSoC4/CapSense.c **** *
 747:Generated_Source\PSoC4/CapSense.c **** * Return:
 748:Generated_Source\PSoC4/CapSense.c **** *  None
 749:Generated_Source\PSoC4/CapSense.c **** *
 750:Generated_Source\PSoC4/CapSense.c **** * Side Effects:
 751:Generated_Source\PSoC4/CapSense.c **** *  None
 752:Generated_Source\PSoC4/CapSense.c **** *
 753:Generated_Source\PSoC4/CapSense.c **** *******************************************************************************/
 754:Generated_Source\PSoC4/CapSense.c **** void CapSense_WriteSensorRaw(uint32 sensor, uint16 value)
 755:Generated_Source\PSoC4/CapSense.c **** {
 304              		.loc 1 755 0
 305              		.cfi_startproc
 306              		@ args = 0, pretend = 0, frame = 0
 307              		@ frame_needed = 0, uses_anonymous_args = 0
 308              		@ link register save eliminated.
 309              	.LVL28:
 756:Generated_Source\PSoC4/CapSense.c ****     CapSense_sensorRaw[sensor] = value;
 310              		.loc 1 756 0
 311 0000 4000     		lsls	r0, r0, #1
 312              	.LVL29:
 313 0002 024B     		ldr	r3, .L17
 314 0004 1818     		adds	r0, r3, r0
 315 0006 8180     		strh	r1, [r0, #4]
 757:Generated_Source\PSoC4/CapSense.c **** }
 316              		.loc 1 757 0
 317              		@ sp needed
 318 0008 7047     		bx	lr
 319              	.L18:
 320 000a C046     		.align	2
 321              	.L17:
 322 000c 00000000 		.word	.LANCHOR0
 323              		.cfi_endproc
 324              	.LFE43:
 325              		.size	CapSense_WriteSensorRaw, .-CapSense_WriteSensorRaw
 326              		.section	.text.CapSense_SetScanResolution,"ax",%progbits
ARM GAS  C:\Users\ZURUSH~1\AppData\Local\Temp\ccIBvwAy.s 			page 20


 327              		.align	2
 328              		.global	CapSense_SetScanResolution
 329              		.code	16
 330              		.thumb_func
 331              		.type	CapSense_SetScanResolution, %function
 332              	CapSense_SetScanResolution:
 333              	.LFB44:
 758:Generated_Source\PSoC4/CapSense.c **** 
 759:Generated_Source\PSoC4/CapSense.c **** 
 760:Generated_Source\PSoC4/CapSense.c **** #if (CapSense_TUNING_METHOD != CapSense__TUNING_NONE)
 761:Generated_Source\PSoC4/CapSense.c ****     /*******************************************************************************
 762:Generated_Source\PSoC4/CapSense.c ****     * Function Name: CapSense_SetScanResolution
 763:Generated_Source\PSoC4/CapSense.c ****     ********************************************************************************
 764:Generated_Source\PSoC4/CapSense.c ****     *
 765:Generated_Source\PSoC4/CapSense.c ****     * Summary:
 766:Generated_Source\PSoC4/CapSense.c ****     *  Sets a value of the sensor scan resolution for a widget.
 767:Generated_Source\PSoC4/CapSense.c ****     *  The MIN resolution can be set 8-bit. The MAX Resolution can be set 16 bit.
 768:Generated_Source\PSoC4/CapSense.c ****     *  This function is not available for the tuning mode "None".
 769:Generated_Source\PSoC4/CapSense.c ****     *
 770:Generated_Source\PSoC4/CapSense.c ****     * Parameters:
 771:Generated_Source\PSoC4/CapSense.c ****     *  widget:     Widget index.
 772:Generated_Source\PSoC4/CapSense.c ****     *  resolution: Represents the resolution value. The following defines which are available in th
 773:Generated_Source\PSoC4/CapSense.c ****     *              CapSense.h file should be used:
 774:Generated_Source\PSoC4/CapSense.c ****     *              CapSense_RESOLUTION_6_BITS
 775:Generated_Source\PSoC4/CapSense.c ****     *              CapSense_RESOLUTION_7_BITS
 776:Generated_Source\PSoC4/CapSense.c ****     *              CapSense_RESOLUTION_8_BITS
 777:Generated_Source\PSoC4/CapSense.c ****     *              CapSense_RESOLUTION_9_BITS
 778:Generated_Source\PSoC4/CapSense.c ****     *              CapSense_RESOLUTION_10_BITS
 779:Generated_Source\PSoC4/CapSense.c ****     *              CapSense_RESOLUTION_11_BITS
 780:Generated_Source\PSoC4/CapSense.c ****     *              CapSense_RESOLUTION_12_BITS
 781:Generated_Source\PSoC4/CapSense.c ****     *              CapSense_RESOLUTION_13_BITS
 782:Generated_Source\PSoC4/CapSense.c ****     *              CapSense_RESOLUTION_14_BITS
 783:Generated_Source\PSoC4/CapSense.c ****     *              CapSense_RESOLUTION_15_BITS
 784:Generated_Source\PSoC4/CapSense.c ****     *              CapSense_RESOLUTION_16_BITS
 785:Generated_Source\PSoC4/CapSense.c ****     *
 786:Generated_Source\PSoC4/CapSense.c ****     * Return:
 787:Generated_Source\PSoC4/CapSense.c ****     *  None
 788:Generated_Source\PSoC4/CapSense.c ****     *
 789:Generated_Source\PSoC4/CapSense.c ****     * Global Variables:
 790:Generated_Source\PSoC4/CapSense.c ****     *  CapSense_widgetResolution[] - used to store scan resolution of each widget.
 791:Generated_Source\PSoC4/CapSense.c ****     *
 792:Generated_Source\PSoC4/CapSense.c ****     * Side Effects:
 793:Generated_Source\PSoC4/CapSense.c ****     *  None
 794:Generated_Source\PSoC4/CapSense.c ****     *
 795:Generated_Source\PSoC4/CapSense.c ****     *******************************************************************************/
 796:Generated_Source\PSoC4/CapSense.c ****     void CapSense_SetScanResolution(uint32 widget, uint32 resolution)
 797:Generated_Source\PSoC4/CapSense.c ****     {
 334              		.loc 1 797 0
 335              		.cfi_startproc
 336              		@ args = 0, pretend = 0, frame = 0
 337              		@ frame_needed = 0, uses_anonymous_args = 0
 338              		@ link register save eliminated.
 339              	.LVL30:
 798:Generated_Source\PSoC4/CapSense.c ****         CapSense_widgetResolution[widget] = resolution;
 340              		.loc 1 798 0
 341 0000 8000     		lsls	r0, r0, #2
 342              	.LVL31:
ARM GAS  C:\Users\ZURUSH~1\AppData\Local\Temp\ccIBvwAy.s 			page 21


 343 0002 014B     		ldr	r3, .L20
 344 0004 C150     		str	r1, [r0, r3]
 799:Generated_Source\PSoC4/CapSense.c ****     }
 345              		.loc 1 799 0
 346              		@ sp needed
 347 0006 7047     		bx	lr
 348              	.L21:
 349              		.align	2
 350              	.L20:
 351 0008 00000000 		.word	.LANCHOR1
 352              		.cfi_endproc
 353              	.LFE44:
 354              		.size	CapSense_SetScanResolution, .-CapSense_SetScanResolution
 355              		.section	.text.CapSense_GetScanResolution,"ax",%progbits
 356              		.align	2
 357              		.global	CapSense_GetScanResolution
 358              		.code	16
 359              		.thumb_func
 360              		.type	CapSense_GetScanResolution, %function
 361              	CapSense_GetScanResolution:
 362              	.LFB45:
 800:Generated_Source\PSoC4/CapSense.c **** #endif /* (CapSense_TUNING_METHOD != CapSense__TUNING_NONE) */
 801:Generated_Source\PSoC4/CapSense.c **** 
 802:Generated_Source\PSoC4/CapSense.c **** 
 803:Generated_Source\PSoC4/CapSense.c **** /*******************************************************************************
 804:Generated_Source\PSoC4/CapSense.c **** * Function Name: CapSense_GetScanResolution
 805:Generated_Source\PSoC4/CapSense.c **** ********************************************************************************
 806:Generated_Source\PSoC4/CapSense.c **** *
 807:Generated_Source\PSoC4/CapSense.c **** * Summary:
 808:Generated_Source\PSoC4/CapSense.c **** *  Returns the resolution value for the appropriate sensor.
 809:Generated_Source\PSoC4/CapSense.c **** *  This function is not available for tuning mode "None".
 810:Generated_Source\PSoC4/CapSense.c **** *
 811:Generated_Source\PSoC4/CapSense.c **** * Parameters:
 812:Generated_Source\PSoC4/CapSense.c **** *  widget:     Widget index.
 813:Generated_Source\PSoC4/CapSense.c **** *
 814:Generated_Source\PSoC4/CapSense.c **** * Return:
 815:Generated_Source\PSoC4/CapSense.c **** *  resolution: Returns the resolution value for the appropriate sensor.
 816:Generated_Source\PSoC4/CapSense.c **** *              The resolution values are defined in the CapSense.h file
 817:Generated_Source\PSoC4/CapSense.c **** *              The defines are encountered below:
 818:Generated_Source\PSoC4/CapSense.c **** *              CapSense_RESOLUTION_6_BITS
 819:Generated_Source\PSoC4/CapSense.c **** *              CapSense_RESOLUTION_7_BITS
 820:Generated_Source\PSoC4/CapSense.c **** *              CapSense_RESOLUTION_8_BITS
 821:Generated_Source\PSoC4/CapSense.c **** *              CapSense_RESOLUTION_9_BITS
 822:Generated_Source\PSoC4/CapSense.c **** *              CapSense_RESOLUTION_10_BITS
 823:Generated_Source\PSoC4/CapSense.c **** *              CapSense_RESOLUTION_11_BITS
 824:Generated_Source\PSoC4/CapSense.c **** *              CapSense_RESOLUTION_12_BITS
 825:Generated_Source\PSoC4/CapSense.c **** *              CapSense_RESOLUTION_13_BITS
 826:Generated_Source\PSoC4/CapSense.c **** *              CapSense_RESOLUTION_14_BITS
 827:Generated_Source\PSoC4/CapSense.c **** *              CapSense_RESOLUTION_15_BITS
 828:Generated_Source\PSoC4/CapSense.c **** *              CapSense_RESOLUTION_16_BITS
 829:Generated_Source\PSoC4/CapSense.c **** *
 830:Generated_Source\PSoC4/CapSense.c **** * Global Variables:
 831:Generated_Source\PSoC4/CapSense.c **** *  CapSense_widgetResolution[] - used to store scan resolution of every widget.
 832:Generated_Source\PSoC4/CapSense.c **** *
 833:Generated_Source\PSoC4/CapSense.c **** * Side Effects:
 834:Generated_Source\PSoC4/CapSense.c **** *  None
 835:Generated_Source\PSoC4/CapSense.c **** *
ARM GAS  C:\Users\ZURUSH~1\AppData\Local\Temp\ccIBvwAy.s 			page 22


 836:Generated_Source\PSoC4/CapSense.c **** *******************************************************************************/
 837:Generated_Source\PSoC4/CapSense.c **** uint32 CapSense_GetScanResolution(uint32 widget)
 838:Generated_Source\PSoC4/CapSense.c **** {
 363              		.loc 1 838 0
 364              		.cfi_startproc
 365              		@ args = 0, pretend = 0, frame = 0
 366              		@ frame_needed = 0, uses_anonymous_args = 0
 367              		@ link register save eliminated.
 368              	.LVL32:
 839:Generated_Source\PSoC4/CapSense.c ****     return(CapSense_widgetResolution[widget]);
 369              		.loc 1 839 0
 370 0000 8000     		lsls	r0, r0, #2
 371              	.LVL33:
 372 0002 014B     		ldr	r3, .L23
 373 0004 C058     		ldr	r0, [r0, r3]
 840:Generated_Source\PSoC4/CapSense.c **** }
 374              		.loc 1 840 0
 375              		@ sp needed
 376 0006 7047     		bx	lr
 377              	.L24:
 378              		.align	2
 379              	.L23:
 380 0008 00000000 		.word	.LANCHOR1
 381              		.cfi_endproc
 382              	.LFE45:
 383              		.size	CapSense_GetScanResolution, .-CapSense_GetScanResolution
 384              		.section	.text.CapSense_EnableSensor,"ax",%progbits
 385              		.align	2
 386              		.global	CapSense_EnableSensor
 387              		.code	16
 388              		.thumb_func
 389              		.type	CapSense_EnableSensor, %function
 390              	CapSense_EnableSensor:
 391              	.LFB47:
 841:Generated_Source\PSoC4/CapSense.c **** 
 842:Generated_Source\PSoC4/CapSense.c **** 
 843:Generated_Source\PSoC4/CapSense.c **** /*******************************************************************************
 844:Generated_Source\PSoC4/CapSense.c **** * Function Name: CapSense_ClearSensors
 845:Generated_Source\PSoC4/CapSense.c **** ********************************************************************************
 846:Generated_Source\PSoC4/CapSense.c **** *
 847:Generated_Source\PSoC4/CapSense.c **** * Summary:
 848:Generated_Source\PSoC4/CapSense.c **** *  Resets all the sensors to the non-sampling state by sequentially disconnecting
 849:Generated_Source\PSoC4/CapSense.c **** *  all the sensors from Analog MUX Bus and putting them to an inactive state.
 850:Generated_Source\PSoC4/CapSense.c **** *
 851:Generated_Source\PSoC4/CapSense.c **** * Parameters:
 852:Generated_Source\PSoC4/CapSense.c **** *  None
 853:Generated_Source\PSoC4/CapSense.c **** *
 854:Generated_Source\PSoC4/CapSense.c **** * Return:
 855:Generated_Source\PSoC4/CapSense.c **** *  None
 856:Generated_Source\PSoC4/CapSense.c **** *
 857:Generated_Source\PSoC4/CapSense.c **** * Global Variables:
 858:Generated_Source\PSoC4/CapSense.c **** *  None
 859:Generated_Source\PSoC4/CapSense.c **** *
 860:Generated_Source\PSoC4/CapSense.c **** * Side Effects:
 861:Generated_Source\PSoC4/CapSense.c **** *  None
 862:Generated_Source\PSoC4/CapSense.c **** *
 863:Generated_Source\PSoC4/CapSense.c **** *******************************************************************************/
ARM GAS  C:\Users\ZURUSH~1\AppData\Local\Temp\ccIBvwAy.s 			page 23


 864:Generated_Source\PSoC4/CapSense.c **** void CapSense_ClearSensors(void)
 865:Generated_Source\PSoC4/CapSense.c **** {
 866:Generated_Source\PSoC4/CapSense.c ****     uint32 snsIndex;
 867:Generated_Source\PSoC4/CapSense.c **** 
 868:Generated_Source\PSoC4/CapSense.c ****     for (snsIndex = 0u; snsIndex < CapSense_TOTAL_SENSOR_COUNT; snsIndex++)
 869:Generated_Source\PSoC4/CapSense.c ****     {
 870:Generated_Source\PSoC4/CapSense.c ****         CapSense_DisableScanSlot(snsIndex);
 871:Generated_Source\PSoC4/CapSense.c ****     }
 872:Generated_Source\PSoC4/CapSense.c **** }
 873:Generated_Source\PSoC4/CapSense.c **** 
 874:Generated_Source\PSoC4/CapSense.c **** 
 875:Generated_Source\PSoC4/CapSense.c **** #if (CapSense_IS_COMPLEX_SCANSLOTS)
 876:Generated_Source\PSoC4/CapSense.c ****     /*******************************************************************************
 877:Generated_Source\PSoC4/CapSense.c ****     * Function Name: CapSense_EnableScanSlot
 878:Generated_Source\PSoC4/CapSense.c ****     ********************************************************************************
 879:Generated_Source\PSoC4/CapSense.c ****     *
 880:Generated_Source\PSoC4/CapSense.c ****     * Summary:
 881:Generated_Source\PSoC4/CapSense.c ****     *  Configures the selected slot to measure during the next measurement
 882:Generated_Source\PSoC4/CapSense.c ****     *  cycle. The corresponding pin/pins are set to Analog High-Z mode and
 883:Generated_Source\PSoC4/CapSense.c ****     *  connected to the Analog Mux Bus. This also enables the comparator function.
 884:Generated_Source\PSoC4/CapSense.c ****     *
 885:Generated_Source\PSoC4/CapSense.c ****     * Parameters:
 886:Generated_Source\PSoC4/CapSense.c ****     *  slot:  Slot number.
 887:Generated_Source\PSoC4/CapSense.c ****     *
 888:Generated_Source\PSoC4/CapSense.c ****     * Return:
 889:Generated_Source\PSoC4/CapSense.c ****     *  None
 890:Generated_Source\PSoC4/CapSense.c ****     *
 891:Generated_Source\PSoC4/CapSense.c ****     * Global Constants:
 892:Generated_Source\PSoC4/CapSense.c ****     *  CapSense_portTable[]  - used to store the port number that pin
 893:Generated_Source\PSoC4/CapSense.c ****     *  belongs to for each sensor.
 894:Generated_Source\PSoC4/CapSense.c ****     *  CapSense_maskTable[]  - used to store the pin within the port for
 895:Generated_Source\PSoC4/CapSense.c ****     *  each sensor.
 896:Generated_Source\PSoC4/CapSense.c ****     *  CapSense_indexTable[] - used to store indexes of complex sensors.
 897:Generated_Source\PSoC4/CapSense.c ****     *  The offset and position in this array are stored in a port and mask table for
 898:Generated_Source\PSoC4/CapSense.c ****     *  complex sensors.
 899:Generated_Source\PSoC4/CapSense.c ****     *  Bit 7 (msb) is used to define the sensor type: single or complex.
 900:Generated_Source\PSoC4/CapSense.c ****     *
 901:Generated_Source\PSoC4/CapSense.c ****     * Side Effects:
 902:Generated_Source\PSoC4/CapSense.c ****     *  None
 903:Generated_Source\PSoC4/CapSense.c ****     *
 904:Generated_Source\PSoC4/CapSense.c ****     *******************************************************************************/
 905:Generated_Source\PSoC4/CapSense.c ****     void CapSense_EnableScanSlot(uint32 slot)
 906:Generated_Source\PSoC4/CapSense.c ****     {
 907:Generated_Source\PSoC4/CapSense.c ****         uint8 j;
 908:Generated_Source\PSoC4/CapSense.c ****         uint8 snsNumber;
 909:Generated_Source\PSoC4/CapSense.c ****         const uint8 *index;
 910:Generated_Source\PSoC4/CapSense.c ****         /* Read sensor type: single or complex */
 911:Generated_Source\PSoC4/CapSense.c ****         uint8 snsType = CapSense_portTable[slot];
 912:Generated_Source\PSoC4/CapSense.c **** 
 913:Generated_Source\PSoC4/CapSense.c ****         /* Check if sensor is complex */
 914:Generated_Source\PSoC4/CapSense.c ****         if ((snsType & CapSense_COMPLEX_SS_FLAG) == 0u)
 915:Generated_Source\PSoC4/CapSense.c ****         {
 916:Generated_Source\PSoC4/CapSense.c ****             /* Enable sensor (single) */
 917:Generated_Source\PSoC4/CapSense.c ****             CapSense_EnableSensor(slot);
 918:Generated_Source\PSoC4/CapSense.c ****         }
 919:Generated_Source\PSoC4/CapSense.c ****         else
 920:Generated_Source\PSoC4/CapSense.c ****         {
ARM GAS  C:\Users\ZURUSH~1\AppData\Local\Temp\ccIBvwAy.s 			page 24


 921:Generated_Source\PSoC4/CapSense.c ****             /* Enable complex sensor */
 922:Generated_Source\PSoC4/CapSense.c ****             snsType &= ~CapSense_COMPLEX_SS_FLAG;
 923:Generated_Source\PSoC4/CapSense.c ****             index = &CapSense_indexTable[snsType];
 924:Generated_Source\PSoC4/CapSense.c ****             snsNumber = CapSense_maskTable[slot];
 925:Generated_Source\PSoC4/CapSense.c **** 
 926:Generated_Source\PSoC4/CapSense.c ****             for (j = 0u; j < snsNumber; j++)
 927:Generated_Source\PSoC4/CapSense.c ****             {
 928:Generated_Source\PSoC4/CapSense.c ****                 CapSense_EnableSensor(index[j]);
 929:Generated_Source\PSoC4/CapSense.c ****             }
 930:Generated_Source\PSoC4/CapSense.c ****         }
 931:Generated_Source\PSoC4/CapSense.c ****     }
 932:Generated_Source\PSoC4/CapSense.c **** 
 933:Generated_Source\PSoC4/CapSense.c **** 
 934:Generated_Source\PSoC4/CapSense.c ****     /*******************************************************************************
 935:Generated_Source\PSoC4/CapSense.c ****     * Function Name: CapSense_DisableScanSlot
 936:Generated_Source\PSoC4/CapSense.c ****     ********************************************************************************
 937:Generated_Source\PSoC4/CapSense.c ****     *
 938:Generated_Source\PSoC4/CapSense.c ****     * Summary:
 939:Generated_Source\PSoC4/CapSense.c ****     *  Disables the selected slot. The corresponding pin/pins is/are disconnected
 940:Generated_Source\PSoC4/CapSense.c ****     *  from the Analog Mux Bus and connected to GND, High_Z or Shield electrode.
 941:Generated_Source\PSoC4/CapSense.c ****     *
 942:Generated_Source\PSoC4/CapSense.c ****     * Parameters:
 943:Generated_Source\PSoC4/CapSense.c ****     *  slot:  Slot number.
 944:Generated_Source\PSoC4/CapSense.c ****     *
 945:Generated_Source\PSoC4/CapSense.c ****     * Return:
 946:Generated_Source\PSoC4/CapSense.c ****     *  None
 947:Generated_Source\PSoC4/CapSense.c ****     *
 948:Generated_Source\PSoC4/CapSense.c ****     * Global Variables:
 949:Generated_Source\PSoC4/CapSense.c ****     *  CapSense_portTable[]  - used to store the port number that pin
 950:Generated_Source\PSoC4/CapSense.c ****     *  belongs to for each sensor.
 951:Generated_Source\PSoC4/CapSense.c ****     *  CapSense_maskTable[]  - used to store the pin within the port for
 952:Generated_Source\PSoC4/CapSense.c ****     *  each sensor.
 953:Generated_Source\PSoC4/CapSense.c ****     *  CapSense_indexTable[] - used to store indexes of complex sensors.
 954:Generated_Source\PSoC4/CapSense.c ****     *  The offset and position in this array are stored in a port and mask table for
 955:Generated_Source\PSoC4/CapSense.c ****     *  complex sensors.
 956:Generated_Source\PSoC4/CapSense.c ****     *  7bit(msb) is used to define the sensor type: single or complex.
 957:Generated_Source\PSoC4/CapSense.c ****     *
 958:Generated_Source\PSoC4/CapSense.c ****     * Side Effects:
 959:Generated_Source\PSoC4/CapSense.c ****     *  None
 960:Generated_Source\PSoC4/CapSense.c ****     *
 961:Generated_Source\PSoC4/CapSense.c ****     *******************************************************************************/
 962:Generated_Source\PSoC4/CapSense.c ****     void CapSense_DisableScanSlot(uint32 slot)
 963:Generated_Source\PSoC4/CapSense.c ****     {
 964:Generated_Source\PSoC4/CapSense.c ****         uint8 j;
 965:Generated_Source\PSoC4/CapSense.c ****         uint8 snsNumber;
 966:Generated_Source\PSoC4/CapSense.c ****         const uint8 *index;
 967:Generated_Source\PSoC4/CapSense.c **** 
 968:Generated_Source\PSoC4/CapSense.c ****         /* Read sensor type: single or complex */
 969:Generated_Source\PSoC4/CapSense.c ****         uint8 snsType = CapSense_portTable[slot];
 970:Generated_Source\PSoC4/CapSense.c **** 
 971:Generated_Source\PSoC4/CapSense.c ****         /* Check if sensor is complex */
 972:Generated_Source\PSoC4/CapSense.c ****         if ((snsType & CapSense_COMPLEX_SS_FLAG) == 0u)
 973:Generated_Source\PSoC4/CapSense.c ****         {
 974:Generated_Source\PSoC4/CapSense.c ****             /* Disable sensor (single) */
 975:Generated_Source\PSoC4/CapSense.c ****             CapSense_DisableSensor(slot);
 976:Generated_Source\PSoC4/CapSense.c ****         }
 977:Generated_Source\PSoC4/CapSense.c ****         else
ARM GAS  C:\Users\ZURUSH~1\AppData\Local\Temp\ccIBvwAy.s 			page 25


 978:Generated_Source\PSoC4/CapSense.c ****         {
 979:Generated_Source\PSoC4/CapSense.c ****             /* Disable complex sensor */
 980:Generated_Source\PSoC4/CapSense.c ****             snsType &= ~CapSense_COMPLEX_SS_FLAG;
 981:Generated_Source\PSoC4/CapSense.c ****             index = &CapSense_indexTable[snsType];
 982:Generated_Source\PSoC4/CapSense.c ****             snsNumber = CapSense_maskTable[slot];
 983:Generated_Source\PSoC4/CapSense.c **** 
 984:Generated_Source\PSoC4/CapSense.c ****             for (j=0; j < snsNumber; j++)
 985:Generated_Source\PSoC4/CapSense.c ****             {
 986:Generated_Source\PSoC4/CapSense.c ****                 CapSense_DisableSensor(index[j]);
 987:Generated_Source\PSoC4/CapSense.c ****             }
 988:Generated_Source\PSoC4/CapSense.c ****         }
 989:Generated_Source\PSoC4/CapSense.c ****     }
 990:Generated_Source\PSoC4/CapSense.c **** #endif  /* CapSense_IS_COMPLEX_SCANSLOTS */
 991:Generated_Source\PSoC4/CapSense.c **** 
 992:Generated_Source\PSoC4/CapSense.c **** 
 993:Generated_Source\PSoC4/CapSense.c **** /*******************************************************************************
 994:Generated_Source\PSoC4/CapSense.c **** * Function Name: CapSense_EnableSensor
 995:Generated_Source\PSoC4/CapSense.c **** ********************************************************************************
 996:Generated_Source\PSoC4/CapSense.c **** *
 997:Generated_Source\PSoC4/CapSense.c **** * Summary:
 998:Generated_Source\PSoC4/CapSense.c **** *  Configures the selected sensor to measure during the next measurement cycle.
 999:Generated_Source\PSoC4/CapSense.c **** *  The corresponding pins are set to Analog High-Z mode and connected to the
1000:Generated_Source\PSoC4/CapSense.c **** *  Analog Mux Bus. This also enables the comparator function.
1001:Generated_Source\PSoC4/CapSense.c **** *
1002:Generated_Source\PSoC4/CapSense.c **** * Parameters:
1003:Generated_Source\PSoC4/CapSense.c **** *  sensor:  Sensor number.
1004:Generated_Source\PSoC4/CapSense.c **** *
1005:Generated_Source\PSoC4/CapSense.c **** * Return:
1006:Generated_Source\PSoC4/CapSense.c **** *  None
1007:Generated_Source\PSoC4/CapSense.c **** *
1008:Generated_Source\PSoC4/CapSense.c **** * Global Variables:
1009:Generated_Source\PSoC4/CapSense.c **** *  CapSense_portTable[] - used to store the port number that pin
1010:Generated_Source\PSoC4/CapSense.c **** *  belongs to for each sensor.
1011:Generated_Source\PSoC4/CapSense.c **** *  CapSense_pinShiftTbl[] - used to store position of pin that
1012:Generated_Source\PSoC4/CapSense.c **** *  configured as sensor in port.
1013:Generated_Source\PSoC4/CapSense.c **** *  CapSense_prtSelTbl[] - Contains pointers to the HSIOM
1014:Generated_Source\PSoC4/CapSense.c **** *  registers for each port.
1015:Generated_Source\PSoC4/CapSense.c **** *  CapSense_PrtCfgTb[] - Contains pointers to the port config
1016:Generated_Source\PSoC4/CapSense.c **** *  registers for each port.
1017:Generated_Source\PSoC4/CapSense.c **** *
1018:Generated_Source\PSoC4/CapSense.c **** * Side Effects:
1019:Generated_Source\PSoC4/CapSense.c **** *  None
1020:Generated_Source\PSoC4/CapSense.c **** *
1021:Generated_Source\PSoC4/CapSense.c **** *******************************************************************************/
1022:Generated_Source\PSoC4/CapSense.c **** void CapSense_EnableSensor(uint32 sensor)
1023:Generated_Source\PSoC4/CapSense.c **** {
 392              		.loc 1 1023 0
 393              		.cfi_startproc
 394              		@ args = 0, pretend = 0, frame = 0
 395              		@ frame_needed = 0, uses_anonymous_args = 0
 396              	.LVL34:
 397 0000 70B5     		push	{r4, r5, r6, lr}
 398              		.cfi_def_cfa_offset 16
 399              		.cfi_offset 4, -16
 400              		.cfi_offset 5, -12
 401              		.cfi_offset 6, -8
 402              		.cfi_offset 14, -4
ARM GAS  C:\Users\ZURUSH~1\AppData\Local\Temp\ccIBvwAy.s 			page 26


 403              	.LVL35:
1024:Generated_Source\PSoC4/CapSense.c ****     uint8  pinModeShift;
1025:Generated_Source\PSoC4/CapSense.c ****     uint8  pinHSIOMShift;
1026:Generated_Source\PSoC4/CapSense.c ****     uint8 interruptState;
1027:Generated_Source\PSoC4/CapSense.c ****     uint32 newRegisterValue;
1028:Generated_Source\PSoC4/CapSense.c ****     uint32 port;
1029:Generated_Source\PSoC4/CapSense.c **** 
1030:Generated_Source\PSoC4/CapSense.c ****     port = (uint32) CapSense_portTable[sensor];
1031:Generated_Source\PSoC4/CapSense.c ****     pinModeShift = CapSense_pinShiftTbl[sensor]  * CapSense_PC_PIN_CFG_SIZE;
1032:Generated_Source\PSoC4/CapSense.c ****     pinHSIOMShift = CapSense_pinShiftTbl[sensor] * CapSense_HSIOM_PIN_CFG_SIZE;
1033:Generated_Source\PSoC4/CapSense.c **** 
1034:Generated_Source\PSoC4/CapSense.c ****     interruptState = CyEnterCriticalSection();
 404              		.loc 1 1034 0
 405 0002 FFF7FEFF 		bl	CyEnterCriticalSection
 406              	.LVL36:
1035:Generated_Source\PSoC4/CapSense.c **** 
1036:Generated_Source\PSoC4/CapSense.c ****     newRegisterValue = *CapSense_prtSelTbl[port];
 407              		.loc 1 1036 0
 408 0006 0749     		ldr	r1, .L26
 409 0008 0B68     		ldr	r3, [r1]
 410              	.LVL37:
1037:Generated_Source\PSoC4/CapSense.c ****     newRegisterValue &= ~(CapSense_CSD_HSIOM_MASK << pinHSIOMShift);
 411              		.loc 1 1037 0
 412 000a F022     		movs	r2, #240
 413 000c 9343     		bics	r3, r2
 414              	.LVL38:
1038:Generated_Source\PSoC4/CapSense.c ****     newRegisterValue |= (uint32)((uint32)CapSense_CSD_SENSE_PORT_MODE << pinHSIOMShift);
 415              		.loc 1 1038 0
 416 000e B03A     		subs	r2, r2, #176
 417 0010 1343     		orrs	r3, r2
 418              	.LVL39:
1039:Generated_Source\PSoC4/CapSense.c **** 
1040:Generated_Source\PSoC4/CapSense.c ****     *CapSense_prtCfgTbl[port] &= (uint32)~((uint32)CapSense_CSD_PIN_MODE_MASK << pinModeShift);
 419              		.loc 1 1040 0
 420 0012 054C     		ldr	r4, .L26+4
 421 0014 2268     		ldr	r2, [r4]
 422 0016 3825     		movs	r5, #56
 423 0018 AA43     		bics	r2, r5
 424 001a 2260     		str	r2, [r4]
1041:Generated_Source\PSoC4/CapSense.c ****     *CapSense_prtSelTbl[port] = newRegisterValue;
 425              		.loc 1 1041 0
 426 001c 0B60     		str	r3, [r1]
1042:Generated_Source\PSoC4/CapSense.c **** 
1043:Generated_Source\PSoC4/CapSense.c ****     CyExitCriticalSection(interruptState);
 427              		.loc 1 1043 0
 428 001e FFF7FEFF 		bl	CyExitCriticalSection
 429              	.LVL40:
1044:Generated_Source\PSoC4/CapSense.c **** }
 430              		.loc 1 1044 0
 431              		@ sp needed
 432 0022 70BD     		pop	{r4, r5, r6, pc}
 433              	.L27:
 434              		.align	2
 435              	.L26:
 436 0024 04000140 		.word	1073807364
 437 0028 08010440 		.word	1074004232
 438              		.cfi_endproc
ARM GAS  C:\Users\ZURUSH~1\AppData\Local\Temp\ccIBvwAy.s 			page 27


 439              	.LFE47:
 440              		.size	CapSense_EnableSensor, .-CapSense_EnableSensor
 441              		.section	.text.CapSense_DisableSensor,"ax",%progbits
 442              		.align	2
 443              		.global	CapSense_DisableSensor
 444              		.code	16
 445              		.thumb_func
 446              		.type	CapSense_DisableSensor, %function
 447              	CapSense_DisableSensor:
 448              	.LFB48:
1045:Generated_Source\PSoC4/CapSense.c **** 
1046:Generated_Source\PSoC4/CapSense.c **** 
1047:Generated_Source\PSoC4/CapSense.c **** /*******************************************************************************
1048:Generated_Source\PSoC4/CapSense.c **** * Function Name: CapSense_DisableSensor
1049:Generated_Source\PSoC4/CapSense.c **** ********************************************************************************
1050:Generated_Source\PSoC4/CapSense.c **** *
1051:Generated_Source\PSoC4/CapSense.c **** * Summary:
1052:Generated_Source\PSoC4/CapSense.c **** *  Disables the selected sensor. The corresponding pin is disconnected from the
1053:Generated_Source\PSoC4/CapSense.c **** *  Analog Mux Bus and connected to GND, High_Z or Shield electrode.
1054:Generated_Source\PSoC4/CapSense.c **** *
1055:Generated_Source\PSoC4/CapSense.c **** * Parameters:
1056:Generated_Source\PSoC4/CapSense.c **** *  sensor:  Sensor number
1057:Generated_Source\PSoC4/CapSense.c **** *
1058:Generated_Source\PSoC4/CapSense.c **** * Return:
1059:Generated_Source\PSoC4/CapSense.c **** *  None
1060:Generated_Source\PSoC4/CapSense.c **** *
1061:Generated_Source\PSoC4/CapSense.c **** * Global Variables:
1062:Generated_Source\PSoC4/CapSense.c **** *  CapSense_portTable[] - used to store the port number that pin
1063:Generated_Source\PSoC4/CapSense.c **** *  belongs to for each sensor.
1064:Generated_Source\PSoC4/CapSense.c **** *  CapSense_pinShiftTbl[] - used to store position of pin that
1065:Generated_Source\PSoC4/CapSense.c **** *  configured as a sensor in the port.
1066:Generated_Source\PSoC4/CapSense.c **** *  CapSense_prtSelTbl[] - Contains pointers to the HSIOM
1067:Generated_Source\PSoC4/CapSense.c **** *  registers for each port.
1068:Generated_Source\PSoC4/CapSense.c **** *  CapSense_PrtCfgTb[] - Contains pointers to the port config
1069:Generated_Source\PSoC4/CapSense.c **** *  registers for each port.
1070:Generated_Source\PSoC4/CapSense.c **** *
1071:Generated_Source\PSoC4/CapSense.c **** * Side Effects:
1072:Generated_Source\PSoC4/CapSense.c **** *  None
1073:Generated_Source\PSoC4/CapSense.c **** *
1074:Generated_Source\PSoC4/CapSense.c **** *******************************************************************************/
1075:Generated_Source\PSoC4/CapSense.c **** void CapSense_DisableSensor(uint32 sensor)
1076:Generated_Source\PSoC4/CapSense.c **** {
 449              		.loc 1 1076 0
 450              		.cfi_startproc
 451              		@ args = 0, pretend = 0, frame = 0
 452              		@ frame_needed = 0, uses_anonymous_args = 0
 453              	.LVL41:
 454 0000 10B5     		push	{r4, lr}
 455              		.cfi_def_cfa_offset 8
 456              		.cfi_offset 4, -8
 457              		.cfi_offset 14, -4
 458              	.LVL42:
1077:Generated_Source\PSoC4/CapSense.c ****     uint8 interruptState;
1078:Generated_Source\PSoC4/CapSense.c ****     uint32 newRegisterValue;
1079:Generated_Source\PSoC4/CapSense.c **** 
1080:Generated_Source\PSoC4/CapSense.c ****     uint32 port = (uint32) CapSense_portTable[sensor];
1081:Generated_Source\PSoC4/CapSense.c ****     uint8  pinHSIOMShift = CapSense_pinShiftTbl[sensor] * CapSense_HSIOM_PIN_CFG_SIZE;
ARM GAS  C:\Users\ZURUSH~1\AppData\Local\Temp\ccIBvwAy.s 			page 28


1082:Generated_Source\PSoC4/CapSense.c ****     uint8  pinModeShift = CapSense_pinShiftTbl[sensor]  * CapSense_PC_PIN_CFG_SIZE;
1083:Generated_Source\PSoC4/CapSense.c **** 
1084:Generated_Source\PSoC4/CapSense.c ****     uint32 inactiveConnect = CapSense_SNS_HIZANALOG_CONNECT;
1085:Generated_Source\PSoC4/CapSense.c ****     uint32 sensorState = CapSense_unscannedSnsDriveMode[sensor];
 459              		.loc 1 1085 0
 460 0002 104B     		ldr	r3, .L33
 461 0004 1A5C     		ldrb	r2, [r3, r0]
 462              	.LVL43:
1086:Generated_Source\PSoC4/CapSense.c **** 
1087:Generated_Source\PSoC4/CapSense.c ****     *CapSense_prtSelTbl[port] &= ~(CapSense_CSD_HSIOM_MASK << pinHSIOMShift);
 463              		.loc 1 1087 0
 464 0006 1049     		ldr	r1, .L33+4
 465 0008 0B68     		ldr	r3, [r1]
 466 000a F020     		movs	r0, #240
 467              	.LVL44:
 468 000c 8343     		bics	r3, r0
 469 000e 0B60     		str	r3, [r1]
1088:Generated_Source\PSoC4/CapSense.c **** 
1089:Generated_Source\PSoC4/CapSense.c ****     #if(CapSense_IS_SHIELD_ENABLE != 0)
1090:Generated_Source\PSoC4/CapSense.c ****     if(sensorState != (uint32)CapSense__SHIELD)
1091:Generated_Source\PSoC4/CapSense.c ****     {
1092:Generated_Source\PSoC4/CapSense.c ****     #else
1093:Generated_Source\PSoC4/CapSense.c ****         /* Connected to Ground if shield is disabled */
1094:Generated_Source\PSoC4/CapSense.c ****         if(sensorState == (uint32)CapSense__SHIELD)
 470              		.loc 1 1094 0
 471 0010 022A     		cmp	r2, #2
 472 0012 00D1     		bne	.L29
1095:Generated_Source\PSoC4/CapSense.c ****         {
1096:Generated_Source\PSoC4/CapSense.c ****             sensorState = (uint32)CapSense__GROUND;
 473              		.loc 1 1096 0
 474 0014 0022     		movs	r2, #0
 475              	.LVL45:
 476              	.L29:
1097:Generated_Source\PSoC4/CapSense.c ****         }
1098:Generated_Source\PSoC4/CapSense.c ****     #endif /* (CapSense_IS_SHIELD_ENABLE) */
1099:Generated_Source\PSoC4/CapSense.c ****         if(sensorState != (uint32)CapSense__HIZ_ANALOG)
 477              		.loc 1 1099 0
 478 0016 012A     		cmp	r2, #1
 479 0018 01D1     		bne	.L32
1084:Generated_Source\PSoC4/CapSense.c ****     uint32 sensorState = CapSense_unscannedSnsDriveMode[sensor];
 480              		.loc 1 1084 0
 481 001a 0024     		movs	r4, #0
 482 001c 00E0     		b	.L30
 483              	.L32:
1100:Generated_Source\PSoC4/CapSense.c ****         {
1101:Generated_Source\PSoC4/CapSense.c ****             /* Connected to Ground */
1102:Generated_Source\PSoC4/CapSense.c ****             inactiveConnect = (uint32)CapSense_SNS_GROUND_CONNECT;
 484              		.loc 1 1102 0
 485 001e 0624     		movs	r4, #6
 486              	.L30:
 487              	.LVL46:
1103:Generated_Source\PSoC4/CapSense.c ****         }
1104:Generated_Source\PSoC4/CapSense.c **** 
1105:Generated_Source\PSoC4/CapSense.c ****         interruptState = CyEnterCriticalSection();
 488              		.loc 1 1105 0
 489 0020 FFF7FEFF 		bl	CyEnterCriticalSection
 490              	.LVL47:
ARM GAS  C:\Users\ZURUSH~1\AppData\Local\Temp\ccIBvwAy.s 			page 29


1106:Generated_Source\PSoC4/CapSense.c **** 
1107:Generated_Source\PSoC4/CapSense.c ****         /* Set drive mode */
1108:Generated_Source\PSoC4/CapSense.c ****         newRegisterValue = *CapSense_prtCfgTbl[port];
 491              		.loc 1 1108 0
 492 0024 0949     		ldr	r1, .L33+8
 493 0026 0B68     		ldr	r3, [r1]
 494              	.LVL48:
1109:Generated_Source\PSoC4/CapSense.c ****         newRegisterValue &= ~(CapSense_CSD_PIN_MODE_MASK << pinModeShift);
 495              		.loc 1 1109 0
 496 0028 3822     		movs	r2, #56
 497 002a 9343     		bics	r3, r2
 498              	.LVL49:
 499 002c 1A00     		movs	r2, r3
 500              	.LVL50:
1110:Generated_Source\PSoC4/CapSense.c ****         newRegisterValue |=  (uint32)(inactiveConnect << pinModeShift);
 501              		.loc 1 1110 0
 502 002e E300     		lsls	r3, r4, #3
 503 0030 1343     		orrs	r3, r2
 504              	.LVL51:
1111:Generated_Source\PSoC4/CapSense.c ****         *CapSense_prtCfgTbl[port] =  newRegisterValue;
 505              		.loc 1 1111 0
 506 0032 0B60     		str	r3, [r1]
1112:Generated_Source\PSoC4/CapSense.c **** 
1113:Generated_Source\PSoC4/CapSense.c ****         CyExitCriticalSection(interruptState);
 507              		.loc 1 1113 0
 508 0034 FFF7FEFF 		bl	CyExitCriticalSection
 509              	.LVL52:
1114:Generated_Source\PSoC4/CapSense.c **** 
1115:Generated_Source\PSoC4/CapSense.c ****         *CapSense_prtDRTbl[port]  &=  (uint32)~(uint32)((uint32)1u << CapSense_pinShiftTbl[sensor])
 510              		.loc 1 1115 0
 511 0038 054A     		ldr	r2, .L33+12
 512 003a 1368     		ldr	r3, [r2]
 513 003c 0221     		movs	r1, #2
 514 003e 8B43     		bics	r3, r1
 515 0040 1360     		str	r3, [r2]
1116:Generated_Source\PSoC4/CapSense.c ****     #if(CapSense_IS_SHIELD_ENABLE != 0)
1117:Generated_Source\PSoC4/CapSense.c ****     }
1118:Generated_Source\PSoC4/CapSense.c ****     else
1119:Generated_Source\PSoC4/CapSense.c ****     {
1120:Generated_Source\PSoC4/CapSense.c ****         /* Connect to Shield */
1121:Generated_Source\PSoC4/CapSense.c ****         *CapSense_prtSelTbl[port] |= (CapSense_CSD_SHIELD_PORT_MODE << pinHSIOMShift);
1122:Generated_Source\PSoC4/CapSense.c ****     }
1123:Generated_Source\PSoC4/CapSense.c ****     #endif /* (CapSense_IS_SHIELD_ENABLE) */
1124:Generated_Source\PSoC4/CapSense.c **** }
 516              		.loc 1 1124 0
 517              		@ sp needed
 518              	.LVL53:
 519 0042 10BD     		pop	{r4, pc}
 520              	.L34:
 521              		.align	2
 522              	.L33:
 523 0044 00000000 		.word	CapSense_unscannedSnsDriveMode
 524 0048 04000140 		.word	1073807364
 525 004c 08010440 		.word	1074004232
 526 0050 00010440 		.word	1074004224
 527              		.cfi_endproc
 528              	.LFE48:
ARM GAS  C:\Users\ZURUSH~1\AppData\Local\Temp\ccIBvwAy.s 			page 30


 529              		.size	CapSense_DisableSensor, .-CapSense_DisableSensor
 530              		.section	.text.CapSense_ClearSensors,"ax",%progbits
 531              		.align	2
 532              		.global	CapSense_ClearSensors
 533              		.code	16
 534              		.thumb_func
 535              		.type	CapSense_ClearSensors, %function
 536              	CapSense_ClearSensors:
 537              	.LFB46:
 865:Generated_Source\PSoC4/CapSense.c ****     uint32 snsIndex;
 538              		.loc 1 865 0
 539              		.cfi_startproc
 540              		@ args = 0, pretend = 0, frame = 0
 541              		@ frame_needed = 0, uses_anonymous_args = 0
 542 0000 10B5     		push	{r4, lr}
 543              		.cfi_def_cfa_offset 8
 544              		.cfi_offset 4, -8
 545              		.cfi_offset 14, -4
 546              	.LVL54:
 868:Generated_Source\PSoC4/CapSense.c ****     {
 547              		.loc 1 868 0
 548 0002 0024     		movs	r4, #0
 549 0004 03E0     		b	.L36
 550              	.LVL55:
 551              	.L37:
 870:Generated_Source\PSoC4/CapSense.c ****     }
 552              		.loc 1 870 0 discriminator 3
 553 0006 2000     		movs	r0, r4
 554 0008 FFF7FEFF 		bl	CapSense_DisableSensor
 555              	.LVL56:
 868:Generated_Source\PSoC4/CapSense.c ****     {
 556              		.loc 1 868 0 discriminator 3
 557 000c 0134     		adds	r4, r4, #1
 558              	.LVL57:
 559              	.L36:
 868:Generated_Source\PSoC4/CapSense.c ****     {
 560              		.loc 1 868 0 is_stmt 0 discriminator 1
 561 000e 002C     		cmp	r4, #0
 562 0010 F9D0     		beq	.L37
 872:Generated_Source\PSoC4/CapSense.c **** 
 563              		.loc 1 872 0 is_stmt 1
 564              		@ sp needed
 565              	.LVL58:
 566 0012 10BD     		pop	{r4, pc}
 567              		.cfi_endproc
 568              	.LFE46:
 569              		.size	CapSense_ClearSensors, .-CapSense_ClearSensors
 570              		.section	.text.CapSense_SetPinDriveMode,"ax",%progbits
 571              		.align	2
 572              		.global	CapSense_SetPinDriveMode
 573              		.code	16
 574              		.thumb_func
 575              		.type	CapSense_SetPinDriveMode, %function
 576              	CapSense_SetPinDriveMode:
 577              	.LFB51:
1125:Generated_Source\PSoC4/CapSense.c **** 
1126:Generated_Source\PSoC4/CapSense.c **** 
ARM GAS  C:\Users\ZURUSH~1\AppData\Local\Temp\ccIBvwAy.s 			page 31


1127:Generated_Source\PSoC4/CapSense.c **** /*******************************************************************************
1128:Generated_Source\PSoC4/CapSense.c **** * Function Name: CapSense_SetDriveModeAllPins
1129:Generated_Source\PSoC4/CapSense.c **** ********************************************************************************
1130:Generated_Source\PSoC4/CapSense.c **** *
1131:Generated_Source\PSoC4/CapSense.c **** * Summary:
1132:Generated_Source\PSoC4/CapSense.c **** * This API sets the drive mode of port pins used by the CapSense
1133:Generated_Source\PSoC4/CapSense.c **** * component (sensors, guard, shield, shield tank and Cmod) to drive the
1134:Generated_Source\PSoC4/CapSense.c **** * mode specified by the argument.
1135:Generated_Source\PSoC4/CapSense.c **** *
1136:Generated_Source\PSoC4/CapSense.c **** * Parameters:
1137:Generated_Source\PSoC4/CapSense.c **** *  driveMode:  Drive mode definition.
1138:Generated_Source\PSoC4/CapSense.c **** *
1139:Generated_Source\PSoC4/CapSense.c **** * Return:
1140:Generated_Source\PSoC4/CapSense.c **** *  None
1141:Generated_Source\PSoC4/CapSense.c **** *
1142:Generated_Source\PSoC4/CapSense.c **** * Global Variables:
1143:Generated_Source\PSoC4/CapSense.c **** *  CapSense_portTable[] - used to store the port number that pin
1144:Generated_Source\PSoC4/CapSense.c **** *  belongs to for each sensor.
1145:Generated_Source\PSoC4/CapSense.c **** *  CapSense_pinShiftTbl[] - used to store position of pin that
1146:Generated_Source\PSoC4/CapSense.c **** *  configured as a sensor in the port.
1147:Generated_Source\PSoC4/CapSense.c **** *
1148:Generated_Source\PSoC4/CapSense.c **** * Side Effects:
1149:Generated_Source\PSoC4/CapSense.c **** *  This API shall be called only after CapSense component is stopped.
1150:Generated_Source\PSoC4/CapSense.c **** *
1151:Generated_Source\PSoC4/CapSense.c **** *******************************************************************************/
1152:Generated_Source\PSoC4/CapSense.c **** void CapSense_SetDriveModeAllPins(uint32 driveMode)
1153:Generated_Source\PSoC4/CapSense.c **** {
1154:Generated_Source\PSoC4/CapSense.c ****     uint8 curSensor;
1155:Generated_Source\PSoC4/CapSense.c ****     #if (CapSense_IS_COMPLEX_SCANSLOTS)
1156:Generated_Source\PSoC4/CapSense.c ****         uint8 snsNumber;
1157:Generated_Source\PSoC4/CapSense.c ****         uint8 snsType;
1158:Generated_Source\PSoC4/CapSense.c ****     #endif  /* CapSense_IS_COMPLEX_SCANSLOTS */
1159:Generated_Source\PSoC4/CapSense.c ****     uint32 prtNumberTmp;
1160:Generated_Source\PSoC4/CapSense.c ****     uint32 pinNumberTmp;
1161:Generated_Source\PSoC4/CapSense.c **** 
1162:Generated_Source\PSoC4/CapSense.c ****     for(curSensor = 0u; curSensor < CapSense_TOTAL_SENSOR_COUNT; curSensor++)
1163:Generated_Source\PSoC4/CapSense.c ****     {
1164:Generated_Source\PSoC4/CapSense.c ****         #if (CapSense_IS_COMPLEX_SCANSLOTS)
1165:Generated_Source\PSoC4/CapSense.c ****             /* Read sensor type: single or complex */
1166:Generated_Source\PSoC4/CapSense.c ****             snsType = CapSense_portTable[curSensor];
1167:Generated_Source\PSoC4/CapSense.c **** 
1168:Generated_Source\PSoC4/CapSense.c ****             /* Check if sensor is complex */
1169:Generated_Source\PSoC4/CapSense.c ****             if ((snsType & CapSense_COMPLEX_SS_FLAG) == 0u)
1170:Generated_Source\PSoC4/CapSense.c ****             {
1171:Generated_Source\PSoC4/CapSense.c ****                 /* The sensor is not complex */
1172:Generated_Source\PSoC4/CapSense.c ****                 snsNumber = curSensor;
1173:Generated_Source\PSoC4/CapSense.c ****             }
1174:Generated_Source\PSoC4/CapSense.c ****             else
1175:Generated_Source\PSoC4/CapSense.c ****             {
1176:Generated_Source\PSoC4/CapSense.c ****                 /* Get dedicated sensor ID of the complex sensor */
1177:Generated_Source\PSoC4/CapSense.c ****                 snsType &= ~CapSense_COMPLEX_SS_FLAG;
1178:Generated_Source\PSoC4/CapSense.c ****                 snsNumber = CapSense_indexTable[snsType];
1179:Generated_Source\PSoC4/CapSense.c ****             }
1180:Generated_Source\PSoC4/CapSense.c **** 
1181:Generated_Source\PSoC4/CapSense.c ****             prtNumberTmp = CapSense_portTable[snsNumber];
1182:Generated_Source\PSoC4/CapSense.c ****             pinNumberTmp = CapSense_pinShiftTbl[snsNumber];
1183:Generated_Source\PSoC4/CapSense.c ****         #else
ARM GAS  C:\Users\ZURUSH~1\AppData\Local\Temp\ccIBvwAy.s 			page 32


1184:Generated_Source\PSoC4/CapSense.c ****             prtNumberTmp = CapSense_portTable[curSensor];
1185:Generated_Source\PSoC4/CapSense.c ****             pinNumberTmp = CapSense_pinShiftTbl[curSensor];
1186:Generated_Source\PSoC4/CapSense.c ****         #endif  /* CapSense_IS_COMPLEX_SCANSLOTS */
1187:Generated_Source\PSoC4/CapSense.c **** 
1188:Generated_Source\PSoC4/CapSense.c ****         CapSense_SetPinDriveMode(driveMode, pinNumberTmp, prtNumberTmp);
1189:Generated_Source\PSoC4/CapSense.c ****     }
1190:Generated_Source\PSoC4/CapSense.c **** 
1191:Generated_Source\PSoC4/CapSense.c ****     CapSense_SetPinDriveMode(driveMode, (uint32)CapSense_CMOD_PIN_NUMBER, (uint32)CapSense_CMOD_PRT
1192:Generated_Source\PSoC4/CapSense.c **** 
1193:Generated_Source\PSoC4/CapSense.c ****     #if(0u != CapSense_CSH_TANK_ENABLE)
1194:Generated_Source\PSoC4/CapSense.c ****         CapSense_SetPinDriveMode(driveMode, (uint32)CapSense_CTANK_PIN_NUMBER, (uint32)CapSense_CTA
1195:Generated_Source\PSoC4/CapSense.c ****     #endif /* (0u != CapSense_CSH_TANK_ENABLE) */
1196:Generated_Source\PSoC4/CapSense.c **** 
1197:Generated_Source\PSoC4/CapSense.c ****     #if(0u != CapSense_IS_SHIELD_ENABLE)
1198:Generated_Source\PSoC4/CapSense.c ****         CapSense_SetPinDriveMode(driveMode, (uint32)CapSense_SHIELD_PIN_NUMBER, (uint32)CapSense_SH
1199:Generated_Source\PSoC4/CapSense.c ****     #endif /* (0u != CapSense_IS_SHIELD_ENABLE) */
1200:Generated_Source\PSoC4/CapSense.c **** }
1201:Generated_Source\PSoC4/CapSense.c **** 
1202:Generated_Source\PSoC4/CapSense.c **** 
1203:Generated_Source\PSoC4/CapSense.c **** /*******************************************************************************
1204:Generated_Source\PSoC4/CapSense.c **** * Function Name: CapSense_RestoreDriveModeAllPins
1205:Generated_Source\PSoC4/CapSense.c **** ********************************************************************************
1206:Generated_Source\PSoC4/CapSense.c **** *
1207:Generated_Source\PSoC4/CapSense.c **** * Summary:
1208:Generated_Source\PSoC4/CapSense.c **** *  This API restores the drive for all the CapSense port pins to the original
1209:Generated_Source\PSoC4/CapSense.c **** *  state.
1210:Generated_Source\PSoC4/CapSense.c **** *
1211:Generated_Source\PSoC4/CapSense.c **** * Parameters:
1212:Generated_Source\PSoC4/CapSense.c **** *  None
1213:Generated_Source\PSoC4/CapSense.c **** *
1214:Generated_Source\PSoC4/CapSense.c **** * Return:
1215:Generated_Source\PSoC4/CapSense.c **** *  None
1216:Generated_Source\PSoC4/CapSense.c **** *
1217:Generated_Source\PSoC4/CapSense.c **** * Global Variables:
1218:Generated_Source\PSoC4/CapSense.c **** *  CapSense_prtSelTbl[] - Contains pointers to the HSIOM
1219:Generated_Source\PSoC4/CapSense.c **** *  registers for each port.
1220:Generated_Source\PSoC4/CapSense.c **** *
1221:Generated_Source\PSoC4/CapSense.c **** * Side Effects:
1222:Generated_Source\PSoC4/CapSense.c **** *  This API is called only after the CapSense component is stopped.
1223:Generated_Source\PSoC4/CapSense.c **** *
1224:Generated_Source\PSoC4/CapSense.c **** *******************************************************************************/
1225:Generated_Source\PSoC4/CapSense.c **** void CapSense_RestoreDriveModeAllPins(void)
1226:Generated_Source\PSoC4/CapSense.c **** {
1227:Generated_Source\PSoC4/CapSense.c ****     uint32 newRegisterValue;
1228:Generated_Source\PSoC4/CapSense.c **** 
1229:Generated_Source\PSoC4/CapSense.c ****     CapSense_SetDriveModeAllPins(CY_SYS_PINS_DM_ALG_HIZ);
1230:Generated_Source\PSoC4/CapSense.c **** 
1231:Generated_Source\PSoC4/CapSense.c ****     newRegisterValue = CapSense_CMOD_CONNECTION_REG;
1232:Generated_Source\PSoC4/CapSense.c ****     newRegisterValue &= ~(CapSense_CSD_CMOD_CONNECTION_MASK);
1233:Generated_Source\PSoC4/CapSense.c ****     newRegisterValue |= CapSense_CSD_CMOD_TO_AMUXBUS_A;
1234:Generated_Source\PSoC4/CapSense.c ****     CapSense_CMOD_CONNECTION_REG = newRegisterValue;
1235:Generated_Source\PSoC4/CapSense.c **** 
1236:Generated_Source\PSoC4/CapSense.c ****     #if(0u != CapSense_CSH_TANK_ENABLE)
1237:Generated_Source\PSoC4/CapSense.c ****         newRegisterValue = CapSense_CTANK_CONNECTION_REG;
1238:Generated_Source\PSoC4/CapSense.c ****         newRegisterValue &= ~(CapSense_CSD_CTANK_CONNECTION_MASK);
1239:Generated_Source\PSoC4/CapSense.c ****         newRegisterValue |= CapSense_CSD_CTANK_TO_AMUXBUS_B;
1240:Generated_Source\PSoC4/CapSense.c ****         CapSense_CTANK_CONNECTION_REG = newRegisterValue;
ARM GAS  C:\Users\ZURUSH~1\AppData\Local\Temp\ccIBvwAy.s 			page 33


1241:Generated_Source\PSoC4/CapSense.c ****     #endif/* (0u != CapSense_CSH_TANK_ENABLE) */
1242:Generated_Source\PSoC4/CapSense.c **** 
1243:Generated_Source\PSoC4/CapSense.c ****     #if(0u != CapSense_IS_SHIELD_ENABLE)
1244:Generated_Source\PSoC4/CapSense.c ****         newRegisterValue = *CapSense_prtSelTbl[CapSense_SHIELD_PORT_NUMBER];
1245:Generated_Source\PSoC4/CapSense.c ****         newRegisterValue &= ~(CapSense_CSD_HSIOM_MASK << ((uint32)CapSense_SHIELD_PIN_NUMBER * CapS
1246:Generated_Source\PSoC4/CapSense.c ****         newRegisterValue |= (CapSense_CSD_SHIELD_PORT_MODE << ((uint32)CapSense_SHIELD_PIN_NUMBER *
1247:Generated_Source\PSoC4/CapSense.c ****         *CapSense_prtSelTbl[CapSense_SHIELD_PORT_NUMBER] = newRegisterValue;
1248:Generated_Source\PSoC4/CapSense.c ****     #endif /* (0u != CapSense_IS_SHIELD_ENABLE) */
1249:Generated_Source\PSoC4/CapSense.c **** }
1250:Generated_Source\PSoC4/CapSense.c **** 
1251:Generated_Source\PSoC4/CapSense.c **** 
1252:Generated_Source\PSoC4/CapSense.c **** /*******************************************************************************
1253:Generated_Source\PSoC4/CapSense.c **** * Function Name: CapSense_SetPinDriveMode
1254:Generated_Source\PSoC4/CapSense.c **** ********************************************************************************
1255:Generated_Source\PSoC4/CapSense.c **** *
1256:Generated_Source\PSoC4/CapSense.c **** * Summary:
1257:Generated_Source\PSoC4/CapSense.c **** * This API sets the drive mode for the appropriate port/pin.
1258:Generated_Source\PSoC4/CapSense.c **** *
1259:Generated_Source\PSoC4/CapSense.c **** * Parameters:
1260:Generated_Source\PSoC4/CapSense.c **** *  driveMode:  Drive mode definition.
1261:Generated_Source\PSoC4/CapSense.c **** *  portNumber: contains port number (0, 1, 2).
1262:Generated_Source\PSoC4/CapSense.c **** *  pinNumber: contains pin number (0, 1, 2, ... , 7).
1263:Generated_Source\PSoC4/CapSense.c **** *
1264:Generated_Source\PSoC4/CapSense.c **** * Return:
1265:Generated_Source\PSoC4/CapSense.c **** *  None
1266:Generated_Source\PSoC4/CapSense.c **** *
1267:Generated_Source\PSoC4/CapSense.c **** * Global Variables:
1268:Generated_Source\PSoC4/CapSense.c **** *  CapSense_prtSelTbl[] - Contains pointers to the HSIOM
1269:Generated_Source\PSoC4/CapSense.c **** *  registers for each port.
1270:Generated_Source\PSoC4/CapSense.c **** *  CapSense_prtCfgTb[] - Contains pointers to the port config
1271:Generated_Source\PSoC4/CapSense.c **** *  registers for each port.
1272:Generated_Source\PSoC4/CapSense.c **** *
1273:Generated_Source\PSoC4/CapSense.c **** * Side Effects:
1274:Generated_Source\PSoC4/CapSense.c **** *  This API is called only after CapSense component is stopped.
1275:Generated_Source\PSoC4/CapSense.c **** *
1276:Generated_Source\PSoC4/CapSense.c **** *******************************************************************************/
1277:Generated_Source\PSoC4/CapSense.c **** void CapSense_SetPinDriveMode(uint32 driveMode, uint32 pinNumber, uint32 portNumber)
1278:Generated_Source\PSoC4/CapSense.c **** {
 578              		.loc 1 1278 0
 579              		.cfi_startproc
 580              		@ args = 0, pretend = 0, frame = 0
 581              		@ frame_needed = 0, uses_anonymous_args = 0
 582              	.LVL59:
 583 0000 10B5     		push	{r4, lr}
 584              		.cfi_def_cfa_offset 8
 585              		.cfi_offset 4, -8
 586              		.cfi_offset 14, -4
1279:Generated_Source\PSoC4/CapSense.c ****     uint32  pinModeShift;
1280:Generated_Source\PSoC4/CapSense.c ****     uint32 newRegisterValue;
1281:Generated_Source\PSoC4/CapSense.c **** 
1282:Generated_Source\PSoC4/CapSense.c ****     pinModeShift  = pinNumber * CapSense_PC_PIN_CFG_SIZE;
 587              		.loc 1 1282 0
 588 0002 4B00     		lsls	r3, r1, #1
 589 0004 5918     		adds	r1, r3, r1
 590              	.LVL60:
1283:Generated_Source\PSoC4/CapSense.c **** 
1284:Generated_Source\PSoC4/CapSense.c ****     newRegisterValue = *CapSense_prtCfgTbl[portNumber];
ARM GAS  C:\Users\ZURUSH~1\AppData\Local\Temp\ccIBvwAy.s 			page 34


 591              		.loc 1 1284 0
 592 0006 9200     		lsls	r2, r2, #2
 593              	.LVL61:
 594 0008 044B     		ldr	r3, .L39
 595 000a D458     		ldr	r4, [r2, r3]
 596 000c 2368     		ldr	r3, [r4]
 597              	.LVL62:
1285:Generated_Source\PSoC4/CapSense.c ****     newRegisterValue &= ~(CapSense_CSD_PIN_MODE_MASK << pinModeShift);
 598              		.loc 1 1285 0
 599 000e 0722     		movs	r2, #7
 600 0010 8A40     		lsls	r2, r2, r1
 601 0012 9343     		bics	r3, r2
 602              	.LVL63:
1286:Generated_Source\PSoC4/CapSense.c ****     newRegisterValue |=  (uint32)((uint32)driveMode << pinModeShift);
 603              		.loc 1 1286 0
 604 0014 8840     		lsls	r0, r0, r1
 605              	.LVL64:
 606 0016 1843     		orrs	r0, r3
 607              	.LVL65:
1287:Generated_Source\PSoC4/CapSense.c ****     *CapSense_prtCfgTbl[portNumber] =  newRegisterValue;
 608              		.loc 1 1287 0
 609 0018 2060     		str	r0, [r4]
1288:Generated_Source\PSoC4/CapSense.c **** }
 610              		.loc 1 1288 0
 611              		@ sp needed
 612 001a 10BD     		pop	{r4, pc}
 613              	.L40:
 614              		.align	2
 615              	.L39:
 616 001c 00000000 		.word	.LANCHOR2
 617              		.cfi_endproc
 618              	.LFE51:
 619              		.size	CapSense_SetPinDriveMode, .-CapSense_SetPinDriveMode
 620              		.section	.text.CapSense_SetDriveModeAllPins,"ax",%progbits
 621              		.align	2
 622              		.global	CapSense_SetDriveModeAllPins
 623              		.code	16
 624              		.thumb_func
 625              		.type	CapSense_SetDriveModeAllPins, %function
 626              	CapSense_SetDriveModeAllPins:
 627              	.LFB49:
1153:Generated_Source\PSoC4/CapSense.c ****     uint8 curSensor;
 628              		.loc 1 1153 0
 629              		.cfi_startproc
 630              		@ args = 0, pretend = 0, frame = 0
 631              		@ frame_needed = 0, uses_anonymous_args = 0
 632              	.LVL66:
 633 0000 70B5     		push	{r4, r5, r6, lr}
 634              		.cfi_def_cfa_offset 16
 635              		.cfi_offset 4, -16
 636              		.cfi_offset 5, -12
 637              		.cfi_offset 6, -8
 638              		.cfi_offset 14, -4
 639 0002 0500     		movs	r5, r0
 640              	.LVL67:
1162:Generated_Source\PSoC4/CapSense.c ****     {
 641              		.loc 1 1162 0
ARM GAS  C:\Users\ZURUSH~1\AppData\Local\Temp\ccIBvwAy.s 			page 35


 642 0004 0024     		movs	r4, #0
 643 0006 06E0     		b	.L42
 644              	.LVL68:
 645              	.L43:
1188:Generated_Source\PSoC4/CapSense.c ****     }
 646              		.loc 1 1188 0 discriminator 3
 647 0008 0122     		movs	r2, #1
 648 000a 0121     		movs	r1, #1
 649 000c 2800     		movs	r0, r5
 650 000e FFF7FEFF 		bl	CapSense_SetPinDriveMode
 651              	.LVL69:
1162:Generated_Source\PSoC4/CapSense.c ****     {
 652              		.loc 1 1162 0 discriminator 3
 653 0012 0134     		adds	r4, r4, #1
 654              	.LVL70:
 655 0014 E4B2     		uxtb	r4, r4
 656              	.LVL71:
 657              	.L42:
1162:Generated_Source\PSoC4/CapSense.c ****     {
 658              		.loc 1 1162 0 is_stmt 0 discriminator 1
 659 0016 002C     		cmp	r4, #0
 660 0018 F6D0     		beq	.L43
1191:Generated_Source\PSoC4/CapSense.c **** 
 661              		.loc 1 1191 0 is_stmt 1
 662 001a 0422     		movs	r2, #4
 663 001c 0221     		movs	r1, #2
 664 001e 2800     		movs	r0, r5
 665 0020 FFF7FEFF 		bl	CapSense_SetPinDriveMode
 666              	.LVL72:
1200:Generated_Source\PSoC4/CapSense.c **** 
 667              		.loc 1 1200 0
 668              		@ sp needed
 669              	.LVL73:
 670              	.LVL74:
 671 0024 70BD     		pop	{r4, r5, r6, pc}
 672              		.cfi_endproc
 673              	.LFE49:
 674              		.size	CapSense_SetDriveModeAllPins, .-CapSense_SetDriveModeAllPins
 675 0026 C046     		.section	.text.CapSense_RestoreDriveModeAllPins,"ax",%progbits
 676              		.align	2
 677              		.global	CapSense_RestoreDriveModeAllPins
 678              		.code	16
 679              		.thumb_func
 680              		.type	CapSense_RestoreDriveModeAllPins, %function
 681              	CapSense_RestoreDriveModeAllPins:
 682              	.LFB50:
1226:Generated_Source\PSoC4/CapSense.c ****     uint32 newRegisterValue;
 683              		.loc 1 1226 0
 684              		.cfi_startproc
 685              		@ args = 0, pretend = 0, frame = 0
 686              		@ frame_needed = 0, uses_anonymous_args = 0
 687 0000 10B5     		push	{r4, lr}
 688              		.cfi_def_cfa_offset 8
 689              		.cfi_offset 4, -8
 690              		.cfi_offset 14, -4
1229:Generated_Source\PSoC4/CapSense.c **** 
 691              		.loc 1 1229 0
ARM GAS  C:\Users\ZURUSH~1\AppData\Local\Temp\ccIBvwAy.s 			page 36


 692 0002 0020     		movs	r0, #0
 693 0004 FFF7FEFF 		bl	CapSense_SetDriveModeAllPins
 694              	.LVL75:
1231:Generated_Source\PSoC4/CapSense.c ****     newRegisterValue &= ~(CapSense_CSD_CMOD_CONNECTION_MASK);
 695              		.loc 1 1231 0
 696 0008 044A     		ldr	r2, .L45
 697 000a 1168     		ldr	r1, [r2]
 698              	.LVL76:
1232:Generated_Source\PSoC4/CapSense.c ****     newRegisterValue |= CapSense_CSD_CMOD_TO_AMUXBUS_A;
 699              		.loc 1 1232 0
 700 000c 044B     		ldr	r3, .L45+4
 701 000e 0B40     		ands	r3, r1
 702              	.LVL77:
1233:Generated_Source\PSoC4/CapSense.c ****     CapSense_CMOD_CONNECTION_REG = newRegisterValue;
 703              		.loc 1 1233 0
 704 0010 C021     		movs	r1, #192
 705 0012 C900     		lsls	r1, r1, #3
 706 0014 0B43     		orrs	r3, r1
 707              	.LVL78:
1234:Generated_Source\PSoC4/CapSense.c **** 
 708              		.loc 1 1234 0
 709 0016 1360     		str	r3, [r2]
1249:Generated_Source\PSoC4/CapSense.c **** 
 710              		.loc 1 1249 0
 711              		@ sp needed
 712 0018 10BD     		pop	{r4, pc}
 713              	.L46:
 714 001a C046     		.align	2
 715              	.L45:
 716 001c 10000140 		.word	1073807376
 717 0020 FFF0FFFF 		.word	-3841
 718              		.cfi_endproc
 719              	.LFE50:
 720              		.size	CapSense_RestoreDriveModeAllPins, .-CapSense_RestoreDriveModeAllPins
 721              		.section	.text.CapSense_EnableShieldElectrode,"ax",%progbits
 722              		.align	2
 723              		.global	CapSense_EnableShieldElectrode
 724              		.code	16
 725              		.thumb_func
 726              		.type	CapSense_EnableShieldElectrode, %function
 727              	CapSense_EnableShieldElectrode:
 728              	.LFB54:
1289:Generated_Source\PSoC4/CapSense.c **** 
1290:Generated_Source\PSoC4/CapSense.c **** 
1291:Generated_Source\PSoC4/CapSense.c **** /*******************************************************************************
1292:Generated_Source\PSoC4/CapSense.c **** * Function Name: CapSense_PreScan
1293:Generated_Source\PSoC4/CapSense.c **** ********************************************************************************
1294:Generated_Source\PSoC4/CapSense.c **** *
1295:Generated_Source\PSoC4/CapSense.c **** * Summary:
1296:Generated_Source\PSoC4/CapSense.c **** *  Sets required settings, enables a sensor, removes Vref from AMUX and starts the
1297:Generated_Source\PSoC4/CapSense.c **** *  scanning process of the sensor.
1298:Generated_Source\PSoC4/CapSense.c **** *
1299:Generated_Source\PSoC4/CapSense.c **** * Parameters:
1300:Generated_Source\PSoC4/CapSense.c **** *  sensor:  Sensor number.
1301:Generated_Source\PSoC4/CapSense.c **** *
1302:Generated_Source\PSoC4/CapSense.c **** * Return:
1303:Generated_Source\PSoC4/CapSense.c **** *  None
ARM GAS  C:\Users\ZURUSH~1\AppData\Local\Temp\ccIBvwAy.s 			page 37


1304:Generated_Source\PSoC4/CapSense.c **** *
1305:Generated_Source\PSoC4/CapSense.c **** * Global Variables:
1306:Generated_Source\PSoC4/CapSense.c **** * CapSense_widgetNumber[] - This array contains numbers of widgets for each sensor.
1307:Generated_Source\PSoC4/CapSense.c **** * CapSense_widgetResolution[] - Contains the widget resolution.
1308:Generated_Source\PSoC4/CapSense.c **** *
1309:Generated_Source\PSoC4/CapSense.c **** * Side Effects:
1310:Generated_Source\PSoC4/CapSense.c **** *  None
1311:Generated_Source\PSoC4/CapSense.c **** *
1312:Generated_Source\PSoC4/CapSense.c **** *******************************************************************************/
1313:Generated_Source\PSoC4/CapSense.c **** void CapSense_PreScan(uint32 sensor)
1314:Generated_Source\PSoC4/CapSense.c **** {
1315:Generated_Source\PSoC4/CapSense.c ****     uint8 widget;
1316:Generated_Source\PSoC4/CapSense.c ****     uint8 interruptState;
1317:Generated_Source\PSoC4/CapSense.c ****     uint32 newRegValue;
1318:Generated_Source\PSoC4/CapSense.c ****     uint32 counterResolution;
1319:Generated_Source\PSoC4/CapSense.c **** 
1320:Generated_Source\PSoC4/CapSense.c ****     #if(CapSense_PRS_OPTIONS == CapSense__PRS_AUTO)
1321:Generated_Source\PSoC4/CapSense.c ****         uint8 senseClkDivMath;
1322:Generated_Source\PSoC4/CapSense.c ****         uint8 sampleClkDivMath;
1323:Generated_Source\PSoC4/CapSense.c ****     #endif /* (CapSense_PRS_OPTIONS == CapSense__PRS_AUTO) */
1324:Generated_Source\PSoC4/CapSense.c **** 
1325:Generated_Source\PSoC4/CapSense.c ****     #if ((CapSense_TUNING_METHOD == CapSense__TUNING_AUTO) &&\
1326:Generated_Source\PSoC4/CapSense.c ****          (0 != CapSense_IS_OVERSAMPLING_EN))
1327:Generated_Source\PSoC4/CapSense.c ****         uint32 oversamplingFactor;
1328:Generated_Source\PSoC4/CapSense.c ****     #endif /* ((CapSense_TUNING_METHOD == CapSense__TUNING_AUTO) &&\
1329:Generated_Source\PSoC4/CapSense.c ****                (0 != CapSense_IS_OVERSAMPLING_EN)) */
1330:Generated_Source\PSoC4/CapSense.c **** 
1331:Generated_Source\PSoC4/CapSense.c ****     /* Define widget sensor belongs to */
1332:Generated_Source\PSoC4/CapSense.c ****     widget = CapSense_widgetNumber[sensor];
1333:Generated_Source\PSoC4/CapSense.c **** 
1334:Generated_Source\PSoC4/CapSense.c ****     /* Recalculate Counter Resolution to MSB 16 bits */
1335:Generated_Source\PSoC4/CapSense.c ****     counterResolution = CapSense_widgetResolution[widget];
1336:Generated_Source\PSoC4/CapSense.c **** 
1337:Generated_Source\PSoC4/CapSense.c ****     #if ((CapSense_TUNING_METHOD == CapSense__TUNING_AUTO) &&\
1338:Generated_Source\PSoC4/CapSense.c ****          (0 != CapSense_IS_OVERSAMPLING_EN))
1339:Generated_Source\PSoC4/CapSense.c ****         oversamplingFactor = CapSense_GetBitValue(CapSense_scanSpeedTbl, sensor);
1340:Generated_Source\PSoC4/CapSense.c **** 
1341:Generated_Source\PSoC4/CapSense.c ****         if(counterResolution < CapSense_RESOLUTION_16_BITS)
1342:Generated_Source\PSoC4/CapSense.c ****         {
1343:Generated_Source\PSoC4/CapSense.c ****             counterResolution <<= oversamplingFactor;
1344:Generated_Source\PSoC4/CapSense.c ****             counterResolution |= (uint32)(CapSense_RESOLUTION_8_BITS);
1345:Generated_Source\PSoC4/CapSense.c ****         }
1346:Generated_Source\PSoC4/CapSense.c ****     #endif /* ((CapSense_TUNING_METHOD == CapSense__TUNING_AUTO) &&\
1347:Generated_Source\PSoC4/CapSense.c ****                (0 != CapSense_IS_OVERSAMPLING_EN)) */
1348:Generated_Source\PSoC4/CapSense.c **** 
1349:Generated_Source\PSoC4/CapSense.c ****     #if (0u != CapSense_IS_M0S8PERI_BLOCK)
1350:Generated_Source\PSoC4/CapSense.c ****         CapSense_SenseClk_Stop();
1351:Generated_Source\PSoC4/CapSense.c ****         CapSense_SampleClk_Stop();
1352:Generated_Source\PSoC4/CapSense.c ****     #endif /* (0u != CapSense_IS_M0S8PERI_BLOCK) */
1353:Generated_Source\PSoC4/CapSense.c **** 
1354:Generated_Source\PSoC4/CapSense.c ****     #if (0u != CapSense_MULTIPLE_FREQUENCY_SET)
1355:Generated_Source\PSoC4/CapSense.c ****         CapSense_SampleClk_SetDividerValue((uint16)CapSense_sampleClkDividerVal[sensor]);
1356:Generated_Source\PSoC4/CapSense.c ****         CapSense_SenseClk_SetDividerValue((uint16)CapSense_senseClkDividerVal[sensor]);
1357:Generated_Source\PSoC4/CapSense.c ****     #else
1358:Generated_Source\PSoC4/CapSense.c ****         CapSense_SampleClk_SetDividerValue((uint16)CapSense_sampleClkDividerVal);
1359:Generated_Source\PSoC4/CapSense.c ****         CapSense_SenseClk_SetDividerValue((uint16)CapSense_senseClkDividerVal);
1360:Generated_Source\PSoC4/CapSense.c ****     #endif /* (0u != CapSense_MULTIPLE_FREQUENCY_SET) */
ARM GAS  C:\Users\ZURUSH~1\AppData\Local\Temp\ccIBvwAy.s 			page 38


1361:Generated_Source\PSoC4/CapSense.c **** 
1362:Generated_Source\PSoC4/CapSense.c ****     #if (0u != CapSense_IS_M0S8PERI_BLOCK)
1363:Generated_Source\PSoC4/CapSense.c ****         CapSense_SampleClk_Start();
1364:Generated_Source\PSoC4/CapSense.c ****         CapSense_SenseClk_StartEx(CapSense_SampleClk__DIV_ID);
1365:Generated_Source\PSoC4/CapSense.c **** 
1366:Generated_Source\PSoC4/CapSense.c ****         #if(CapSense_PRS_OPTIONS == CapSense__PRS_NONE)
1367:Generated_Source\PSoC4/CapSense.c ****             CyIntDisable(CapSense_ISR_NUMBER);
1368:Generated_Source\PSoC4/CapSense.c ****             CapSense_CSD_CNT_REG = CapSense_ONE_CYCLE;
1369:Generated_Source\PSoC4/CapSense.c ****             while(0u != (CapSense_CSD_CNT_REG & CapSense_RESOLUTION_16_BITS))
1370:Generated_Source\PSoC4/CapSense.c ****             {
1371:Generated_Source\PSoC4/CapSense.c ****             /* Wait until scanning is complete */
1372:Generated_Source\PSoC4/CapSense.c ****             }
1373:Generated_Source\PSoC4/CapSense.c ****             CapSense_CSD_INTR_REG = 1u;
1374:Generated_Source\PSoC4/CapSense.c ****             CyIntClearPending(CapSense_ISR_NUMBER);
1375:Generated_Source\PSoC4/CapSense.c ****             CyIntEnable(CapSense_ISR_NUMBER);
1376:Generated_Source\PSoC4/CapSense.c ****         #endif /* CapSense_PRS_OPTIONS == CapSense__PRS_NONE */
1377:Generated_Source\PSoC4/CapSense.c ****     #endif /* (0u != CapSense_IS_M0S8PERI_BLOCK) */
1378:Generated_Source\PSoC4/CapSense.c **** 
1379:Generated_Source\PSoC4/CapSense.c **** #if(CapSense_PRS_OPTIONS != CapSense__PRS_NONE)
1380:Generated_Source\PSoC4/CapSense.c **** 
1381:Generated_Source\PSoC4/CapSense.c ****     #if(CapSense_TUNING_METHOD == CapSense__TUNING_AUTO)
1382:Generated_Source\PSoC4/CapSense.c ****         if(CapSense_prescalersTuningDone != 0u)
1383:Generated_Source\PSoC4/CapSense.c ****         {
1384:Generated_Source\PSoC4/CapSense.c ****     #endif /* (CapSense_TUNING_METHOD == CapSense__TUNING_AUTO) */
1385:Generated_Source\PSoC4/CapSense.c **** 
1386:Generated_Source\PSoC4/CapSense.c ****             CyIntDisable(CapSense_ISR_NUMBER);
1387:Generated_Source\PSoC4/CapSense.c **** 
1388:Generated_Source\PSoC4/CapSense.c ****             newRegValue = CapSense_CSD_CFG_REG;
1389:Generated_Source\PSoC4/CapSense.c ****             newRegValue |= CapSense_CSD_CFG_PRS_SELECT;
1390:Generated_Source\PSoC4/CapSense.c **** 
1391:Generated_Source\PSoC4/CapSense.c ****             #if(CapSense_PRS_OPTIONS == CapSense__PRS_AUTO)
1392:Generated_Source\PSoC4/CapSense.c **** 
1393:Generated_Source\PSoC4/CapSense.c ****                 newRegValue &= ~(CapSense_PRS_MODE_MASK);
1394:Generated_Source\PSoC4/CapSense.c **** 
1395:Generated_Source\PSoC4/CapSense.c ****                 #if (0u != CapSense_MULTIPLE_FREQUENCY_SET)
1396:Generated_Source\PSoC4/CapSense.c ****                     senseClkDivMath = CapSense_senseClkDividerVal[sensor];
1397:Generated_Source\PSoC4/CapSense.c ****                     sampleClkDivMath = CapSense_sampleClkDividerVal[sensor];
1398:Generated_Source\PSoC4/CapSense.c ****                 #else
1399:Generated_Source\PSoC4/CapSense.c ****                     senseClkDivMath = CapSense_senseClkDividerVal;
1400:Generated_Source\PSoC4/CapSense.c ****                     sampleClkDivMath = CapSense_sampleClkDividerVal;
1401:Generated_Source\PSoC4/CapSense.c ****                 #endif /* ( CapSense_MULTIPLE_FREQUENCY_SET) */
1402:Generated_Source\PSoC4/CapSense.c **** 
1403:Generated_Source\PSoC4/CapSense.c ****                 #if(0u == CapSense_IS_M0S8PERI_BLOCK)
1404:Generated_Source\PSoC4/CapSense.c ****                     senseClkDivMath *= sampleClkDivMath;
1405:Generated_Source\PSoC4/CapSense.c ****                 #endif /* (0u == CapSense_IS_M0S8PERI_BLOCK) */
1406:Generated_Source\PSoC4/CapSense.c **** 
1407:Generated_Source\PSoC4/CapSense.c ****                 if((senseClkDivMath * CapSense_RESOLUTION_12_BITS) <
1408:Generated_Source\PSoC4/CapSense.c ****                    (sampleClkDivMath * CapSense_widgetResolution[widget]))
1409:Generated_Source\PSoC4/CapSense.c ****                 {
1410:Generated_Source\PSoC4/CapSense.c ****                     newRegValue |= CapSense_CSD_PRS_12_BIT;
1411:Generated_Source\PSoC4/CapSense.c ****                 }
1412:Generated_Source\PSoC4/CapSense.c ****             #endif /* (CapSense_PRS_OPTIONS == CapSense__PRS_AUTO) */
1413:Generated_Source\PSoC4/CapSense.c **** 
1414:Generated_Source\PSoC4/CapSense.c ****             CapSense_CSD_CFG_REG = newRegValue;
1415:Generated_Source\PSoC4/CapSense.c **** 
1416:Generated_Source\PSoC4/CapSense.c ****             CyIntEnable(CapSense_ISR_NUMBER);
1417:Generated_Source\PSoC4/CapSense.c **** 
ARM GAS  C:\Users\ZURUSH~1\AppData\Local\Temp\ccIBvwAy.s 			page 39


1418:Generated_Source\PSoC4/CapSense.c ****     #if(CapSense_TUNING_METHOD == CapSense__TUNING_AUTO)
1419:Generated_Source\PSoC4/CapSense.c ****         }
1420:Generated_Source\PSoC4/CapSense.c ****     #endif /* (CapSense_PRS_OPTIONS != CapSense__PRS_NONE) */
1421:Generated_Source\PSoC4/CapSense.c **** 
1422:Generated_Source\PSoC4/CapSense.c **** #endif /* (CapSense_PRS_OPTIONS == CapSense__PRS_NONE) */
1423:Generated_Source\PSoC4/CapSense.c **** 
1424:Generated_Source\PSoC4/CapSense.c ****     /* Set Idac Value */
1425:Generated_Source\PSoC4/CapSense.c ****     CyIntDisable(CapSense_ISR_NUMBER);
1426:Generated_Source\PSoC4/CapSense.c ****     newRegValue = CapSense_CSD_IDAC_REG;
1427:Generated_Source\PSoC4/CapSense.c **** 
1428:Generated_Source\PSoC4/CapSense.c **** #if (CapSense_IDAC_CNT == 1u)
1429:Generated_Source\PSoC4/CapSense.c ****     newRegValue &= ~(CapSense_CSD_IDAC1_DATA_MASK);
1430:Generated_Source\PSoC4/CapSense.c ****     newRegValue |= CapSense_modulationIDAC[sensor];
1431:Generated_Source\PSoC4/CapSense.c **** #else
1432:Generated_Source\PSoC4/CapSense.c ****     newRegValue &= ~(CapSense_CSD_IDAC1_DATA_MASK | CapSense_CSD_IDAC2_DATA_MASK);
1433:Generated_Source\PSoC4/CapSense.c ****     newRegValue |= (CapSense_modulationIDAC[sensor] |
1434:Generated_Source\PSoC4/CapSense.c ****                             (uint32)((uint32)CapSense_compensationIDAC[sensor] <<
1435:Generated_Source\PSoC4/CapSense.c ****                             CapSense_CSD_IDAC2_DATA_OFFSET));
1436:Generated_Source\PSoC4/CapSense.c **** #endif /* (CapSense_IDAC_CNT == 1u) */
1437:Generated_Source\PSoC4/CapSense.c **** 
1438:Generated_Source\PSoC4/CapSense.c ****     CapSense_CSD_IDAC_REG = newRegValue;
1439:Generated_Source\PSoC4/CapSense.c **** 
1440:Generated_Source\PSoC4/CapSense.c **** #if(CapSense_CMOD_PREGARGE_OPTION == CapSense__CAPPRIOBUF)
1441:Generated_Source\PSoC4/CapSense.c ****     newRegValue = CapSense_CMOD_CONNECTION_REG;
1442:Generated_Source\PSoC4/CapSense.c ****     newRegValue &= ~(CapSense_CSD_CMOD_CONNECTION_MASK);
1443:Generated_Source\PSoC4/CapSense.c ****     newRegValue |= CapSense_CSD_CMOD_TO_AMUXBUS_A;
1444:Generated_Source\PSoC4/CapSense.c ****     CapSense_CMOD_CONNECTION_REG = newRegValue;
1445:Generated_Source\PSoC4/CapSense.c **** 
1446:Generated_Source\PSoC4/CapSense.c ****     newRegValue = CapSense_CMOD_PORT_PC_REG;
1447:Generated_Source\PSoC4/CapSense.c ****     newRegValue &= ~(CapSense_CSD_CMOD_PC_MASK);
1448:Generated_Source\PSoC4/CapSense.c ****     newRegValue |= CapSense_CMOD_PC_HIGH_Z_MODE;
1449:Generated_Source\PSoC4/CapSense.c ****     CapSense_CMOD_PORT_PC_REG = newRegValue;
1450:Generated_Source\PSoC4/CapSense.c **** #endif /* (CapSense_CMOD_PREGARGE_OPTION == CapSense__CAPPRIOBUF) */
1451:Generated_Source\PSoC4/CapSense.c **** 
1452:Generated_Source\PSoC4/CapSense.c ****     /* Disconnect Vref Buffer from AMUX */
1453:Generated_Source\PSoC4/CapSense.c ****     newRegValue = CapSense_CSD_CFG_REG;
1454:Generated_Source\PSoC4/CapSense.c ****     newRegValue &= ~(CapSense_PRECHARGE_CONFIG_MASK);
1455:Generated_Source\PSoC4/CapSense.c ****     newRegValue |= CapSense_CTANK_PRECHARGE_CONFIG;
1456:Generated_Source\PSoC4/CapSense.c **** 
1457:Generated_Source\PSoC4/CapSense.c ****     CyIntEnable(CapSense_ISR_NUMBER);
1458:Generated_Source\PSoC4/CapSense.c **** 
1459:Generated_Source\PSoC4/CapSense.c ****     /* Enable Sensor */
1460:Generated_Source\PSoC4/CapSense.c ****     CapSense_EnableScanSlot(sensor);
1461:Generated_Source\PSoC4/CapSense.c **** 
1462:Generated_Source\PSoC4/CapSense.c ****     interruptState = CyEnterCriticalSection();
1463:Generated_Source\PSoC4/CapSense.c ****     CapSense_CSD_CFG_REG = newRegValue;
1464:Generated_Source\PSoC4/CapSense.c **** 
1465:Generated_Source\PSoC4/CapSense.c ****     /* `#START CapSense_PreSettlingDelay_Debug` */
1466:Generated_Source\PSoC4/CapSense.c **** 
1467:Generated_Source\PSoC4/CapSense.c ****     /* `#END` */
1468:Generated_Source\PSoC4/CapSense.c **** 
1469:Generated_Source\PSoC4/CapSense.c **** #ifdef CapSense_PRE_SCAN_PRE_SETTLING_DELAY_DEBUG_CALLBACK
1470:Generated_Source\PSoC4/CapSense.c ****     CapSense_PreScan_Pre_SettlingDelay_Debug_Callback();
1471:Generated_Source\PSoC4/CapSense.c **** #endif /* CapSense_PRE_SCAN_PRE_SETTLING_DELAY_DEBUG_CALLBACK */
1472:Generated_Source\PSoC4/CapSense.c **** 
1473:Generated_Source\PSoC4/CapSense.c ****     CyDelayCycles(CapSense_GLITCH_ELIMINATION_CYCLES);
1474:Generated_Source\PSoC4/CapSense.c **** 
ARM GAS  C:\Users\ZURUSH~1\AppData\Local\Temp\ccIBvwAy.s 			page 40


1475:Generated_Source\PSoC4/CapSense.c ****     /* `#START CapSense_PreScan_Debug` */
1476:Generated_Source\PSoC4/CapSense.c **** 
1477:Generated_Source\PSoC4/CapSense.c ****     /* `#END` */
1478:Generated_Source\PSoC4/CapSense.c **** 
1479:Generated_Source\PSoC4/CapSense.c **** #ifdef CapSense_PRE_SCAN_DEBUG_CALLBACK
1480:Generated_Source\PSoC4/CapSense.c ****     CapSense_PreScan_Debug_Callback();
1481:Generated_Source\PSoC4/CapSense.c **** #endif /* CapSense_PRE_SCAN_DEBUG_CALLBACK */
1482:Generated_Source\PSoC4/CapSense.c **** 
1483:Generated_Source\PSoC4/CapSense.c ****     CapSense_CSD_CNT_REG = counterResolution;
1484:Generated_Source\PSoC4/CapSense.c ****     CyExitCriticalSection(interruptState);
1485:Generated_Source\PSoC4/CapSense.c **** }
1486:Generated_Source\PSoC4/CapSense.c **** 
1487:Generated_Source\PSoC4/CapSense.c **** 
1488:Generated_Source\PSoC4/CapSense.c **** /*******************************************************************************
1489:Generated_Source\PSoC4/CapSense.c **** * Function Name: CapSense_PostScan
1490:Generated_Source\PSoC4/CapSense.c **** ********************************************************************************
1491:Generated_Source\PSoC4/CapSense.c **** *
1492:Generated_Source\PSoC4/CapSense.c **** * Summary:
1493:Generated_Source\PSoC4/CapSense.c **** *  Stores the results of measurement in the CapSense_sensorRaw[] array,
1494:Generated_Source\PSoC4/CapSense.c **** *  sets the scanning sensor in the non-sampling state, turns off Idac(Current Source IDAC),
1495:Generated_Source\PSoC4/CapSense.c **** *  disconnects the IDAC(Sink mode), and applies Vref on AMUX.
1496:Generated_Source\PSoC4/CapSense.c **** *
1497:Generated_Source\PSoC4/CapSense.c **** * Parameters:
1498:Generated_Source\PSoC4/CapSense.c **** *  sensor:  Sensor number.
1499:Generated_Source\PSoC4/CapSense.c **** *
1500:Generated_Source\PSoC4/CapSense.c **** * Return:
1501:Generated_Source\PSoC4/CapSense.c **** *  None
1502:Generated_Source\PSoC4/CapSense.c **** *
1503:Generated_Source\PSoC4/CapSense.c **** * Global Variables:
1504:Generated_Source\PSoC4/CapSense.c **** *  CapSense_sensorRaw[] - used to store sensors raw data.
1505:Generated_Source\PSoC4/CapSense.c **** *
1506:Generated_Source\PSoC4/CapSense.c **** * Side Effects:
1507:Generated_Source\PSoC4/CapSense.c **** *  None
1508:Generated_Source\PSoC4/CapSense.c **** *
1509:Generated_Source\PSoC4/CapSense.c **** *******************************************************************************/
1510:Generated_Source\PSoC4/CapSense.c **** void CapSense_PostScan(uint32 sensor)
1511:Generated_Source\PSoC4/CapSense.c **** {
1512:Generated_Source\PSoC4/CapSense.c ****     uint32 newRegValue;
1513:Generated_Source\PSoC4/CapSense.c **** #if ((CapSense_TUNING_METHOD == CapSense__TUNING_AUTO) &&\
1514:Generated_Source\PSoC4/CapSense.c ****      (0 != CapSense_IS_OVERSAMPLING_EN))
1515:Generated_Source\PSoC4/CapSense.c ****     uint32 oversamplingFactor;
1516:Generated_Source\PSoC4/CapSense.c ****     uint32 widget;
1517:Generated_Source\PSoC4/CapSense.c **** #endif /* ((CapSense_TUNING_METHOD == CapSense__TUNING_AUTO) &&\
1518:Generated_Source\PSoC4/CapSense.c ****            (0 != CapSense_IS_OVERSAMPLING_EN)) */
1519:Generated_Source\PSoC4/CapSense.c **** 
1520:Generated_Source\PSoC4/CapSense.c ****     /* `#START CapSense_PostScan_Debug` */
1521:Generated_Source\PSoC4/CapSense.c **** 
1522:Generated_Source\PSoC4/CapSense.c ****     /* `#END` */
1523:Generated_Source\PSoC4/CapSense.c **** 
1524:Generated_Source\PSoC4/CapSense.c **** #ifdef CapSense_POST_SCAN_DEBUG_CALLBACK
1525:Generated_Source\PSoC4/CapSense.c ****     CapSense_PostScan_Debug_Callback();
1526:Generated_Source\PSoC4/CapSense.c **** #endif /* CapSense_POST_SCAN_DEBUG_Callback */
1527:Generated_Source\PSoC4/CapSense.c **** 
1528:Generated_Source\PSoC4/CapSense.c ****     /* Read SlotResult from Raw Counter */
1529:Generated_Source\PSoC4/CapSense.c ****     CapSense_sensorRaw[sensor]  = (uint16)CapSense_CSD_CNT_REG;
1530:Generated_Source\PSoC4/CapSense.c **** 
1531:Generated_Source\PSoC4/CapSense.c **** #if ((CapSense_TUNING_METHOD == CapSense__TUNING_AUTO) &&\
ARM GAS  C:\Users\ZURUSH~1\AppData\Local\Temp\ccIBvwAy.s 			page 41


1532:Generated_Source\PSoC4/CapSense.c ****      (0 != CapSense_IS_OVERSAMPLING_EN))
1533:Generated_Source\PSoC4/CapSense.c ****     widget = CapSense_widgetNumber[sensor];
1534:Generated_Source\PSoC4/CapSense.c ****     if(CapSense_widgetResolution[widget] < CapSense_RESOLUTION_16_BITS)
1535:Generated_Source\PSoC4/CapSense.c ****     {
1536:Generated_Source\PSoC4/CapSense.c ****         oversamplingFactor = CapSense_GetBitValue(CapSense_scanSpeedTbl, sensor);
1537:Generated_Source\PSoC4/CapSense.c ****         CapSense_sensorRaw[sensor] >>= oversamplingFactor;
1538:Generated_Source\PSoC4/CapSense.c ****     }
1539:Generated_Source\PSoC4/CapSense.c **** #endif /* ((CapSense_TUNING_METHOD == CapSense__TUNING_AUTO) &&\
1540:Generated_Source\PSoC4/CapSense.c ****            (0 != CapSense_IS_OVERSAMPLING_EN)) */
1541:Generated_Source\PSoC4/CapSense.c **** 
1542:Generated_Source\PSoC4/CapSense.c ****     /* Disable Sensor */
1543:Generated_Source\PSoC4/CapSense.c ****     CapSense_DisableScanSlot(sensor);
1544:Generated_Source\PSoC4/CapSense.c **** 
1545:Generated_Source\PSoC4/CapSense.c ****     CyIntDisable(CapSense_ISR_NUMBER);
1546:Generated_Source\PSoC4/CapSense.c **** 
1547:Generated_Source\PSoC4/CapSense.c **** #if(CapSense_CMOD_PREGARGE_OPTION == CapSense__CAPPRIOBUF)
1548:Generated_Source\PSoC4/CapSense.c ****     newRegValue = CapSense_CMOD_CONNECTION_REG;
1549:Generated_Source\PSoC4/CapSense.c ****     newRegValue &= ~(CapSense_CSD_CMOD_CONNECTION_MASK);
1550:Generated_Source\PSoC4/CapSense.c ****     newRegValue |= CapSense_CSD_CMOD_TO_AMUXBUS_B;
1551:Generated_Source\PSoC4/CapSense.c ****     CapSense_CMOD_CONNECTION_REG = newRegValue;
1552:Generated_Source\PSoC4/CapSense.c **** 
1553:Generated_Source\PSoC4/CapSense.c ****     newRegValue = CapSense_CMOD_PORT_PC_REG;
1554:Generated_Source\PSoC4/CapSense.c ****     newRegValue &= ~(CapSense_CSD_CMOD_PC_MASK);
1555:Generated_Source\PSoC4/CapSense.c ****     newRegValue |= CapSense_CMOD_PC_STRONG_MODE;
1556:Generated_Source\PSoC4/CapSense.c ****     CapSense_CMOD_PORT_PC_REG = newRegValue;
1557:Generated_Source\PSoC4/CapSense.c **** 
1558:Generated_Source\PSoC4/CapSense.c ****     newRegValue = CapSense_CMOD_PORT_DR_REG;
1559:Generated_Source\PSoC4/CapSense.c ****     newRegValue &= ~(CapSense_CMOD_DR_MASK);
1560:Generated_Source\PSoC4/CapSense.c ****     newRegValue |= CapSense_CMOD_DR_CONFIG;
1561:Generated_Source\PSoC4/CapSense.c ****     CapSense_CMOD_PORT_DR_REG = newRegValue;
1562:Generated_Source\PSoC4/CapSense.c **** #endif /* (CapSense_CMOD_PREGARGE_OPTION == CapSense__CAPPRIOBUF) */
1563:Generated_Source\PSoC4/CapSense.c **** 
1564:Generated_Source\PSoC4/CapSense.c ****     /* Connect Vref Buffer to AMUX bus  */
1565:Generated_Source\PSoC4/CapSense.c ****     newRegValue = CapSense_CSD_CFG_REG;
1566:Generated_Source\PSoC4/CapSense.c ****     newRegValue &= ~(CapSense_PRECHARGE_CONFIG_MASK);
1567:Generated_Source\PSoC4/CapSense.c ****     newRegValue |= CapSense_CMOD_PRECHARGE_CONFIG;
1568:Generated_Source\PSoC4/CapSense.c ****     CapSense_CSD_CFG_REG = newRegValue;
1569:Generated_Source\PSoC4/CapSense.c **** 
1570:Generated_Source\PSoC4/CapSense.c ****     /* Set Idac Value = 0 */
1571:Generated_Source\PSoC4/CapSense.c **** #if (CapSense_IDAC_CNT == 1u)
1572:Generated_Source\PSoC4/CapSense.c ****     CapSense_CSD_IDAC_REG &= ~(CapSense_CSD_IDAC1_DATA_MASK);
1573:Generated_Source\PSoC4/CapSense.c **** #else
1574:Generated_Source\PSoC4/CapSense.c ****     CapSense_CSD_IDAC_REG &= ~(CapSense_CSD_IDAC1_DATA_MASK | CapSense_CSD_IDAC2_DATA_MASK);
1575:Generated_Source\PSoC4/CapSense.c **** #endif /* (CapSense_IDAC_CNT == 1u) */
1576:Generated_Source\PSoC4/CapSense.c **** 
1577:Generated_Source\PSoC4/CapSense.c ****     CyIntEnable(CapSense_ISR_NUMBER);
1578:Generated_Source\PSoC4/CapSense.c **** }
1579:Generated_Source\PSoC4/CapSense.c **** 
1580:Generated_Source\PSoC4/CapSense.c **** 
1581:Generated_Source\PSoC4/CapSense.c **** /*******************************************************************************
1582:Generated_Source\PSoC4/CapSense.c **** * Function Name: CapSense_EnableShieldElectrode
1583:Generated_Source\PSoC4/CapSense.c **** ********************************************************************************
1584:Generated_Source\PSoC4/CapSense.c **** *
1585:Generated_Source\PSoC4/CapSense.c **** * Summary:
1586:Generated_Source\PSoC4/CapSense.c **** *  This API enables or disables the shield electrode on a specified port pin.
1587:Generated_Source\PSoC4/CapSense.c **** *
1588:Generated_Source\PSoC4/CapSense.c **** * Parameters:
ARM GAS  C:\Users\ZURUSH~1\AppData\Local\Temp\ccIBvwAy.s 			page 42


1589:Generated_Source\PSoC4/CapSense.c **** *  portNumber: contains the shield electrode port number (0, 1, 2).
1590:Generated_Source\PSoC4/CapSense.c **** *  pinNumber: contains the shield electrode pin number (0, 1, 2, ... , 7).
1591:Generated_Source\PSoC4/CapSense.c **** *
1592:Generated_Source\PSoC4/CapSense.c **** * Return:
1593:Generated_Source\PSoC4/CapSense.c **** *  None
1594:Generated_Source\PSoC4/CapSense.c **** *
1595:Generated_Source\PSoC4/CapSense.c **** * Global Variables:
1596:Generated_Source\PSoC4/CapSense.c **** *  CapSense_prtCfgTbl[] - Contains pointers to the port config registers for each port.
1597:Generated_Source\PSoC4/CapSense.c **** *  CapSense_prtSelTbl[] - Contains pointers to the HSIOM registers for each port.
1598:Generated_Source\PSoC4/CapSense.c **** *
1599:Generated_Source\PSoC4/CapSense.c **** * Side Effects:
1600:Generated_Source\PSoC4/CapSense.c **** *  None
1601:Generated_Source\PSoC4/CapSense.c **** *
1602:Generated_Source\PSoC4/CapSense.c **** *******************************************************************************/
1603:Generated_Source\PSoC4/CapSense.c **** void CapSense_EnableShieldElectrode(uint32 pinNumber, uint32 portNumber)
1604:Generated_Source\PSoC4/CapSense.c **** {
 729              		.loc 1 1604 0
 730              		.cfi_startproc
 731              		@ args = 0, pretend = 0, frame = 0
 732              		@ frame_needed = 0, uses_anonymous_args = 0
 733              	.LVL79:
 734 0000 70B5     		push	{r4, r5, r6, lr}
 735              		.cfi_def_cfa_offset 16
 736              		.cfi_offset 4, -16
 737              		.cfi_offset 5, -12
 738              		.cfi_offset 6, -8
 739              		.cfi_offset 14, -4
1605:Generated_Source\PSoC4/CapSense.c ****     uint32 newRegValue;
1606:Generated_Source\PSoC4/CapSense.c **** 
1607:Generated_Source\PSoC4/CapSense.c ****     *CapSense_prtCfgTbl[portNumber] &= ~(CapSense_CSD_PIN_MODE_MASK << (pinNumber * CapSense_PC_PIN
 740              		.loc 1 1607 0
 741 0002 0B4D     		ldr	r5, .L48
 742 0004 8900     		lsls	r1, r1, #2
 743              	.LVL80:
 744 0006 4E59     		ldr	r6, [r1, r5]
 745 0008 3368     		ldr	r3, [r6]
 746 000a 4400     		lsls	r4, r0, #1
 747 000c 2418     		adds	r4, r4, r0
 748 000e 0722     		movs	r2, #7
 749 0010 A240     		lsls	r2, r2, r4
 750 0012 9343     		bics	r3, r2
 751 0014 3360     		str	r3, [r6]
1608:Generated_Source\PSoC4/CapSense.c ****     newRegValue = *CapSense_prtSelTbl[portNumber];
 752              		.loc 1 1608 0
 753 0016 6918     		adds	r1, r5, r1
 754 0018 4969     		ldr	r1, [r1, #20]
 755 001a 0B68     		ldr	r3, [r1]
 756              	.LVL81:
1609:Generated_Source\PSoC4/CapSense.c ****     newRegValue &= ~(CapSense_CSD_HSIOM_MASK << (pinNumber * CapSense_HSIOM_PIN_CFG_SIZE));
 757              		.loc 1 1609 0
 758 001c 8000     		lsls	r0, r0, #2
 759              	.LVL82:
 760 001e 0F22     		movs	r2, #15
 761 0020 8240     		lsls	r2, r2, r0
 762 0022 9343     		bics	r3, r2
 763              	.LVL83:
 764 0024 1A00     		movs	r2, r3
ARM GAS  C:\Users\ZURUSH~1\AppData\Local\Temp\ccIBvwAy.s 			page 43


 765              	.LVL84:
1610:Generated_Source\PSoC4/CapSense.c ****     newRegValue |= (CapSense_CSD_SHIELD_PORT_MODE << (pinNumber * CapSense_HSIOM_PIN_CFG_SIZE));
 766              		.loc 1 1610 0
 767 0026 0523     		movs	r3, #5
 768 0028 8340     		lsls	r3, r3, r0
 769 002a 1343     		orrs	r3, r2
 770              	.LVL85:
1611:Generated_Source\PSoC4/CapSense.c ****     *CapSense_prtSelTbl[portNumber] = newRegValue;
 771              		.loc 1 1611 0
 772 002c 0B60     		str	r3, [r1]
1612:Generated_Source\PSoC4/CapSense.c **** }
 773              		.loc 1 1612 0
 774              		@ sp needed
 775 002e 70BD     		pop	{r4, r5, r6, pc}
 776              	.L49:
 777              		.align	2
 778              	.L48:
 779 0030 00000000 		.word	.LANCHOR2
 780              		.cfi_endproc
 781              	.LFE54:
 782              		.size	CapSense_EnableShieldElectrode, .-CapSense_EnableShieldElectrode
 783              		.section	.text.CapSense_SetShieldDelay,"ax",%progbits
 784              		.align	2
 785              		.global	CapSense_SetShieldDelay
 786              		.code	16
 787              		.thumb_func
 788              		.type	CapSense_SetShieldDelay, %function
 789              	CapSense_SetShieldDelay:
 790              	.LFB55:
1613:Generated_Source\PSoC4/CapSense.c **** 
1614:Generated_Source\PSoC4/CapSense.c **** 
1615:Generated_Source\PSoC4/CapSense.c **** /*******************************************************************************
1616:Generated_Source\PSoC4/CapSense.c **** * Function Name: CapSense_SetShieldDelay
1617:Generated_Source\PSoC4/CapSense.c **** ********************************************************************************
1618:Generated_Source\PSoC4/CapSense.c **** *
1619:Generated_Source\PSoC4/CapSense.c **** * Summary:
1620:Generated_Source\PSoC4/CapSense.c **** *  This API sets a shield delay.
1621:Generated_Source\PSoC4/CapSense.c **** *
1622:Generated_Source\PSoC4/CapSense.c **** * Parameters:
1623:Generated_Source\PSoC4/CapSense.c **** *  delay:  shield delay value:
1624:Generated_Source\PSoC4/CapSense.c **** *                               0 - no delay
1625:Generated_Source\PSoC4/CapSense.c **** *                               1 - 1 cycle delay
1626:Generated_Source\PSoC4/CapSense.c **** *                               2 - 2 cycles delay
1627:Generated_Source\PSoC4/CapSense.c **** *
1628:Generated_Source\PSoC4/CapSense.c **** * Return:
1629:Generated_Source\PSoC4/CapSense.c **** *  None
1630:Generated_Source\PSoC4/CapSense.c **** *
1631:Generated_Source\PSoC4/CapSense.c **** * Global Variables:
1632:Generated_Source\PSoC4/CapSense.c **** *  None
1633:Generated_Source\PSoC4/CapSense.c **** *
1634:Generated_Source\PSoC4/CapSense.c **** * Side Effects:
1635:Generated_Source\PSoC4/CapSense.c **** *  None
1636:Generated_Source\PSoC4/CapSense.c **** *
1637:Generated_Source\PSoC4/CapSense.c **** *******************************************************************************/
1638:Generated_Source\PSoC4/CapSense.c **** void CapSense_SetShieldDelay(uint32 delay)
1639:Generated_Source\PSoC4/CapSense.c **** {
 791              		.loc 1 1639 0
ARM GAS  C:\Users\ZURUSH~1\AppData\Local\Temp\ccIBvwAy.s 			page 44


 792              		.cfi_startproc
 793              		@ args = 0, pretend = 0, frame = 0
 794              		@ frame_needed = 0, uses_anonymous_args = 0
 795              		@ link register save eliminated.
 796              	.LVL86:
1640:Generated_Source\PSoC4/CapSense.c ****     uint32 newRegValue;
1641:Generated_Source\PSoC4/CapSense.c **** 
1642:Generated_Source\PSoC4/CapSense.c ****     delay &= 0x03u;
1643:Generated_Source\PSoC4/CapSense.c **** 
1644:Generated_Source\PSoC4/CapSense.c ****     newRegValue = CapSense_CSD_CFG_REG;
 797              		.loc 1 1644 0
 798 0000 044A     		ldr	r2, .L51
 799 0002 1168     		ldr	r1, [r2]
 800              	.LVL87:
1645:Generated_Source\PSoC4/CapSense.c ****     newRegValue &= (uint32)(~(uint32)CapSense_SHIELD_DELAY);
1646:Generated_Source\PSoC4/CapSense.c ****     newRegValue |= (delay << CapSense_CSD_CFG_SHIELD_DELAY_POS);
 801              		.loc 1 1646 0
 802 0004 4002     		lsls	r0, r0, #9
 803              	.LVL88:
 804 0006 C023     		movs	r3, #192
 805 0008 DB00     		lsls	r3, r3, #3
 806 000a 1840     		ands	r0, r3
 807 000c 0843     		orrs	r0, r1
 808              	.LVL89:
1647:Generated_Source\PSoC4/CapSense.c ****     CapSense_CSD_CFG_REG = newRegValue;
 809              		.loc 1 1647 0
 810 000e 1060     		str	r0, [r2]
1648:Generated_Source\PSoC4/CapSense.c **** }
 811              		.loc 1 1648 0
 812              		@ sp needed
 813 0010 7047     		bx	lr
 814              	.L52:
 815 0012 C046     		.align	2
 816              	.L51:
 817 0014 04000840 		.word	1074266116
 818              		.cfi_endproc
 819              	.LFE55:
 820              		.size	CapSense_SetShieldDelay, .-CapSense_SetShieldDelay
 821              		.section	.text.CapSense_ReadCurrentScanningSensor,"ax",%progbits
 822              		.align	2
 823              		.global	CapSense_ReadCurrentScanningSensor
 824              		.code	16
 825              		.thumb_func
 826              		.type	CapSense_ReadCurrentScanningSensor, %function
 827              	CapSense_ReadCurrentScanningSensor:
 828              	.LFB56:
1649:Generated_Source\PSoC4/CapSense.c **** 
1650:Generated_Source\PSoC4/CapSense.c **** 
1651:Generated_Source\PSoC4/CapSense.c **** /*******************************************************************************
1652:Generated_Source\PSoC4/CapSense.c **** * Function Name: CapSense_ReadCurrentScanningSensor
1653:Generated_Source\PSoC4/CapSense.c **** ********************************************************************************
1654:Generated_Source\PSoC4/CapSense.c **** *
1655:Generated_Source\PSoC4/CapSense.c **** * Summary:
1656:Generated_Source\PSoC4/CapSense.c **** *  This API returns scanning sensor number when sensor scan is in progress.
1657:Generated_Source\PSoC4/CapSense.c **** *  When sensor scan is completed the API returns
1658:Generated_Source\PSoC4/CapSense.c **** *  $INSTANCE_NAME`_NOT_SENSOR (0xFFFFFFFF) (when no sensor is scanned).
1659:Generated_Source\PSoC4/CapSense.c **** *
ARM GAS  C:\Users\ZURUSH~1\AppData\Local\Temp\ccIBvwAy.s 			page 45


1660:Generated_Source\PSoC4/CapSense.c **** * Parameters:
1661:Generated_Source\PSoC4/CapSense.c **** *   None.
1662:Generated_Source\PSoC4/CapSense.c **** *
1663:Generated_Source\PSoC4/CapSense.c **** * Return:
1664:Generated_Source\PSoC4/CapSense.c **** *  Returns Sensor number if sensor is being scanned and
1665:Generated_Source\PSoC4/CapSense.c **** *  $INSTANCE_NAME`_NOT_SENSOR (0xFFFFFFFF) if scanning is complete.
1666:Generated_Source\PSoC4/CapSense.c **** *
1667:Generated_Source\PSoC4/CapSense.c **** * Global Variables:
1668:Generated_Source\PSoC4/CapSense.c **** *  CapSense_sensorIndex - the sensor number is being scanned.
1669:Generated_Source\PSoC4/CapSense.c **** *
1670:Generated_Source\PSoC4/CapSense.c **** * Side Effects:
1671:Generated_Source\PSoC4/CapSense.c **** *  None
1672:Generated_Source\PSoC4/CapSense.c **** *
1673:Generated_Source\PSoC4/CapSense.c **** *******************************************************************************/
1674:Generated_Source\PSoC4/CapSense.c **** uint32 CapSense_ReadCurrentScanningSensor(void)
1675:Generated_Source\PSoC4/CapSense.c **** {
 829              		.loc 1 1675 0
 830              		.cfi_startproc
 831              		@ args = 0, pretend = 0, frame = 0
 832              		@ frame_needed = 0, uses_anonymous_args = 0
 833              		@ link register save eliminated.
1676:Generated_Source\PSoC4/CapSense.c ****     return ((uint32)(( 0u != (CapSense_csdStatusVar & CapSense_SW_STS_BUSY)) ?
 834              		.loc 1 1676 0
 835 0000 054B     		ldr	r3, .L56
 836 0002 1B78     		ldrb	r3, [r3]
 837 0004 DB07     		lsls	r3, r3, #31
 838 0006 03D5     		bpl	.L55
 839              		.loc 1 1676 0 is_stmt 0 discriminator 1
 840 0008 034B     		ldr	r3, .L56
 841 000a 9879     		ldrb	r0, [r3, #6]
 842 000c C0B2     		uxtb	r0, r0
 843 000e 01E0     		b	.L54
 844              	.L55:
 845              		.loc 1 1676 0
 846 0010 0120     		movs	r0, #1
 847 0012 4042     		rsbs	r0, r0, #0
 848              	.L54:
1677:Generated_Source\PSoC4/CapSense.c ****                      CapSense_sensorIndex : CapSense_NOT_SENSOR));
1678:Generated_Source\PSoC4/CapSense.c **** }
 849              		.loc 1 1678 0 is_stmt 1 discriminator 4
 850              		@ sp needed
 851 0014 7047     		bx	lr
 852              	.L57:
 853 0016 C046     		.align	2
 854              	.L56:
 855 0018 00000000 		.word	.LANCHOR0
 856              		.cfi_endproc
 857              	.LFE56:
 858              		.size	CapSense_ReadCurrentScanningSensor, .-CapSense_ReadCurrentScanningSensor
 859              		.section	.text.CapSense_GetBitValue,"ax",%progbits
 860              		.align	2
 861              		.global	CapSense_GetBitValue
 862              		.code	16
 863              		.thumb_func
 864              		.type	CapSense_GetBitValue, %function
 865              	CapSense_GetBitValue:
 866              	.LFB57:
ARM GAS  C:\Users\ZURUSH~1\AppData\Local\Temp\ccIBvwAy.s 			page 46


1679:Generated_Source\PSoC4/CapSense.c **** 
1680:Generated_Source\PSoC4/CapSense.c **** 
1681:Generated_Source\PSoC4/CapSense.c **** /*******************************************************************************
1682:Generated_Source\PSoC4/CapSense.c **** * Function Name: CapSense_GetBitValue
1683:Generated_Source\PSoC4/CapSense.c **** ********************************************************************************
1684:Generated_Source\PSoC4/CapSense.c **** *
1685:Generated_Source\PSoC4/CapSense.c **** * Summary:
1686:Generated_Source\PSoC4/CapSense.c **** *  The API returns a bit status of the bit in the table array which contains the masks.
1687:Generated_Source\PSoC4/CapSense.c **** *
1688:Generated_Source\PSoC4/CapSense.c **** * Parameters:
1689:Generated_Source\PSoC4/CapSense.c **** *  table[] - array with bit masks.
1690:Generated_Source\PSoC4/CapSense.c **** *  position - position of bit in the table[] array.
1691:Generated_Source\PSoC4/CapSense.c **** *
1692:Generated_Source\PSoC4/CapSense.c **** * Return:
1693:Generated_Source\PSoC4/CapSense.c **** *  0 - bit is not set; 1 - bit is set.
1694:Generated_Source\PSoC4/CapSense.c **** *
1695:Generated_Source\PSoC4/CapSense.c **** * Global Variables:
1696:Generated_Source\PSoC4/CapSense.c **** *  None
1697:Generated_Source\PSoC4/CapSense.c **** *
1698:Generated_Source\PSoC4/CapSense.c **** * Side Effects:
1699:Generated_Source\PSoC4/CapSense.c **** *  None
1700:Generated_Source\PSoC4/CapSense.c **** *
1701:Generated_Source\PSoC4/CapSense.c **** *******************************************************************************/
1702:Generated_Source\PSoC4/CapSense.c **** uint32 CapSense_GetBitValue(const uint8 table[], uint32 position)
1703:Generated_Source\PSoC4/CapSense.c **** {
 867              		.loc 1 1703 0
 868              		.cfi_startproc
 869              		@ args = 0, pretend = 0, frame = 0
 870              		@ frame_needed = 0, uses_anonymous_args = 0
 871              		@ link register save eliminated.
 872              	.LVL90:
1704:Generated_Source\PSoC4/CapSense.c ****     uint32 offset;
1705:Generated_Source\PSoC4/CapSense.c ****     uint8 enMask;
1706:Generated_Source\PSoC4/CapSense.c **** 
1707:Generated_Source\PSoC4/CapSense.c ****     /* position is divided by 8 to calculate the element of the
1708:Generated_Source\PSoC4/CapSense.c ****        table[] array that contains the enable bit
1709:Generated_Source\PSoC4/CapSense.c ****        for an appropriate sensor.
1710:Generated_Source\PSoC4/CapSense.c ****     */
1711:Generated_Source\PSoC4/CapSense.c ****     offset = (position >> 3u);
 873              		.loc 1 1711 0
 874 0000 CA08     		lsrs	r2, r1, #3
 875              	.LVL91:
1712:Generated_Source\PSoC4/CapSense.c **** 
1713:Generated_Source\PSoC4/CapSense.c ****     /* The enMask calculation for the appropriate sensor. Operation (position & 0x07u)
1714:Generated_Source\PSoC4/CapSense.c ****        intends to calculate the enable bit offset for the 8-bit element of the
1715:Generated_Source\PSoC4/CapSense.c ****        table[] array.
1716:Generated_Source\PSoC4/CapSense.c ****     */
1717:Generated_Source\PSoC4/CapSense.c ****     enMask = 0x01u << (position & 0x07u);
 876              		.loc 1 1717 0
 877 0002 0723     		movs	r3, #7
 878 0004 1940     		ands	r1, r3
 879              	.LVL92:
 880 0006 063B     		subs	r3, r3, #6
 881 0008 8B40     		lsls	r3, r3, r1
 882              	.LVL93:
1718:Generated_Source\PSoC4/CapSense.c **** 
1719:Generated_Source\PSoC4/CapSense.c ****     return ((0u !=(table[offset] & enMask)) ? 1Lu : 0Lu);
ARM GAS  C:\Users\ZURUSH~1\AppData\Local\Temp\ccIBvwAy.s 			page 47


 883              		.loc 1 1719 0
 884 000a 825C     		ldrb	r2, [r0, r2]
 885              	.LVL94:
 886 000c 1342     		tst	r3, r2
 887 000e 01D0     		beq	.L60
 888 0010 0120     		movs	r0, #1
 889              	.LVL95:
 890 0012 00E0     		b	.L59
 891              	.LVL96:
 892              	.L60:
 893 0014 0020     		movs	r0, #0
 894              	.LVL97:
 895              	.L59:
1720:Generated_Source\PSoC4/CapSense.c **** }
 896              		.loc 1 1720 0 discriminator 4
 897              		@ sp needed
 898 0016 7047     		bx	lr
 899              		.cfi_endproc
 900              	.LFE57:
 901              		.size	CapSense_GetBitValue, .-CapSense_GetBitValue
 902              		.section	.text.CapSense_FindNextSensor,"ax",%progbits
 903              		.align	2
 904              		.global	CapSense_FindNextSensor
 905              		.code	16
 906              		.thumb_func
 907              		.type	CapSense_FindNextSensor, %function
 908              	CapSense_FindNextSensor:
 909              	.LFB37:
 485:Generated_Source\PSoC4/CapSense.c ****     uint32 enableFlag;
 910              		.loc 1 485 0
 911              		.cfi_startproc
 912              		@ args = 0, pretend = 0, frame = 0
 913              		@ frame_needed = 0, uses_anonymous_args = 0
 914              	.LVL98:
 915 0000 10B5     		push	{r4, lr}
 916              		.cfi_def_cfa_offset 8
 917              		.cfi_offset 4, -8
 918              		.cfi_offset 14, -4
 919 0002 0400     		movs	r4, r0
 920              	.LVL99:
 921              	.L63:
 492:Generated_Source\PSoC4/CapSense.c ****         if(snsIndex == CapSense_TOTAL_SENSOR_COUNT)
 922              		.loc 1 492 0
 923 0004 0134     		adds	r4, r4, #1
 924              	.LVL100:
 925 0006 E4B2     		uxtb	r4, r4
 926              	.LVL101:
 493:Generated_Source\PSoC4/CapSense.c ****         {
 927              		.loc 1 493 0
 928 0008 012C     		cmp	r4, #1
 929 000a 06D0     		beq	.L62
 497:Generated_Source\PSoC4/CapSense.c ****     }
 930              		.loc 1 497 0
 931 000c 2100     		movs	r1, r4
 932 000e 0448     		ldr	r0, .L64
 933 0010 0430     		adds	r0, r0, #4
 934 0012 FFF7FEFF 		bl	CapSense_GetBitValue
ARM GAS  C:\Users\ZURUSH~1\AppData\Local\Temp\ccIBvwAy.s 			page 48


 935              	.LVL102:
 499:Generated_Source\PSoC4/CapSense.c **** 
 936              		.loc 1 499 0
 937 0016 0028     		cmp	r0, #0
 938 0018 F4D0     		beq	.L63
 939              	.LVL103:
 940              	.L62:
 502:Generated_Source\PSoC4/CapSense.c **** 
 941              		.loc 1 502 0
 942 001a 2000     		movs	r0, r4
 943              		@ sp needed
 944              	.LVL104:
 945 001c 10BD     		pop	{r4, pc}
 946              	.L65:
 947 001e C046     		.align	2
 948              	.L64:
 949 0020 00000000 		.word	.LANCHOR1
 950              		.cfi_endproc
 951              	.LFE37:
 952              		.size	CapSense_FindNextSensor, .-CapSense_FindNextSensor
 953              		.section	.text.CapSense_PreScan,"ax",%progbits
 954              		.align	2
 955              		.global	CapSense_PreScan
 956              		.code	16
 957              		.thumb_func
 958              		.type	CapSense_PreScan, %function
 959              	CapSense_PreScan:
 960              	.LFB52:
1314:Generated_Source\PSoC4/CapSense.c ****     uint8 widget;
 961              		.loc 1 1314 0
 962              		.cfi_startproc
 963              		@ args = 0, pretend = 0, frame = 0
 964              		@ frame_needed = 0, uses_anonymous_args = 0
 965              	.LVL105:
 966 0000 F8B5     		push	{r3, r4, r5, r6, r7, lr}
 967              		.cfi_def_cfa_offset 24
 968              		.cfi_offset 3, -24
 969              		.cfi_offset 4, -20
 970              		.cfi_offset 5, -16
 971              		.cfi_offset 6, -12
 972              		.cfi_offset 7, -8
 973              		.cfi_offset 14, -4
 974 0002 0400     		movs	r4, r0
 975              	.LVL106:
1335:Generated_Source\PSoC4/CapSense.c **** 
 976              		.loc 1 1335 0
 977 0004 214B     		ldr	r3, .L68
 978 0006 1E68     		ldr	r6, [r3]
 979              	.LVL107:
1339:Generated_Source\PSoC4/CapSense.c **** 
 980              		.loc 1 1339 0
 981 0008 0100     		movs	r1, r0
 982 000a 2148     		ldr	r0, .L68+4
 983              	.LVL108:
 984 000c FFF7FEFF 		bl	CapSense_GetBitValue
 985              	.LVL109:
1341:Generated_Source\PSoC4/CapSense.c ****         {
ARM GAS  C:\Users\ZURUSH~1\AppData\Local\Temp\ccIBvwAy.s 			page 49


 986              		.loc 1 1341 0
 987 0010 204B     		ldr	r3, .L68+8
 988 0012 9E42     		cmp	r6, r3
 989 0014 03D8     		bhi	.L67
1343:Generated_Source\PSoC4/CapSense.c ****             counterResolution |= (uint32)(CapSense_RESOLUTION_8_BITS);
 990              		.loc 1 1343 0
 991 0016 8640     		lsls	r6, r6, r0
 992              	.LVL110:
1344:Generated_Source\PSoC4/CapSense.c ****         }
 993              		.loc 1 1344 0
 994 0018 FF23     		movs	r3, #255
 995 001a 1B04     		lsls	r3, r3, #16
 996 001c 1E43     		orrs	r6, r3
 997              	.LVL111:
 998              	.L67:
1355:Generated_Source\PSoC4/CapSense.c ****         CapSense_SenseClk_SetDividerValue((uint16)CapSense_senseClkDividerVal[sensor]);
 999              		.loc 1 1355 0
 1000 001e 1E4B     		ldr	r3, .L68+12
 1001 0020 185D     		ldrb	r0, [r3, r4]
 1002              	.LVL112:
 1003 0022 0138     		subs	r0, r0, #1
 1004 0024 80B2     		uxth	r0, r0
 1005 0026 0021     		movs	r1, #0
 1006 0028 FFF7FEFF 		bl	CapSense_SampleClk_SetFractionalDividerRegister
 1007              	.LVL113:
1356:Generated_Source\PSoC4/CapSense.c ****     #else
 1008              		.loc 1 1356 0
 1009 002c 1B4B     		ldr	r3, .L68+16
 1010 002e 185D     		ldrb	r0, [r3, r4]
 1011 0030 0138     		subs	r0, r0, #1
 1012 0032 80B2     		uxth	r0, r0
 1013 0034 0021     		movs	r1, #0
 1014 0036 FFF7FEFF 		bl	CapSense_SenseClk_SetFractionalDividerRegister
 1015              	.LVL114:
1425:Generated_Source\PSoC4/CapSense.c ****     newRegValue = CapSense_CSD_IDAC_REG;
 1016              		.loc 1 1425 0
 1017 003a 0F20     		movs	r0, #15
 1018 003c FFF7FEFF 		bl	CyIntDisable
 1019              	.LVL115:
1426:Generated_Source\PSoC4/CapSense.c **** 
 1020              		.loc 1 1426 0
 1021 0040 1748     		ldr	r0, .L68+20
 1022 0042 0168     		ldr	r1, [r0]
 1023              	.LVL116:
1432:Generated_Source\PSoC4/CapSense.c ****     newRegValue |= (CapSense_modulationIDAC[sensor] |
 1024              		.loc 1 1432 0
 1025 0044 174B     		ldr	r3, .L68+24
 1026 0046 1940     		ands	r1, r3
 1027              	.LVL117:
1433:Generated_Source\PSoC4/CapSense.c ****                             (uint32)((uint32)CapSense_compensationIDAC[sensor] <<
 1028              		.loc 1 1433 0
 1029 0048 174B     		ldr	r3, .L68+28
 1030 004a 1B5D     		ldrb	r3, [r3, r4]
1434:Generated_Source\PSoC4/CapSense.c ****                             CapSense_CSD_IDAC2_DATA_OFFSET));
 1031              		.loc 1 1434 0
 1032 004c 174A     		ldr	r2, .L68+32
 1033 004e 125D     		ldrb	r2, [r2, r4]
ARM GAS  C:\Users\ZURUSH~1\AppData\Local\Temp\ccIBvwAy.s 			page 50


 1034 0050 1204     		lsls	r2, r2, #16
1433:Generated_Source\PSoC4/CapSense.c ****                             (uint32)((uint32)CapSense_compensationIDAC[sensor] <<
 1035              		.loc 1 1433 0
 1036 0052 1343     		orrs	r3, r2
 1037 0054 0B43     		orrs	r3, r1
 1038              	.LVL118:
1438:Generated_Source\PSoC4/CapSense.c **** 
 1039              		.loc 1 1438 0
 1040 0056 0360     		str	r3, [r0]
1453:Generated_Source\PSoC4/CapSense.c ****     newRegValue &= ~(CapSense_PRECHARGE_CONFIG_MASK);
 1041              		.loc 1 1453 0
 1042 0058 154F     		ldr	r7, .L68+36
 1043 005a 3D68     		ldr	r5, [r7]
 1044              	.LVL119:
1454:Generated_Source\PSoC4/CapSense.c ****     newRegValue |= CapSense_CTANK_PRECHARGE_CONFIG;
 1045              		.loc 1 1454 0
 1046 005c 154B     		ldr	r3, .L68+40
 1047 005e 1D40     		ands	r5, r3
 1048              	.LVL120:
1455:Generated_Source\PSoC4/CapSense.c **** 
 1049              		.loc 1 1455 0
 1050 0060 154B     		ldr	r3, .L68+44
 1051 0062 1D43     		orrs	r5, r3
 1052              	.LVL121:
1457:Generated_Source\PSoC4/CapSense.c **** 
 1053              		.loc 1 1457 0
 1054 0064 0F20     		movs	r0, #15
 1055 0066 FFF7FEFF 		bl	CyIntEnable
 1056              	.LVL122:
1460:Generated_Source\PSoC4/CapSense.c **** 
 1057              		.loc 1 1460 0
 1058 006a 2000     		movs	r0, r4
 1059 006c FFF7FEFF 		bl	CapSense_EnableSensor
 1060              	.LVL123:
1462:Generated_Source\PSoC4/CapSense.c ****     CapSense_CSD_CFG_REG = newRegValue;
 1061              		.loc 1 1462 0
 1062 0070 FFF7FEFF 		bl	CyEnterCriticalSection
 1063              	.LVL124:
 1064 0074 0400     		movs	r4, r0
 1065              	.LVL125:
1463:Generated_Source\PSoC4/CapSense.c **** 
 1066              		.loc 1 1463 0
 1067 0076 3D60     		str	r5, [r7]
1473:Generated_Source\PSoC4/CapSense.c **** 
 1068              		.loc 1 1473 0
 1069 0078 0020     		movs	r0, #0
 1070 007a FFF7FEFF 		bl	CyDelayCycles
 1071              	.LVL126:
1483:Generated_Source\PSoC4/CapSense.c ****     CyExitCriticalSection(interruptState);
 1072              		.loc 1 1483 0
 1073 007e 0F4B     		ldr	r3, .L68+48
 1074 0080 1E60     		str	r6, [r3]
1484:Generated_Source\PSoC4/CapSense.c **** }
 1075              		.loc 1 1484 0
 1076 0082 2000     		movs	r0, r4
 1077 0084 FFF7FEFF 		bl	CyExitCriticalSection
 1078              	.LVL127:
ARM GAS  C:\Users\ZURUSH~1\AppData\Local\Temp\ccIBvwAy.s 			page 51


1485:Generated_Source\PSoC4/CapSense.c **** 
 1079              		.loc 1 1485 0
 1080              		@ sp needed
 1081              	.LVL128:
 1082              	.LVL129:
 1083              	.LVL130:
 1084 0088 F8BD     		pop	{r3, r4, r5, r6, r7, pc}
 1085              	.L69:
 1086 008a C046     		.align	2
 1087              	.L68:
 1088 008c 00000000 		.word	.LANCHOR1
 1089 0090 00000000 		.word	CapSense_scanSpeedTbl
 1090 0094 FFFFFEFF 		.word	-65537
 1091 0098 00000000 		.word	CapSense_sampleClkDividerVal
 1092 009c 00000000 		.word	CapSense_senseClkDividerVal
 1093 00a0 08000840 		.word	1074266120
 1094 00a4 00FF80FF 		.word	-8323328
 1095 00a8 00000000 		.word	CapSense_modulationIDAC
 1096 00ac 00000000 		.word	CapSense_compensationIDAC
 1097 00b0 04000840 		.word	1074266116
 1098 00b4 FF1FDFFF 		.word	-2154497
 1099 00b8 20002000 		.word	2097184
 1100 00bc 0C000840 		.word	1074266124
 1101              		.cfi_endproc
 1102              	.LFE52:
 1103              		.size	CapSense_PreScan, .-CapSense_PreScan
 1104              		.section	.text.CapSense_ScanSensor,"ax",%progbits
 1105              		.align	2
 1106              		.global	CapSense_ScanSensor
 1107              		.code	16
 1108              		.thumb_func
 1109              		.type	CapSense_ScanSensor, %function
 1110              	CapSense_ScanSensor:
 1111              	.LFB38:
 533:Generated_Source\PSoC4/CapSense.c ****     /* Clears status/control variable and set sensorIndex */
 1112              		.loc 1 533 0
 1113              		.cfi_startproc
 1114              		@ args = 0, pretend = 0, frame = 0
 1115              		@ frame_needed = 0, uses_anonymous_args = 0
 1116              	.LVL131:
 1117 0000 10B5     		push	{r4, lr}
 1118              		.cfi_def_cfa_offset 8
 1119              		.cfi_offset 4, -8
 1120              		.cfi_offset 14, -4
 535:Generated_Source\PSoC4/CapSense.c ****     CapSense_sensorIndex = (uint8)sensor;
 1121              		.loc 1 535 0
 1122 0002 054B     		ldr	r3, .L71
 1123 0004 0022     		movs	r2, #0
 1124 0006 1A70     		strb	r2, [r3]
 536:Generated_Source\PSoC4/CapSense.c **** 
 1125              		.loc 1 536 0
 1126 0008 C2B2     		uxtb	r2, r0
 1127 000a 9A71     		strb	r2, [r3, #6]
 539:Generated_Source\PSoC4/CapSense.c ****     CapSense_PreScan(sensor);
 1128              		.loc 1 539 0
 1129 000c 8122     		movs	r2, #129
 1130 000e 1A70     		strb	r2, [r3]
ARM GAS  C:\Users\ZURUSH~1\AppData\Local\Temp\ccIBvwAy.s 			page 52


 540:Generated_Source\PSoC4/CapSense.c **** }
 1131              		.loc 1 540 0
 1132 0010 FFF7FEFF 		bl	CapSense_PreScan
 1133              	.LVL132:
 541:Generated_Source\PSoC4/CapSense.c **** 
 1134              		.loc 1 541 0
 1135              		@ sp needed
 1136 0014 10BD     		pop	{r4, pc}
 1137              	.L72:
 1138 0016 C046     		.align	2
 1139              	.L71:
 1140 0018 00000000 		.word	.LANCHOR0
 1141              		.cfi_endproc
 1142              	.LFE38:
 1143              		.size	CapSense_ScanSensor, .-CapSense_ScanSensor
 1144              		.section	.text.CapSense_ScanEnabledWidgets,"ax",%progbits
 1145              		.align	2
 1146              		.global	CapSense_ScanEnabledWidgets
 1147              		.code	16
 1148              		.thumb_func
 1149              		.type	CapSense_ScanEnabledWidgets, %function
 1150              	CapSense_ScanEnabledWidgets:
 1151              	.LFB40:
 657:Generated_Source\PSoC4/CapSense.c ****     /* Clears status/control variable and set sensorIndex */
 1152              		.loc 1 657 0
 1153              		.cfi_startproc
 1154              		@ args = 0, pretend = 0, frame = 0
 1155              		@ frame_needed = 0, uses_anonymous_args = 0
 1156 0000 10B5     		push	{r4, lr}
 1157              		.cfi_def_cfa_offset 8
 1158              		.cfi_offset 4, -8
 1159              		.cfi_offset 14, -4
 659:Generated_Source\PSoC4/CapSense.c ****     CapSense_sensorIndex = 0xFFu;
 1160              		.loc 1 659 0
 1161 0002 0B4C     		ldr	r4, .L75
 1162 0004 0023     		movs	r3, #0
 1163 0006 2370     		strb	r3, [r4]
 660:Generated_Source\PSoC4/CapSense.c **** 
 1164              		.loc 1 660 0
 1165 0008 FF33     		adds	r3, r3, #255
 1166 000a A371     		strb	r3, [r4, #6]
 663:Generated_Source\PSoC4/CapSense.c **** 
 1167              		.loc 1 663 0
 1168 000c A079     		ldrb	r0, [r4, #6]
 1169 000e C0B2     		uxtb	r0, r0
 1170 0010 FFF7FEFF 		bl	CapSense_FindNextSensor
 1171              	.LVL133:
 1172 0014 A071     		strb	r0, [r4, #6]
 666:Generated_Source\PSoC4/CapSense.c ****     {
 1173              		.loc 1 666 0
 1174 0016 A379     		ldrb	r3, [r4, #6]
 1175 0018 002B     		cmp	r3, #0
 1176 001a 08D1     		bne	.L73
 668:Generated_Source\PSoC4/CapSense.c ****         CapSense_PreScan((uint32)CapSense_sensorIndex);
 1177              		.loc 1 668 0
 1178 001c 2178     		ldrb	r1, [r4]
 1179 001e 0123     		movs	r3, #1
ARM GAS  C:\Users\ZURUSH~1\AppData\Local\Temp\ccIBvwAy.s 			page 53


 1180 0020 0B43     		orrs	r3, r1
 1181 0022 DBB2     		uxtb	r3, r3
 1182 0024 2370     		strb	r3, [r4]
 669:Generated_Source\PSoC4/CapSense.c ****     }
 1183              		.loc 1 669 0
 1184 0026 A079     		ldrb	r0, [r4, #6]
 1185 0028 C0B2     		uxtb	r0, r0
 1186 002a FFF7FEFF 		bl	CapSense_PreScan
 1187              	.LVL134:
 1188              	.L73:
 671:Generated_Source\PSoC4/CapSense.c **** 
 1189              		.loc 1 671 0
 1190              		@ sp needed
 1191 002e 10BD     		pop	{r4, pc}
 1192              	.L76:
 1193              		.align	2
 1194              	.L75:
 1195 0030 00000000 		.word	.LANCHOR0
 1196              		.cfi_endproc
 1197              	.LFE40:
 1198              		.size	CapSense_ScanEnabledWidgets, .-CapSense_ScanEnabledWidgets
 1199              		.section	.text.CapSense_PostScan,"ax",%progbits
 1200              		.align	2
 1201              		.global	CapSense_PostScan
 1202              		.code	16
 1203              		.thumb_func
 1204              		.type	CapSense_PostScan, %function
 1205              	CapSense_PostScan:
 1206              	.LFB53:
1511:Generated_Source\PSoC4/CapSense.c ****     uint32 newRegValue;
 1207              		.loc 1 1511 0
 1208              		.cfi_startproc
 1209              		@ args = 0, pretend = 0, frame = 0
 1210              		@ frame_needed = 0, uses_anonymous_args = 0
 1211              	.LVL135:
 1212 0000 70B5     		push	{r4, r5, r6, lr}
 1213              		.cfi_def_cfa_offset 16
 1214              		.cfi_offset 4, -16
 1215              		.cfi_offset 5, -12
 1216              		.cfi_offset 6, -8
 1217              		.cfi_offset 14, -4
 1218 0002 0500     		movs	r5, r0
1529:Generated_Source\PSoC4/CapSense.c **** 
 1219              		.loc 1 1529 0
 1220 0004 154B     		ldr	r3, .L79
 1221 0006 1C68     		ldr	r4, [r3]
 1222 0008 A4B2     		uxth	r4, r4
 1223 000a 4300     		lsls	r3, r0, #1
 1224 000c 144A     		ldr	r2, .L79+4
 1225 000e D318     		adds	r3, r2, r3
 1226 0010 9C80     		strh	r4, [r3, #4]
 1227              	.LVL136:
1534:Generated_Source\PSoC4/CapSense.c ****     {
 1228              		.loc 1 1534 0
 1229 0012 144B     		ldr	r3, .L79+8
 1230 0014 1A68     		ldr	r2, [r3]
 1231 0016 144B     		ldr	r3, .L79+12
ARM GAS  C:\Users\ZURUSH~1\AppData\Local\Temp\ccIBvwAy.s 			page 54


 1232 0018 9A42     		cmp	r2, r3
 1233 001a 08D8     		bhi	.L78
1536:Generated_Source\PSoC4/CapSense.c ****         CapSense_sensorRaw[sensor] >>= oversamplingFactor;
 1234              		.loc 1 1536 0
 1235 001c 0100     		movs	r1, r0
 1236 001e 1348     		ldr	r0, .L79+16
 1237              	.LVL137:
 1238 0020 FFF7FEFF 		bl	CapSense_GetBitValue
 1239              	.LVL138:
1537:Generated_Source\PSoC4/CapSense.c ****     }
 1240              		.loc 1 1537 0
 1241 0024 6B00     		lsls	r3, r5, #1
 1242 0026 0E4A     		ldr	r2, .L79+4
 1243 0028 D318     		adds	r3, r2, r3
 1244 002a 0441     		asrs	r4, r4, r0
 1245 002c 9C80     		strh	r4, [r3, #4]
 1246              	.LVL139:
 1247              	.L78:
1543:Generated_Source\PSoC4/CapSense.c **** 
 1248              		.loc 1 1543 0
 1249 002e 2800     		movs	r0, r5
 1250 0030 FFF7FEFF 		bl	CapSense_DisableSensor
 1251              	.LVL140:
1545:Generated_Source\PSoC4/CapSense.c **** 
 1252              		.loc 1 1545 0
 1253 0034 0F20     		movs	r0, #15
 1254 0036 FFF7FEFF 		bl	CyIntDisable
 1255              	.LVL141:
1565:Generated_Source\PSoC4/CapSense.c ****     newRegValue &= ~(CapSense_PRECHARGE_CONFIG_MASK);
 1256              		.loc 1 1565 0
 1257 003a 0D4A     		ldr	r2, .L79+20
 1258 003c 1168     		ldr	r1, [r2]
 1259              	.LVL142:
1566:Generated_Source\PSoC4/CapSense.c ****     newRegValue |= CapSense_CMOD_PRECHARGE_CONFIG;
 1260              		.loc 1 1566 0
 1261 003e 0D4B     		ldr	r3, .L79+24
 1262 0040 0B40     		ands	r3, r1
 1263              	.LVL143:
1567:Generated_Source\PSoC4/CapSense.c ****     CapSense_CSD_CFG_REG = newRegValue;
 1264              		.loc 1 1567 0
 1265 0042 A021     		movs	r1, #160
 1266 0044 0902     		lsls	r1, r1, #8
 1267 0046 0B43     		orrs	r3, r1
 1268              	.LVL144:
1568:Generated_Source\PSoC4/CapSense.c **** 
 1269              		.loc 1 1568 0
 1270 0048 1360     		str	r3, [r2]
1574:Generated_Source\PSoC4/CapSense.c **** #endif /* (CapSense_IDAC_CNT == 1u) */
 1271              		.loc 1 1574 0
 1272 004a 0B4A     		ldr	r2, .L79+28
 1273 004c 1168     		ldr	r1, [r2]
 1274 004e 0B4B     		ldr	r3, .L79+32
 1275              	.LVL145:
 1276 0050 0B40     		ands	r3, r1
 1277 0052 1360     		str	r3, [r2]
 1278              	.LVL146:
1577:Generated_Source\PSoC4/CapSense.c **** }
ARM GAS  C:\Users\ZURUSH~1\AppData\Local\Temp\ccIBvwAy.s 			page 55


 1279              		.loc 1 1577 0
 1280 0054 0F20     		movs	r0, #15
 1281 0056 FFF7FEFF 		bl	CyIntEnable
 1282              	.LVL147:
1578:Generated_Source\PSoC4/CapSense.c **** 
 1283              		.loc 1 1578 0
 1284              		@ sp needed
 1285              	.LVL148:
 1286 005a 70BD     		pop	{r4, r5, r6, pc}
 1287              	.L80:
 1288              		.align	2
 1289              	.L79:
 1290 005c 0C000840 		.word	1074266124
 1291 0060 00000000 		.word	.LANCHOR0
 1292 0064 00000000 		.word	.LANCHOR1
 1293 0068 FFFFFEFF 		.word	-65537
 1294 006c 00000000 		.word	CapSense_scanSpeedTbl
 1295 0070 04000840 		.word	1074266116
 1296 0074 FF1FDFFF 		.word	-2154497
 1297 0078 08000840 		.word	1074266120
 1298 007c 00FF80FF 		.word	-8323328
 1299              		.cfi_endproc
 1300              	.LFE53:
 1301              		.size	CapSense_PostScan, .-CapSense_PostScan
 1302              		.section	.text.CapSense_SetBitValue,"ax",%progbits
 1303              		.align	2
 1304              		.global	CapSense_SetBitValue
 1305              		.code	16
 1306              		.thumb_func
 1307              		.type	CapSense_SetBitValue, %function
 1308              	CapSense_SetBitValue:
 1309              	.LFB58:
1721:Generated_Source\PSoC4/CapSense.c **** 
1722:Generated_Source\PSoC4/CapSense.c **** 
1723:Generated_Source\PSoC4/CapSense.c **** /*******************************************************************************
1724:Generated_Source\PSoC4/CapSense.c **** * Function Name: CapSense_SetBitValue
1725:Generated_Source\PSoC4/CapSense.c **** ********************************************************************************
1726:Generated_Source\PSoC4/CapSense.c **** *
1727:Generated_Source\PSoC4/CapSense.c **** * Summary:
1728:Generated_Source\PSoC4/CapSense.c **** *  The API sets a bit status of the bit in the table array which contains masks.
1729:Generated_Source\PSoC4/CapSense.c **** *
1730:Generated_Source\PSoC4/CapSense.c **** * Parameters:
1731:Generated_Source\PSoC4/CapSense.c **** *  table[] - array with bit masks.
1732:Generated_Source\PSoC4/CapSense.c **** *  position - position of bit in the table[] array.
1733:Generated_Source\PSoC4/CapSense.c **** *  value: 0 - bit is not set; 1 - bit is set.
1734:Generated_Source\PSoC4/CapSense.c **** *
1735:Generated_Source\PSoC4/CapSense.c **** * Return:
1736:Generated_Source\PSoC4/CapSense.c **** *  None
1737:Generated_Source\PSoC4/CapSense.c **** *
1738:Generated_Source\PSoC4/CapSense.c **** * Global Variables:
1739:Generated_Source\PSoC4/CapSense.c **** *  None
1740:Generated_Source\PSoC4/CapSense.c **** *
1741:Generated_Source\PSoC4/CapSense.c **** * Side Effects:
1742:Generated_Source\PSoC4/CapSense.c **** *  None
1743:Generated_Source\PSoC4/CapSense.c **** *
1744:Generated_Source\PSoC4/CapSense.c **** *******************************************************************************/
1745:Generated_Source\PSoC4/CapSense.c **** void CapSense_SetBitValue(uint8 table[], uint32 position, uint32 value)
ARM GAS  C:\Users\ZURUSH~1\AppData\Local\Temp\ccIBvwAy.s 			page 56


1746:Generated_Source\PSoC4/CapSense.c **** {
 1310              		.loc 1 1746 0
 1311              		.cfi_startproc
 1312              		@ args = 0, pretend = 0, frame = 0
 1313              		@ frame_needed = 0, uses_anonymous_args = 0
 1314              	.LVL149:
 1315 0000 10B5     		push	{r4, lr}
 1316              		.cfi_def_cfa_offset 8
 1317              		.cfi_offset 4, -8
 1318              		.cfi_offset 14, -4
1747:Generated_Source\PSoC4/CapSense.c ****     uint32 offset;
1748:Generated_Source\PSoC4/CapSense.c ****     uint8 enMask;
1749:Generated_Source\PSoC4/CapSense.c **** 
1750:Generated_Source\PSoC4/CapSense.c ****     /* position is divided by 8 to calculate the element of the
1751:Generated_Source\PSoC4/CapSense.c ****        table[] array that contains the enable bit
1752:Generated_Source\PSoC4/CapSense.c ****        for an appropriate sensor.
1753:Generated_Source\PSoC4/CapSense.c ****     */
1754:Generated_Source\PSoC4/CapSense.c ****     offset = (position >> 3u);
 1319              		.loc 1 1754 0
 1320 0002 CC08     		lsrs	r4, r1, #3
 1321              	.LVL150:
1755:Generated_Source\PSoC4/CapSense.c **** 
1756:Generated_Source\PSoC4/CapSense.c ****     /* The enMask calculation for the appropriate sensor. Operation (position & 0x07u)
1757:Generated_Source\PSoC4/CapSense.c ****        intends to calculate the enable bit offset for the 8-bit element of the
1758:Generated_Source\PSoC4/CapSense.c ****        table[] array.
1759:Generated_Source\PSoC4/CapSense.c ****     */
1760:Generated_Source\PSoC4/CapSense.c ****     enMask = 0x01u << (position & 0x07u);
 1322              		.loc 1 1760 0
 1323 0004 0723     		movs	r3, #7
 1324 0006 1940     		ands	r1, r3
 1325              	.LVL151:
 1326 0008 063B     		subs	r3, r3, #6
 1327 000a 8B40     		lsls	r3, r3, r1
 1328 000c DBB2     		uxtb	r3, r3
 1329              	.LVL152:
1761:Generated_Source\PSoC4/CapSense.c **** 
1762:Generated_Source\PSoC4/CapSense.c ****     if(0u != value)
 1330              		.loc 1 1762 0
 1331 000e 002A     		cmp	r2, #0
 1332 0010 04D0     		beq	.L82
1763:Generated_Source\PSoC4/CapSense.c ****     {
1764:Generated_Source\PSoC4/CapSense.c ****         table[offset] |= enMask;
 1333              		.loc 1 1764 0
 1334 0012 0419     		adds	r4, r0, r4
 1335              	.LVL153:
 1336 0014 2278     		ldrb	r2, [r4]
 1337              	.LVL154:
 1338 0016 1343     		orrs	r3, r2
 1339              	.LVL155:
 1340 0018 2370     		strb	r3, [r4]
 1341 001a 03E0     		b	.L81
 1342              	.LVL156:
 1343              	.L82:
1765:Generated_Source\PSoC4/CapSense.c ****     }
1766:Generated_Source\PSoC4/CapSense.c ****     else
1767:Generated_Source\PSoC4/CapSense.c ****     {
1768:Generated_Source\PSoC4/CapSense.c ****         table[offset] &= (uint8)~(enMask);
ARM GAS  C:\Users\ZURUSH~1\AppData\Local\Temp\ccIBvwAy.s 			page 57


 1344              		.loc 1 1768 0
 1345 001c 0419     		adds	r4, r0, r4
 1346              	.LVL157:
 1347 001e 2278     		ldrb	r2, [r4]
 1348              	.LVL158:
 1349 0020 9A43     		bics	r2, r3
 1350 0022 2270     		strb	r2, [r4]
 1351              	.LVL159:
 1352              	.L81:
1769:Generated_Source\PSoC4/CapSense.c ****     }
1770:Generated_Source\PSoC4/CapSense.c **** }
 1353              		.loc 1 1770 0
 1354              		@ sp needed
 1355 0024 10BD     		pop	{r4, pc}
 1356              		.cfi_endproc
 1357              	.LFE58:
 1358              		.size	CapSense_SetBitValue, .-CapSense_SetBitValue
 1359 0026 C046     		.section	.text.CapSense_ScanWidget,"ax",%progbits
 1360              		.align	2
 1361              		.global	CapSense_ScanWidget
 1362              		.code	16
 1363              		.thumb_func
 1364              		.type	CapSense_ScanWidget, %function
 1365              	CapSense_ScanWidget:
 1366              	.LFB39:
 572:Generated_Source\PSoC4/CapSense.c ****     uint32 sensorsPerWidget;
 1367              		.loc 1 572 0
 1368              		.cfi_startproc
 1369              		@ args = 0, pretend = 0, frame = 0
 1370              		@ frame_needed = 0, uses_anonymous_args = 0
 1371              	.LVL160:
 1372 0000 70B5     		push	{r4, r5, r6, lr}
 1373              		.cfi_def_cfa_offset 16
 1374              		.cfi_offset 4, -16
 1375              		.cfi_offset 5, -12
 1376              		.cfi_offset 6, -8
 1377              		.cfi_offset 14, -4
 578:Generated_Source\PSoC4/CapSense.c **** 
 1378              		.loc 1 578 0
 1379 0002 1D4B     		ldr	r3, .L94
 1380 0004 1D5C     		ldrb	r5, [r3, r0]
 1381 0006 1D4B     		ldr	r3, .L94+4
 1382 0008 9D71     		strb	r5, [r3, #6]
 581:Generated_Source\PSoC4/CapSense.c **** 
 1383              		.loc 1 581 0
 1384 000a 1D4B     		ldr	r3, .L94+8
 1385 000c 1B5C     		ldrb	r3, [r3, r0]
 1386              	.LVL161:
 584:Generated_Source\PSoC4/CapSense.c ****     {
 1387              		.loc 1 584 0
 1388 000e 002B     		cmp	r3, #0
 1389 0010 00D1     		bne	.L85
 586:Generated_Source\PSoC4/CapSense.c ****     }
 1390              		.loc 1 586 0
 1391 0012 0133     		adds	r3, r3, #1
 1392              	.LVL162:
 1393              	.L85:
ARM GAS  C:\Users\ZURUSH~1\AppData\Local\Temp\ccIBvwAy.s 			page 58


 590:Generated_Source\PSoC4/CapSense.c **** 
 1394              		.loc 1 590 0
 1395 0014 ED18     		adds	r5, r5, r3
 1396 0016 013D     		subs	r5, r5, #1
 1397              	.LVL163:
 593:Generated_Source\PSoC4/CapSense.c ****     {
 1398              		.loc 1 593 0
 1399 0018 0023     		movs	r3, #0
 1400              	.LVL164:
 1401 001a 05E0     		b	.L86
 1402              	.LVL165:
 1403              	.L87:
 596:Generated_Source\PSoC4/CapSense.c ****     }
 1404              		.loc 1 596 0 discriminator 3
 1405 001c 194A     		ldr	r2, .L94+12
 1406 001e D218     		adds	r2, r2, r3
 1407 0020 1179     		ldrb	r1, [r2, #4]
 1408 0022 194A     		ldr	r2, .L94+16
 1409 0024 D154     		strb	r1, [r2, r3]
 593:Generated_Source\PSoC4/CapSense.c ****     {
 1410              		.loc 1 593 0 discriminator 3
 1411 0026 0133     		adds	r3, r3, #1
 1412              	.LVL166:
 1413              	.L86:
 593:Generated_Source\PSoC4/CapSense.c ****     {
 1414              		.loc 1 593 0 is_stmt 0 discriminator 1
 1415 0028 002B     		cmp	r3, #0
 1416 002a F7D0     		beq	.L87
 1417 002c 0024     		movs	r4, #0
 1418 002e 14E0     		b	.L88
 1419              	.LVL167:
 1420              	.L91:
 603:Generated_Source\PSoC4/CapSense.c ****         {
 1421              		.loc 1 603 0 is_stmt 1
 1422 0030 124B     		ldr	r3, .L94+4
 1423 0032 9B79     		ldrb	r3, [r3, #6]
 1424 0034 DBB2     		uxtb	r3, r3
 1425 0036 9C42     		cmp	r4, r3
 1426 0038 08D3     		bcc	.L89
 603:Generated_Source\PSoC4/CapSense.c ****         {
 1427              		.loc 1 603 0 is_stmt 0 discriminator 1
 1428 003a AC42     		cmp	r4, r5
 1429 003c 06D8     		bhi	.L89
 606:Generated_Source\PSoC4/CapSense.c ****         }
 1430              		.loc 1 606 0 is_stmt 1
 1431 003e 0122     		movs	r2, #1
 1432 0040 2100     		movs	r1, r4
 1433 0042 1048     		ldr	r0, .L94+12
 1434 0044 0430     		adds	r0, r0, #4
 1435 0046 FFF7FEFF 		bl	CapSense_SetBitValue
 1436              	.LVL168:
 1437 004a 05E0     		b	.L90
 1438              	.L89:
 611:Generated_Source\PSoC4/CapSense.c ****         }
 1439              		.loc 1 611 0
 1440 004c 0022     		movs	r2, #0
 1441 004e 2100     		movs	r1, r4
ARM GAS  C:\Users\ZURUSH~1\AppData\Local\Temp\ccIBvwAy.s 			page 59


 1442 0050 0C48     		ldr	r0, .L94+12
 1443 0052 0430     		adds	r0, r0, #4
 1444 0054 FFF7FEFF 		bl	CapSense_SetBitValue
 1445              	.LVL169:
 1446              	.L90:
 600:Generated_Source\PSoC4/CapSense.c ****     {
 1447              		.loc 1 600 0 discriminator 2
 1448 0058 0134     		adds	r4, r4, #1
 1449              	.LVL170:
 1450              	.L88:
 600:Generated_Source\PSoC4/CapSense.c ****     {
 1451              		.loc 1 600 0 is_stmt 0 discriminator 1
 1452 005a 002C     		cmp	r4, #0
 1453 005c E8D0     		beq	.L91
 616:Generated_Source\PSoC4/CapSense.c ****     {
 1454              		.loc 1 616 0 is_stmt 1
 1455 005e 074B     		ldr	r3, .L94+4
 1456 0060 9B79     		ldrb	r3, [r3, #6]
 1457 0062 002B     		cmp	r3, #0
 1458 0064 06D1     		bne	.L84
 619:Generated_Source\PSoC4/CapSense.c ****         /* Scan first sensor of widget*/
 1459              		.loc 1 619 0
 1460 0066 054B     		ldr	r3, .L94+4
 1461 0068 4122     		movs	r2, #65
 1462 006a 1A70     		strb	r2, [r3]
 621:Generated_Source\PSoC4/CapSense.c ****     }
 1463              		.loc 1 621 0
 1464 006c 9879     		ldrb	r0, [r3, #6]
 1465 006e C0B2     		uxtb	r0, r0
 1466 0070 FFF7FEFF 		bl	CapSense_PreScan
 1467              	.LVL171:
 1468              	.L84:
 623:Generated_Source\PSoC4/CapSense.c **** #endif /* (0u != CapSense_CSHL_API_GENERATE) */
 1469              		.loc 1 623 0
 1470              		@ sp needed
 1471              	.LVL172:
 1472              	.LVL173:
 1473 0074 70BD     		pop	{r4, r5, r6, pc}
 1474              	.L95:
 1475 0076 C046     		.align	2
 1476              	.L94:
 1477 0078 00000000 		.word	CapSense_rawDataIndex
 1478 007c 00000000 		.word	.LANCHOR0
 1479 0080 00000000 		.word	CapSense_numberOfSensors
 1480 0084 00000000 		.word	.LANCHOR1
 1481 0088 00000000 		.word	CapSense_sensorEnableMaskBackup
 1482              		.cfi_endproc
 1483              	.LFE39:
 1484              		.size	CapSense_ScanWidget, .-CapSense_ScanWidget
 1485              		.section	.text.CapSense_GetSenseClkDivider,"ax",%progbits
 1486              		.align	2
 1487              		.global	CapSense_GetSenseClkDivider
 1488              		.code	16
 1489              		.thumb_func
 1490              		.type	CapSense_GetSenseClkDivider, %function
 1491              	CapSense_GetSenseClkDivider:
 1492              	.LFB59:
ARM GAS  C:\Users\ZURUSH~1\AppData\Local\Temp\ccIBvwAy.s 			page 60


1771:Generated_Source\PSoC4/CapSense.c **** 
1772:Generated_Source\PSoC4/CapSense.c **** 
1773:Generated_Source\PSoC4/CapSense.c **** 
1774:Generated_Source\PSoC4/CapSense.c **** /*******************************************************************************
1775:Generated_Source\PSoC4/CapSense.c **** * Function Name: CapSense_GetSenseClkDivider
1776:Generated_Source\PSoC4/CapSense.c **** ********************************************************************************
1777:Generated_Source\PSoC4/CapSense.c **** *
1778:Generated_Source\PSoC4/CapSense.c **** * Summary:
1779:Generated_Source\PSoC4/CapSense.c **** *  This API returns a value of the sense clock divider for the  sensor.
1780:Generated_Source\PSoC4/CapSense.c **** *
1781:Generated_Source\PSoC4/CapSense.c **** * Parameters:
1782:Generated_Source\PSoC4/CapSense.c **** *  sensor: sensor index. The index value can be
1783:Generated_Source\PSoC4/CapSense.c **** *  from 0 to (CapSense_TOTAL_SENSOR_COUNT-1).
1784:Generated_Source\PSoC4/CapSense.c **** *
1785:Generated_Source\PSoC4/CapSense.c **** * Return:
1786:Generated_Source\PSoC4/CapSense.c **** *  This API returns the sense clock divider of the sensor.
1787:Generated_Source\PSoC4/CapSense.c **** *
1788:Generated_Source\PSoC4/CapSense.c **** * Global Variables:
1789:Generated_Source\PSoC4/CapSense.c **** *  CapSense_senseClkDividerVal[] - stores the sense clock divider values.
1790:Generated_Source\PSoC4/CapSense.c **** *
1791:Generated_Source\PSoC4/CapSense.c **** * Side Effects:
1792:Generated_Source\PSoC4/CapSense.c **** *  None
1793:Generated_Source\PSoC4/CapSense.c **** *
1794:Generated_Source\PSoC4/CapSense.c **** *******************************************************************************/
1795:Generated_Source\PSoC4/CapSense.c **** uint32 CapSense_GetSenseClkDivider(uint32 sensor)
1796:Generated_Source\PSoC4/CapSense.c **** {
 1493              		.loc 1 1796 0
 1494              		.cfi_startproc
 1495              		@ args = 0, pretend = 0, frame = 0
 1496              		@ frame_needed = 0, uses_anonymous_args = 0
 1497              		@ link register save eliminated.
 1498              	.LVL174:
1797:Generated_Source\PSoC4/CapSense.c ****     #if(0u != CapSense_MULTIPLE_FREQUENCY_SET)
1798:Generated_Source\PSoC4/CapSense.c ****         return((uint32)CapSense_senseClkDividerVal[sensor]);
 1499              		.loc 1 1798 0
 1500 0000 014B     		ldr	r3, .L97
 1501 0002 185C     		ldrb	r0, [r3, r0]
 1502              	.LVL175:
1799:Generated_Source\PSoC4/CapSense.c ****     #else
1800:Generated_Source\PSoC4/CapSense.c ****         return((uint32)CapSense_senseClkDividerVal);
1801:Generated_Source\PSoC4/CapSense.c ****     #endif /* (0u != CapSense_MULTIPLE_FREQUENCY_SET) */
1802:Generated_Source\PSoC4/CapSense.c **** }
 1503              		.loc 1 1802 0
 1504              		@ sp needed
 1505 0004 7047     		bx	lr
 1506              	.L98:
 1507 0006 C046     		.align	2
 1508              	.L97:
 1509 0008 00000000 		.word	CapSense_senseClkDividerVal
 1510              		.cfi_endproc
 1511              	.LFE59:
 1512              		.size	CapSense_GetSenseClkDivider, .-CapSense_GetSenseClkDivider
 1513              		.section	.text.CapSense_SetSenseClkDivider,"ax",%progbits
 1514              		.align	2
 1515              		.global	CapSense_SetSenseClkDivider
 1516              		.code	16
 1517              		.thumb_func
ARM GAS  C:\Users\ZURUSH~1\AppData\Local\Temp\ccIBvwAy.s 			page 61


 1518              		.type	CapSense_SetSenseClkDivider, %function
 1519              	CapSense_SetSenseClkDivider:
 1520              	.LFB60:
1803:Generated_Source\PSoC4/CapSense.c **** 
1804:Generated_Source\PSoC4/CapSense.c **** #if (CapSense_TUNING_METHOD != CapSense__TUNING_NONE)
1805:Generated_Source\PSoC4/CapSense.c ****     /*******************************************************************************
1806:Generated_Source\PSoC4/CapSense.c ****     * Function Name: CapSense_SetSenseClkDivider
1807:Generated_Source\PSoC4/CapSense.c ****     ********************************************************************************
1808:Generated_Source\PSoC4/CapSense.c ****     *
1809:Generated_Source\PSoC4/CapSense.c ****     * Summary:
1810:Generated_Source\PSoC4/CapSense.c ****     *  This API sets a value of the sense clock divider for the  sensor.
1811:Generated_Source\PSoC4/CapSense.c ****     *
1812:Generated_Source\PSoC4/CapSense.c ****     * Parameters:
1813:Generated_Source\PSoC4/CapSense.c ****     *  sensor:  Sensor index.
1814:Generated_Source\PSoC4/CapSense.c ****     *  senseClk: represents the sense clock value.
1815:Generated_Source\PSoC4/CapSense.c ****     *
1816:Generated_Source\PSoC4/CapSense.c ****     * Return:
1817:Generated_Source\PSoC4/CapSense.c ****     *  None.
1818:Generated_Source\PSoC4/CapSense.c ****     *
1819:Generated_Source\PSoC4/CapSense.c ****     * Global Variables:
1820:Generated_Source\PSoC4/CapSense.c ****     *  CapSense_senseClkDividerVal[] - stores the sense clock divider values.
1821:Generated_Source\PSoC4/CapSense.c ****     *
1822:Generated_Source\PSoC4/CapSense.c ****     * Side Effects:
1823:Generated_Source\PSoC4/CapSense.c ****     *  None
1824:Generated_Source\PSoC4/CapSense.c ****     *
1825:Generated_Source\PSoC4/CapSense.c ****     *******************************************************************************/
1826:Generated_Source\PSoC4/CapSense.c ****     void CapSense_SetSenseClkDivider(uint32 sensor, uint32 senseClk)
1827:Generated_Source\PSoC4/CapSense.c ****     {
 1521              		.loc 1 1827 0
 1522              		.cfi_startproc
 1523              		@ args = 0, pretend = 0, frame = 0
 1524              		@ frame_needed = 0, uses_anonymous_args = 0
 1525              		@ link register save eliminated.
 1526              	.LVL176:
1828:Generated_Source\PSoC4/CapSense.c ****         #if(0u != CapSense_MULTIPLE_FREQUENCY_SET)
1829:Generated_Source\PSoC4/CapSense.c ****             CapSense_senseClkDividerVal[sensor] = (uint8)senseClk;
 1527              		.loc 1 1829 0
 1528 0000 014B     		ldr	r3, .L100
 1529 0002 1954     		strb	r1, [r3, r0]
1830:Generated_Source\PSoC4/CapSense.c ****         #else
1831:Generated_Source\PSoC4/CapSense.c ****             CapSense_senseClkDividerVal = (uint8)senseClk;
1832:Generated_Source\PSoC4/CapSense.c ****         #endif /* (0u != CapSense_MULTIPLE_FREQUENCY_SET) */
1833:Generated_Source\PSoC4/CapSense.c ****     }
 1530              		.loc 1 1833 0
 1531              		@ sp needed
 1532 0004 7047     		bx	lr
 1533              	.L101:
 1534 0006 C046     		.align	2
 1535              	.L100:
 1536 0008 00000000 		.word	CapSense_senseClkDividerVal
 1537              		.cfi_endproc
 1538              	.LFE60:
 1539              		.size	CapSense_SetSenseClkDivider, .-CapSense_SetSenseClkDivider
 1540              		.section	.text.CapSense_GetModulatorClkDivider,"ax",%progbits
 1541              		.align	2
 1542              		.global	CapSense_GetModulatorClkDivider
 1543              		.code	16
ARM GAS  C:\Users\ZURUSH~1\AppData\Local\Temp\ccIBvwAy.s 			page 62


 1544              		.thumb_func
 1545              		.type	CapSense_GetModulatorClkDivider, %function
 1546              	CapSense_GetModulatorClkDivider:
 1547              	.LFB61:
1834:Generated_Source\PSoC4/CapSense.c **** #endif /* (CapSense_TUNING_METHOD != CapSense__TUNING_NONE) */
1835:Generated_Source\PSoC4/CapSense.c **** 
1836:Generated_Source\PSoC4/CapSense.c **** 
1837:Generated_Source\PSoC4/CapSense.c **** /*******************************************************************************
1838:Generated_Source\PSoC4/CapSense.c **** * Function Name: CapSense_GetModulatorClkDivider
1839:Generated_Source\PSoC4/CapSense.c **** ********************************************************************************
1840:Generated_Source\PSoC4/CapSense.c **** *
1841:Generated_Source\PSoC4/CapSense.c **** * Summary:
1842:Generated_Source\PSoC4/CapSense.c **** *  This API returns a value of the modulator sample clock divider for the  sensor.
1843:Generated_Source\PSoC4/CapSense.c **** *
1844:Generated_Source\PSoC4/CapSense.c **** * Parameters:
1845:Generated_Source\PSoC4/CapSense.c **** *  sensor: sensor index. The value of index can be
1846:Generated_Source\PSoC4/CapSense.c **** *  from 0 to (CapSense_TOTAL_SENSOR_COUNT-1).
1847:Generated_Source\PSoC4/CapSense.c **** *
1848:Generated_Source\PSoC4/CapSense.c **** * Return:
1849:Generated_Source\PSoC4/CapSense.c **** *  This API returns the modulator sample clock divider for the  sensor.
1850:Generated_Source\PSoC4/CapSense.c **** *
1851:Generated_Source\PSoC4/CapSense.c **** * Global Variables:
1852:Generated_Source\PSoC4/CapSense.c **** *  CapSense_sampleClkDividerVal[] - stores the modulator sample divider values.
1853:Generated_Source\PSoC4/CapSense.c **** *
1854:Generated_Source\PSoC4/CapSense.c **** * Side Effects:
1855:Generated_Source\PSoC4/CapSense.c **** *  None
1856:Generated_Source\PSoC4/CapSense.c **** *
1857:Generated_Source\PSoC4/CapSense.c **** *******************************************************************************/
1858:Generated_Source\PSoC4/CapSense.c **** uint32 CapSense_GetModulatorClkDivider(uint32 sensor)
1859:Generated_Source\PSoC4/CapSense.c **** {
 1548              		.loc 1 1859 0
 1549              		.cfi_startproc
 1550              		@ args = 0, pretend = 0, frame = 0
 1551              		@ frame_needed = 0, uses_anonymous_args = 0
 1552              		@ link register save eliminated.
 1553              	.LVL177:
1860:Generated_Source\PSoC4/CapSense.c ****     #if(0u != CapSense_MULTIPLE_FREQUENCY_SET)
1861:Generated_Source\PSoC4/CapSense.c ****         return((uint32)CapSense_sampleClkDividerVal[sensor]);
 1554              		.loc 1 1861 0
 1555 0000 014B     		ldr	r3, .L103
 1556 0002 185C     		ldrb	r0, [r3, r0]
 1557              	.LVL178:
1862:Generated_Source\PSoC4/CapSense.c ****     #else
1863:Generated_Source\PSoC4/CapSense.c ****         return((uint32)CapSense_sampleClkDividerVal);
1864:Generated_Source\PSoC4/CapSense.c ****     #endif /* (0u != CapSense_MULTIPLE_FREQUENCY_SET) */
1865:Generated_Source\PSoC4/CapSense.c **** }
 1558              		.loc 1 1865 0
 1559              		@ sp needed
 1560 0004 7047     		bx	lr
 1561              	.L104:
 1562 0006 C046     		.align	2
 1563              	.L103:
 1564 0008 00000000 		.word	CapSense_sampleClkDividerVal
 1565              		.cfi_endproc
 1566              	.LFE61:
 1567              		.size	CapSense_GetModulatorClkDivider, .-CapSense_GetModulatorClkDivider
 1568              		.section	.text.CapSense_SetModulatorClkDivider,"ax",%progbits
ARM GAS  C:\Users\ZURUSH~1\AppData\Local\Temp\ccIBvwAy.s 			page 63


 1569              		.align	2
 1570              		.global	CapSense_SetModulatorClkDivider
 1571              		.code	16
 1572              		.thumb_func
 1573              		.type	CapSense_SetModulatorClkDivider, %function
 1574              	CapSense_SetModulatorClkDivider:
 1575              	.LFB62:
1866:Generated_Source\PSoC4/CapSense.c **** 
1867:Generated_Source\PSoC4/CapSense.c **** #if (CapSense_TUNING_METHOD != CapSense__TUNING_NONE)
1868:Generated_Source\PSoC4/CapSense.c ****     /*******************************************************************************
1869:Generated_Source\PSoC4/CapSense.c ****     * Function Name: CapSense_SetModulatorClkDivider
1870:Generated_Source\PSoC4/CapSense.c ****     ********************************************************************************
1871:Generated_Source\PSoC4/CapSense.c ****     *
1872:Generated_Source\PSoC4/CapSense.c ****     * Summary:
1873:Generated_Source\PSoC4/CapSense.c ****     *  This API sets a value of the modulator sample clock divider for the  sensor.
1874:Generated_Source\PSoC4/CapSense.c ****     *
1875:Generated_Source\PSoC4/CapSense.c ****     * Parameters:
1876:Generated_Source\PSoC4/CapSense.c ****     *  sensor:  Sensor index.
1877:Generated_Source\PSoC4/CapSense.c ****     *  modulatorClk: represents the modulator sample clock value.
1878:Generated_Source\PSoC4/CapSense.c ****     *
1879:Generated_Source\PSoC4/CapSense.c ****     * Return:
1880:Generated_Source\PSoC4/CapSense.c ****     *  None.
1881:Generated_Source\PSoC4/CapSense.c ****     *
1882:Generated_Source\PSoC4/CapSense.c ****     * Global Variables:
1883:Generated_Source\PSoC4/CapSense.c ****     *  CapSense_sampleClkDividerVal[] - stores the modulator sample divider values.
1884:Generated_Source\PSoC4/CapSense.c ****     *
1885:Generated_Source\PSoC4/CapSense.c ****     * Side Effects:
1886:Generated_Source\PSoC4/CapSense.c ****     *  None
1887:Generated_Source\PSoC4/CapSense.c ****     *
1888:Generated_Source\PSoC4/CapSense.c ****     *******************************************************************************/
1889:Generated_Source\PSoC4/CapSense.c ****     void CapSense_SetModulatorClkDivider(uint32 sensor, uint32 modulatorClk)
1890:Generated_Source\PSoC4/CapSense.c ****     {
 1576              		.loc 1 1890 0
 1577              		.cfi_startproc
 1578              		@ args = 0, pretend = 0, frame = 0
 1579              		@ frame_needed = 0, uses_anonymous_args = 0
 1580              		@ link register save eliminated.
 1581              	.LVL179:
1891:Generated_Source\PSoC4/CapSense.c ****         #if(0u != CapSense_MULTIPLE_FREQUENCY_SET)
1892:Generated_Source\PSoC4/CapSense.c ****             CapSense_sampleClkDividerVal[sensor] = (uint8)modulatorClk;
 1582              		.loc 1 1892 0
 1583 0000 014B     		ldr	r3, .L106
 1584 0002 1954     		strb	r1, [r3, r0]
1893:Generated_Source\PSoC4/CapSense.c ****         #else
1894:Generated_Source\PSoC4/CapSense.c ****             CapSense_sampleClkDividerVal = (uint8)modulatorClk;
1895:Generated_Source\PSoC4/CapSense.c ****         #endif /* (0u != CapSense_MULTIPLE_FREQUENCY_SET) */
1896:Generated_Source\PSoC4/CapSense.c ****     }
 1585              		.loc 1 1896 0
 1586              		@ sp needed
 1587 0004 7047     		bx	lr
 1588              	.L107:
 1589 0006 C046     		.align	2
 1590              	.L106:
 1591 0008 00000000 		.word	CapSense_sampleClkDividerVal
 1592              		.cfi_endproc
 1593              	.LFE62:
 1594              		.size	CapSense_SetModulatorClkDivider, .-CapSense_SetModulatorClkDivider
ARM GAS  C:\Users\ZURUSH~1\AppData\Local\Temp\ccIBvwAy.s 			page 64


 1595              		.section	.text.CapSense_GetModulationIDAC,"ax",%progbits
 1596              		.align	2
 1597              		.global	CapSense_GetModulationIDAC
 1598              		.code	16
 1599              		.thumb_func
 1600              		.type	CapSense_GetModulationIDAC, %function
 1601              	CapSense_GetModulationIDAC:
 1602              	.LFB63:
1897:Generated_Source\PSoC4/CapSense.c **** #endif /* (CapSense_TUNING_METHOD != CapSense__TUNING_NONE) */
1898:Generated_Source\PSoC4/CapSense.c **** 
1899:Generated_Source\PSoC4/CapSense.c **** /*******************************************************************************
1900:Generated_Source\PSoC4/CapSense.c **** * Function Name: CapSense_GetModulationIDAC
1901:Generated_Source\PSoC4/CapSense.c **** ********************************************************************************
1902:Generated_Source\PSoC4/CapSense.c **** *
1903:Generated_Source\PSoC4/CapSense.c **** * Summary:
1904:Generated_Source\PSoC4/CapSense.c **** *  This API returns a value of the modulation IDAC for the  sensor.
1905:Generated_Source\PSoC4/CapSense.c **** *
1906:Generated_Source\PSoC4/CapSense.c **** * Parameters:
1907:Generated_Source\PSoC4/CapSense.c **** *  sensor: sensor index. The index value can be
1908:Generated_Source\PSoC4/CapSense.c **** *  from 0 to (CapSense_TOTAL_SENSOR_COUNT-1).
1909:Generated_Source\PSoC4/CapSense.c **** *
1910:Generated_Source\PSoC4/CapSense.c **** * Return:
1911:Generated_Source\PSoC4/CapSense.c **** *  This API returns the modulation IDAC of the sensor.
1912:Generated_Source\PSoC4/CapSense.c **** *
1913:Generated_Source\PSoC4/CapSense.c **** * Global Variables:
1914:Generated_Source\PSoC4/CapSense.c **** *  CapSense_modulationIDAC[] - stores modulation IDAC values.
1915:Generated_Source\PSoC4/CapSense.c **** *
1916:Generated_Source\PSoC4/CapSense.c **** * Side Effects:
1917:Generated_Source\PSoC4/CapSense.c **** *  None
1918:Generated_Source\PSoC4/CapSense.c **** *
1919:Generated_Source\PSoC4/CapSense.c **** *******************************************************************************/
1920:Generated_Source\PSoC4/CapSense.c **** uint32 CapSense_GetModulationIDAC(uint32 sensor)
1921:Generated_Source\PSoC4/CapSense.c **** {
 1603              		.loc 1 1921 0
 1604              		.cfi_startproc
 1605              		@ args = 0, pretend = 0, frame = 0
 1606              		@ frame_needed = 0, uses_anonymous_args = 0
 1607              		@ link register save eliminated.
 1608              	.LVL180:
1922:Generated_Source\PSoC4/CapSense.c ****         return((uint32)CapSense_modulationIDAC[sensor]);
 1609              		.loc 1 1922 0
 1610 0000 014B     		ldr	r3, .L109
 1611 0002 185C     		ldrb	r0, [r3, r0]
 1612              	.LVL181:
1923:Generated_Source\PSoC4/CapSense.c **** }
 1613              		.loc 1 1923 0
 1614              		@ sp needed
 1615 0004 7047     		bx	lr
 1616              	.L110:
 1617 0006 C046     		.align	2
 1618              	.L109:
 1619 0008 00000000 		.word	CapSense_modulationIDAC
 1620              		.cfi_endproc
 1621              	.LFE63:
 1622              		.size	CapSense_GetModulationIDAC, .-CapSense_GetModulationIDAC
 1623              		.section	.text.CapSense_SetModulationIDAC,"ax",%progbits
 1624              		.align	2
ARM GAS  C:\Users\ZURUSH~1\AppData\Local\Temp\ccIBvwAy.s 			page 65


 1625              		.global	CapSense_SetModulationIDAC
 1626              		.code	16
 1627              		.thumb_func
 1628              		.type	CapSense_SetModulationIDAC, %function
 1629              	CapSense_SetModulationIDAC:
 1630              	.LFB64:
1924:Generated_Source\PSoC4/CapSense.c **** 
1925:Generated_Source\PSoC4/CapSense.c **** #if (CapSense_TUNING_METHOD != CapSense__TUNING_NONE)
1926:Generated_Source\PSoC4/CapSense.c ****     /*******************************************************************************
1927:Generated_Source\PSoC4/CapSense.c ****     * Function Name: CapSense_SetModulationIDAC
1928:Generated_Source\PSoC4/CapSense.c ****     ********************************************************************************
1929:Generated_Source\PSoC4/CapSense.c ****     *
1930:Generated_Source\PSoC4/CapSense.c ****     * Summary:
1931:Generated_Source\PSoC4/CapSense.c ****     *  This API sets a value of the modulation IDAC for the  sensor.
1932:Generated_Source\PSoC4/CapSense.c ****     *
1933:Generated_Source\PSoC4/CapSense.c ****     * Parameters:
1934:Generated_Source\PSoC4/CapSense.c ****     *  sensor:  Sensor index.
1935:Generated_Source\PSoC4/CapSense.c ****     *  compIdacValue: represents the modulation IDAC data register value.
1936:Generated_Source\PSoC4/CapSense.c ****     *
1937:Generated_Source\PSoC4/CapSense.c ****     * Return:
1938:Generated_Source\PSoC4/CapSense.c ****     *  None.
1939:Generated_Source\PSoC4/CapSense.c ****     *
1940:Generated_Source\PSoC4/CapSense.c ****     * Global Variables:
1941:Generated_Source\PSoC4/CapSense.c ****     *  CapSense_modulationIDAC[] - array with modulation IDAC values
1942:Generated_Source\PSoC4/CapSense.c ****     *
1943:Generated_Source\PSoC4/CapSense.c ****     * Side Effects:
1944:Generated_Source\PSoC4/CapSense.c ****     *  None
1945:Generated_Source\PSoC4/CapSense.c ****     *
1946:Generated_Source\PSoC4/CapSense.c ****     *******************************************************************************/
1947:Generated_Source\PSoC4/CapSense.c ****     void CapSense_SetModulationIDAC(uint32 sensor, uint32 modIdacValue)
1948:Generated_Source\PSoC4/CapSense.c ****     {
 1631              		.loc 1 1948 0
 1632              		.cfi_startproc
 1633              		@ args = 0, pretend = 0, frame = 0
 1634              		@ frame_needed = 0, uses_anonymous_args = 0
 1635              		@ link register save eliminated.
 1636              	.LVL182:
1949:Generated_Source\PSoC4/CapSense.c ****         CapSense_modulationIDAC[sensor] = (uint8)modIdacValue;
 1637              		.loc 1 1949 0
 1638 0000 014B     		ldr	r3, .L112
 1639 0002 1954     		strb	r1, [r3, r0]
1950:Generated_Source\PSoC4/CapSense.c ****     }
 1640              		.loc 1 1950 0
 1641              		@ sp needed
 1642 0004 7047     		bx	lr
 1643              	.L113:
 1644 0006 C046     		.align	2
 1645              	.L112:
 1646 0008 00000000 		.word	CapSense_modulationIDAC
 1647              		.cfi_endproc
 1648              	.LFE64:
 1649              		.size	CapSense_SetModulationIDAC, .-CapSense_SetModulationIDAC
 1650              		.section	.text.CapSense_GetCompensationIDAC,"ax",%progbits
 1651              		.align	2
 1652              		.global	CapSense_GetCompensationIDAC
 1653              		.code	16
 1654              		.thumb_func
ARM GAS  C:\Users\ZURUSH~1\AppData\Local\Temp\ccIBvwAy.s 			page 66


 1655              		.type	CapSense_GetCompensationIDAC, %function
 1656              	CapSense_GetCompensationIDAC:
 1657              	.LFB65:
1951:Generated_Source\PSoC4/CapSense.c **** #endif /* (CapSense_TUNING_METHOD != CapSense__TUNING_NONE) */
1952:Generated_Source\PSoC4/CapSense.c **** 
1953:Generated_Source\PSoC4/CapSense.c **** 
1954:Generated_Source\PSoC4/CapSense.c **** #if(CapSense_IDAC_CNT > 1u)
1955:Generated_Source\PSoC4/CapSense.c ****     /*******************************************************************************
1956:Generated_Source\PSoC4/CapSense.c ****     * Function Name: CapSense_GetCompensationIDAC
1957:Generated_Source\PSoC4/CapSense.c ****     ********************************************************************************
1958:Generated_Source\PSoC4/CapSense.c ****     *
1959:Generated_Source\PSoC4/CapSense.c ****     * Summary:
1960:Generated_Source\PSoC4/CapSense.c ****     *  This API returns a value of the compensation IDAC for the  sensor.
1961:Generated_Source\PSoC4/CapSense.c ****     *
1962:Generated_Source\PSoC4/CapSense.c ****     * Parameters:
1963:Generated_Source\PSoC4/CapSense.c ****     *  sensor: sensor index. The index value can be
1964:Generated_Source\PSoC4/CapSense.c ****     *  from 0 to (CapSense_TOTAL_SENSOR_COUNT-1).
1965:Generated_Source\PSoC4/CapSense.c ****     *
1966:Generated_Source\PSoC4/CapSense.c ****     * Return:
1967:Generated_Source\PSoC4/CapSense.c ****     *  This API returns the compensation IDAC of the sensor.
1968:Generated_Source\PSoC4/CapSense.c ****     *
1969:Generated_Source\PSoC4/CapSense.c ****     * Global Variables:
1970:Generated_Source\PSoC4/CapSense.c ****     *  CapSense_compensationIDAC[] - stores the compensation IDAC values.
1971:Generated_Source\PSoC4/CapSense.c ****     *
1972:Generated_Source\PSoC4/CapSense.c ****     * Side Effects:
1973:Generated_Source\PSoC4/CapSense.c ****     *  None
1974:Generated_Source\PSoC4/CapSense.c ****     *
1975:Generated_Source\PSoC4/CapSense.c ****     *******************************************************************************/
1976:Generated_Source\PSoC4/CapSense.c ****     uint32 CapSense_GetCompensationIDAC(uint32 sensor)
1977:Generated_Source\PSoC4/CapSense.c ****     {
 1658              		.loc 1 1977 0
 1659              		.cfi_startproc
 1660              		@ args = 0, pretend = 0, frame = 0
 1661              		@ frame_needed = 0, uses_anonymous_args = 0
 1662              		@ link register save eliminated.
 1663              	.LVL183:
1978:Generated_Source\PSoC4/CapSense.c ****         return((uint32)CapSense_compensationIDAC[sensor]);
 1664              		.loc 1 1978 0
 1665 0000 014B     		ldr	r3, .L115
 1666 0002 185C     		ldrb	r0, [r3, r0]
 1667              	.LVL184:
1979:Generated_Source\PSoC4/CapSense.c ****     }
 1668              		.loc 1 1979 0
 1669              		@ sp needed
 1670 0004 7047     		bx	lr
 1671              	.L116:
 1672 0006 C046     		.align	2
 1673              	.L115:
 1674 0008 00000000 		.word	CapSense_compensationIDAC
 1675              		.cfi_endproc
 1676              	.LFE65:
 1677              		.size	CapSense_GetCompensationIDAC, .-CapSense_GetCompensationIDAC
 1678              		.section	.text.CapSense_SetCompensationIDAC,"ax",%progbits
 1679              		.align	2
 1680              		.global	CapSense_SetCompensationIDAC
 1681              		.code	16
 1682              		.thumb_func
ARM GAS  C:\Users\ZURUSH~1\AppData\Local\Temp\ccIBvwAy.s 			page 67


 1683              		.type	CapSense_SetCompensationIDAC, %function
 1684              	CapSense_SetCompensationIDAC:
 1685              	.LFB66:
1980:Generated_Source\PSoC4/CapSense.c **** #endif /* (CapSense_IDAC_CNT > 1u) */
1981:Generated_Source\PSoC4/CapSense.c **** 
1982:Generated_Source\PSoC4/CapSense.c **** 
1983:Generated_Source\PSoC4/CapSense.c **** #if((CapSense_TUNING_METHOD != CapSense__TUNING_NONE) && (CapSense_IDAC_CNT > 1u))
1984:Generated_Source\PSoC4/CapSense.c ****     /*******************************************************************************
1985:Generated_Source\PSoC4/CapSense.c ****     * Function Name: CapSense_SetCompensationIDAC
1986:Generated_Source\PSoC4/CapSense.c ****     ********************************************************************************
1987:Generated_Source\PSoC4/CapSense.c ****     *
1988:Generated_Source\PSoC4/CapSense.c ****     * Summary:
1989:Generated_Source\PSoC4/CapSense.c ****     *  This API sets a value of compensation IDAC for the  sensor.
1990:Generated_Source\PSoC4/CapSense.c ****     *
1991:Generated_Source\PSoC4/CapSense.c ****     * Parameters:
1992:Generated_Source\PSoC4/CapSense.c ****     *  sensor:  Sensor index.
1993:Generated_Source\PSoC4/CapSense.c ****     *  compIdacValue: represents the compensation IDAC data register value.
1994:Generated_Source\PSoC4/CapSense.c ****     *
1995:Generated_Source\PSoC4/CapSense.c ****     * Return:
1996:Generated_Source\PSoC4/CapSense.c ****     *  None.
1997:Generated_Source\PSoC4/CapSense.c ****     *
1998:Generated_Source\PSoC4/CapSense.c ****     * Global Variables:
1999:Generated_Source\PSoC4/CapSense.c ****     *  CapSense_compensationIDAC[] - an array with compensation IDAC values
2000:Generated_Source\PSoC4/CapSense.c ****     *
2001:Generated_Source\PSoC4/CapSense.c ****     * Side Effects:
2002:Generated_Source\PSoC4/CapSense.c ****     *  None
2003:Generated_Source\PSoC4/CapSense.c ****     *
2004:Generated_Source\PSoC4/CapSense.c ****     *******************************************************************************/
2005:Generated_Source\PSoC4/CapSense.c ****     void CapSense_SetCompensationIDAC(uint32 sensor, uint32 compIdacValue)
2006:Generated_Source\PSoC4/CapSense.c ****     {
 1686              		.loc 1 2006 0
 1687              		.cfi_startproc
 1688              		@ args = 0, pretend = 0, frame = 0
 1689              		@ frame_needed = 0, uses_anonymous_args = 0
 1690              		@ link register save eliminated.
 1691              	.LVL185:
2007:Generated_Source\PSoC4/CapSense.c ****         CapSense_compensationIDAC[sensor] = (uint8)compIdacValue;
 1692              		.loc 1 2007 0
 1693 0000 014B     		ldr	r3, .L118
 1694 0002 1954     		strb	r1, [r3, r0]
2008:Generated_Source\PSoC4/CapSense.c ****     }
 1695              		.loc 1 2008 0
 1696              		@ sp needed
 1697 0004 7047     		bx	lr
 1698              	.L119:
 1699 0006 C046     		.align	2
 1700              	.L118:
 1701 0008 00000000 		.word	CapSense_compensationIDAC
 1702              		.cfi_endproc
 1703              	.LFE66:
 1704              		.size	CapSense_SetCompensationIDAC, .-CapSense_SetCompensationIDAC
 1705              		.section	.text.CapSense_GetIDACRange,"ax",%progbits
 1706              		.align	2
 1707              		.global	CapSense_GetIDACRange
 1708              		.code	16
 1709              		.thumb_func
 1710              		.type	CapSense_GetIDACRange, %function
ARM GAS  C:\Users\ZURUSH~1\AppData\Local\Temp\ccIBvwAy.s 			page 68


 1711              	CapSense_GetIDACRange:
 1712              	.LFB67:
2009:Generated_Source\PSoC4/CapSense.c **** #endif /* ((CapSense_TUNING_METHOD != CapSense__TUNING_NONE) && (CapSense_IDAC_CNT > 1u)) */
2010:Generated_Source\PSoC4/CapSense.c **** 
2011:Generated_Source\PSoC4/CapSense.c **** /*******************************************************************************
2012:Generated_Source\PSoC4/CapSense.c **** * Function Name: CapSense_GetIDACRange
2013:Generated_Source\PSoC4/CapSense.c **** ********************************************************************************
2014:Generated_Source\PSoC4/CapSense.c **** *
2015:Generated_Source\PSoC4/CapSense.c **** * Summary:
2016:Generated_Source\PSoC4/CapSense.c **** *  This API returns a value that indicates the IDAC range used by the
2017:Generated_Source\PSoC4/CapSense.c **** *  component to scan sensors. The IDAC range is common for all the sensors.
2018:Generated_Source\PSoC4/CapSense.c **** *
2019:Generated_Source\PSoC4/CapSense.c **** * Parameters:
2020:Generated_Source\PSoC4/CapSense.c **** *  None
2021:Generated_Source\PSoC4/CapSense.c **** *
2022:Generated_Source\PSoC4/CapSense.c **** * Return:
2023:Generated_Source\PSoC4/CapSense.c **** *  This API Returns a value that indicates the IDAC range:
2024:Generated_Source\PSoC4/CapSense.c **** *      0 - IDAC range set to 4x
2025:Generated_Source\PSoC4/CapSense.c **** *      1 - IDAC range set to 8x
2026:Generated_Source\PSoC4/CapSense.c **** *
2027:Generated_Source\PSoC4/CapSense.c **** * Global Variables:
2028:Generated_Source\PSoC4/CapSense.c **** *  None
2029:Generated_Source\PSoC4/CapSense.c **** *
2030:Generated_Source\PSoC4/CapSense.c **** * Side Effects:
2031:Generated_Source\PSoC4/CapSense.c **** *  None
2032:Generated_Source\PSoC4/CapSense.c **** *
2033:Generated_Source\PSoC4/CapSense.c **** *******************************************************************************/
2034:Generated_Source\PSoC4/CapSense.c **** uint32 CapSense_GetIDACRange(void)
2035:Generated_Source\PSoC4/CapSense.c **** {
 1713              		.loc 1 2035 0
 1714              		.cfi_startproc
 1715              		@ args = 0, pretend = 0, frame = 0
 1716              		@ frame_needed = 0, uses_anonymous_args = 0
 1717              		@ link register save eliminated.
2036:Generated_Source\PSoC4/CapSense.c ****     return((0u != (CapSense_CSD_IDAC_REG & CapSense_CSD_IDAC1_RANGE_8X)) ? 1uL : 0uL);
 1718              		.loc 1 2036 0
 1719 0000 034B     		ldr	r3, .L122
 1720 0002 1868     		ldr	r0, [r3]
 1721 0004 8023     		movs	r3, #128
 1722 0006 DB00     		lsls	r3, r3, #3
 1723 0008 1840     		ands	r0, r3
 1724 000a 00D0     		beq	.L121
 1725 000c 0120     		movs	r0, #1
 1726              	.L121:
2037:Generated_Source\PSoC4/CapSense.c **** }
 1727              		.loc 1 2037 0 discriminator 4
 1728              		@ sp needed
 1729 000e 7047     		bx	lr
 1730              	.L123:
 1731              		.align	2
 1732              	.L122:
 1733 0010 08000840 		.word	1074266120
 1734              		.cfi_endproc
 1735              	.LFE67:
 1736              		.size	CapSense_GetIDACRange, .-CapSense_GetIDACRange
 1737              		.section	.text.CapSense_SetIDACRange,"ax",%progbits
 1738              		.align	2
ARM GAS  C:\Users\ZURUSH~1\AppData\Local\Temp\ccIBvwAy.s 			page 69


 1739              		.global	CapSense_SetIDACRange
 1740              		.code	16
 1741              		.thumb_func
 1742              		.type	CapSense_SetIDACRange, %function
 1743              	CapSense_SetIDACRange:
 1744              	.LFB68:
2038:Generated_Source\PSoC4/CapSense.c **** 
2039:Generated_Source\PSoC4/CapSense.c **** #if (CapSense_TUNING_METHOD != CapSense__TUNING_NONE)
2040:Generated_Source\PSoC4/CapSense.c ****     /*******************************************************************************
2041:Generated_Source\PSoC4/CapSense.c ****     * Function Name: CapSense_SetIDACRange
2042:Generated_Source\PSoC4/CapSense.c ****     ********************************************************************************
2043:Generated_Source\PSoC4/CapSense.c ****     *
2044:Generated_Source\PSoC4/CapSense.c ****     * Summary:
2045:Generated_Source\PSoC4/CapSense.c ****     *  This API sets the IDAC range to the 4x (1.2uA/bit) or 8x (2.4uA/bit) mode.
2046:Generated_Source\PSoC4/CapSense.c ****     *  The IDAC range is common for all the sensors and common for the modulation and
2047:Generated_Source\PSoC4/CapSense.c ****     *  compensation IDACs.
2048:Generated_Source\PSoC4/CapSense.c ****     *
2049:Generated_Source\PSoC4/CapSense.c ****     * Parameters:
2050:Generated_Source\PSoC4/CapSense.c ****     *  iDacRange:  represents value for IDAC range
2051:Generated_Source\PSoC4/CapSense.c ****     *  0 -  IDAC range set to 4x (1.2uA/bit)
2052:Generated_Source\PSoC4/CapSense.c ****     *  1 or >1 - IDAC range set to 8x (2.4uA/bit)
2053:Generated_Source\PSoC4/CapSense.c ****     *
2054:Generated_Source\PSoC4/CapSense.c ****     * Return:
2055:Generated_Source\PSoC4/CapSense.c ****     *  None.
2056:Generated_Source\PSoC4/CapSense.c ****     *
2057:Generated_Source\PSoC4/CapSense.c ****     * Global Variables:
2058:Generated_Source\PSoC4/CapSense.c ****     *  None
2059:Generated_Source\PSoC4/CapSense.c ****     *
2060:Generated_Source\PSoC4/CapSense.c ****     * Side Effects:
2061:Generated_Source\PSoC4/CapSense.c ****     *  None
2062:Generated_Source\PSoC4/CapSense.c ****     *
2063:Generated_Source\PSoC4/CapSense.c ****     *******************************************************************************/
2064:Generated_Source\PSoC4/CapSense.c ****     void CapSense_SetIDACRange(uint32 iDacRange)
2065:Generated_Source\PSoC4/CapSense.c ****     {
 1745              		.loc 1 2065 0
 1746              		.cfi_startproc
 1747              		@ args = 0, pretend = 0, frame = 0
 1748              		@ frame_needed = 0, uses_anonymous_args = 0
 1749              		@ link register save eliminated.
 1750              	.LVL186:
2066:Generated_Source\PSoC4/CapSense.c ****         if(iDacRange != 0u)
 1751              		.loc 1 2066 0
 1752 0000 0028     		cmp	r0, #0
 1753 0002 05D0     		beq	.L125
2067:Generated_Source\PSoC4/CapSense.c ****         {
2068:Generated_Source\PSoC4/CapSense.c ****             /*  IDAC range = 8x (2.4uA/bit) */
2069:Generated_Source\PSoC4/CapSense.c ****             CapSense_CSD_IDAC_REG |= (CapSense_CSD_IDAC1_RANGE_8X |\
 1754              		.loc 1 2069 0
 1755 0004 054A     		ldr	r2, .L127
 1756 0006 1368     		ldr	r3, [r2]
 1757 0008 0549     		ldr	r1, .L127+4
 1758 000a 0B43     		orrs	r3, r1
 1759 000c 1360     		str	r3, [r2]
 1760 000e 04E0     		b	.L124
 1761              	.L125:
2070:Generated_Source\PSoC4/CapSense.c ****                                               CapSense_CSD_IDAC2_RANGE_8X);
2071:Generated_Source\PSoC4/CapSense.c ****         }
ARM GAS  C:\Users\ZURUSH~1\AppData\Local\Temp\ccIBvwAy.s 			page 70


2072:Generated_Source\PSoC4/CapSense.c ****         else
2073:Generated_Source\PSoC4/CapSense.c ****         {
2074:Generated_Source\PSoC4/CapSense.c ****             /*  IDAC range = 4x (1.2uA/bit) */
2075:Generated_Source\PSoC4/CapSense.c ****             /*  IDAC range = 8x (2.4uA/bit) */
2076:Generated_Source\PSoC4/CapSense.c ****             CapSense_CSD_IDAC_REG &= ~(CapSense_CSD_IDAC1_RANGE_8X |\
 1762              		.loc 1 2076 0
 1763 0010 024A     		ldr	r2, .L127
 1764 0012 1168     		ldr	r1, [r2]
 1765 0014 034B     		ldr	r3, .L127+8
 1766 0016 0B40     		ands	r3, r1
 1767 0018 1360     		str	r3, [r2]
 1768              	.L124:
2077:Generated_Source\PSoC4/CapSense.c ****                                                CapSense_CSD_IDAC2_RANGE_8X);
2078:Generated_Source\PSoC4/CapSense.c ****         }
2079:Generated_Source\PSoC4/CapSense.c ****     }
 1769              		.loc 1 2079 0
 1770              		@ sp needed
 1771 001a 7047     		bx	lr
 1772              	.L128:
 1773              		.align	2
 1774              	.L127:
 1775 001c 08000840 		.word	1074266120
 1776 0020 00040004 		.word	67109888
 1777 0024 FFFBFFFB 		.word	-67109889
 1778              		.cfi_endproc
 1779              	.LFE68:
 1780              		.size	CapSense_SetIDACRange, .-CapSense_SetIDACRange
 1781              		.section	.text.CapSense_GetSensorRaw,"ax",%progbits
 1782              		.align	2
 1783              		.global	CapSense_GetSensorRaw
 1784              		.code	16
 1785              		.thumb_func
 1786              		.type	CapSense_GetSensorRaw, %function
 1787              	CapSense_GetSensorRaw:
 1788              	.LFB69:
2080:Generated_Source\PSoC4/CapSense.c **** #endif /* (CapSense_TUNING_METHOD != CapSense__TUNING_NONE) */
2081:Generated_Source\PSoC4/CapSense.c **** 
2082:Generated_Source\PSoC4/CapSense.c **** 
2083:Generated_Source\PSoC4/CapSense.c **** #if((0u != CapSense_AUTOCALIBRATION_ENABLE) || (CapSense_TUNING_METHOD == CapSense__TUNING_AUTO))
2084:Generated_Source\PSoC4/CapSense.c ****     /*******************************************************************************
2085:Generated_Source\PSoC4/CapSense.c ****     * Function Name: CapSense_GetSensorRaw
2086:Generated_Source\PSoC4/CapSense.c ****     ********************************************************************************
2087:Generated_Source\PSoC4/CapSense.c ****     *
2088:Generated_Source\PSoC4/CapSense.c ****     * Summary:
2089:Generated_Source\PSoC4/CapSense.c ****     *  The API updates and gets uprated raw data from the sensor.
2090:Generated_Source\PSoC4/CapSense.c ****     *
2091:Generated_Source\PSoC4/CapSense.c ****     * Parameters:
2092:Generated_Source\PSoC4/CapSense.c ****     *  sensor - Sensor number.
2093:Generated_Source\PSoC4/CapSense.c ****     *
2094:Generated_Source\PSoC4/CapSense.c ****     * Return:
2095:Generated_Source\PSoC4/CapSense.c ****     *  Returns the current raw data value for a defined sensor number.
2096:Generated_Source\PSoC4/CapSense.c ****     *
2097:Generated_Source\PSoC4/CapSense.c ****     * Global Variables:
2098:Generated_Source\PSoC4/CapSense.c ****     *  None
2099:Generated_Source\PSoC4/CapSense.c ****     *
2100:Generated_Source\PSoC4/CapSense.c ****     * Side Effects:
2101:Generated_Source\PSoC4/CapSense.c ****     *  None
ARM GAS  C:\Users\ZURUSH~1\AppData\Local\Temp\ccIBvwAy.s 			page 71


2102:Generated_Source\PSoC4/CapSense.c ****     *
2103:Generated_Source\PSoC4/CapSense.c ****     *******************************************************************************/
2104:Generated_Source\PSoC4/CapSense.c ****     uint16  CapSense_GetSensorRaw(uint32 sensor)
2105:Generated_Source\PSoC4/CapSense.c ****     {
 1789              		.loc 1 2105 0
 1790              		.cfi_startproc
 1791              		@ args = 0, pretend = 0, frame = 0
 1792              		@ frame_needed = 0, uses_anonymous_args = 0
 1793              	.LVL187:
 1794 0000 70B5     		push	{r4, r5, r6, lr}
 1795              		.cfi_def_cfa_offset 16
 1796              		.cfi_offset 4, -16
 1797              		.cfi_offset 5, -12
 1798              		.cfi_offset 6, -8
 1799              		.cfi_offset 14, -4
 1800 0002 0600     		movs	r6, r0
 1801              	.LVL188:
2106:Generated_Source\PSoC4/CapSense.c ****         uint32 curSample;
2107:Generated_Source\PSoC4/CapSense.c ****         uint32 avgVal = 0u;
 1802              		.loc 1 2107 0
 1803 0004 0024     		movs	r4, #0
2108:Generated_Source\PSoC4/CapSense.c **** 
2109:Generated_Source\PSoC4/CapSense.c ****         for(curSample = 0u; curSample < CapSense_AVG_SAMPLES_NUM; curSample++)
 1804              		.loc 1 2109 0
 1805 0006 0025     		movs	r5, #0
 1806 0008 0BE0     		b	.L130
 1807              	.LVL189:
 1808              	.L132:
2110:Generated_Source\PSoC4/CapSense.c ****         {
2111:Generated_Source\PSoC4/CapSense.c **** 
2112:Generated_Source\PSoC4/CapSense.c ****             CapSense_ScanSensor((uint32)sensor);
 1809              		.loc 1 2112 0
 1810 000a 3000     		movs	r0, r6
 1811 000c FFF7FEFF 		bl	CapSense_ScanSensor
 1812              	.LVL190:
 1813              	.L131:
2113:Generated_Source\PSoC4/CapSense.c ****             while(CapSense_IsBusy() == 1u)
 1814              		.loc 1 2113 0 discriminator 1
 1815 0010 FFF7FEFF 		bl	CapSense_IsBusy
 1816              	.LVL191:
 1817 0014 0128     		cmp	r0, #1
 1818 0016 FBD0     		beq	.L131
2114:Generated_Source\PSoC4/CapSense.c ****             {
2115:Generated_Source\PSoC4/CapSense.c ****                 /* Wait while sensor is busy */
2116:Generated_Source\PSoC4/CapSense.c ****             }
2117:Generated_Source\PSoC4/CapSense.c ****             avgVal += CapSense_ReadSensorRaw((uint32)sensor);
 1819              		.loc 1 2117 0 discriminator 2
 1820 0018 3000     		movs	r0, r6
 1821 001a FFF7FEFF 		bl	CapSense_ReadSensorRaw
 1822              	.LVL192:
 1823 001e 2418     		adds	r4, r4, r0
 1824              	.LVL193:
2109:Generated_Source\PSoC4/CapSense.c ****         {
 1825              		.loc 1 2109 0 discriminator 2
 1826 0020 0135     		adds	r5, r5, #1
 1827              	.LVL194:
 1828              	.L130:
ARM GAS  C:\Users\ZURUSH~1\AppData\Local\Temp\ccIBvwAy.s 			page 72


2109:Generated_Source\PSoC4/CapSense.c ****         {
 1829              		.loc 1 2109 0 is_stmt 0 discriminator 1
 1830 0022 002D     		cmp	r5, #0
 1831 0024 F1D0     		beq	.L132
2118:Generated_Source\PSoC4/CapSense.c ****         }
2119:Generated_Source\PSoC4/CapSense.c **** 
2120:Generated_Source\PSoC4/CapSense.c ****         return((uint16)(avgVal / CapSense_AVG_SAMPLES_NUM));
 1832              		.loc 1 2120 0 is_stmt 1
 1833 0026 A0B2     		uxth	r0, r4
2121:Generated_Source\PSoC4/CapSense.c ****     }
 1834              		.loc 1 2121 0
 1835              		@ sp needed
 1836              	.LVL195:
 1837              	.LVL196:
 1838              	.LVL197:
 1839 0028 70BD     		pop	{r4, r5, r6, pc}
 1840              		.cfi_endproc
 1841              	.LFE69:
 1842              		.size	CapSense_GetSensorRaw, .-CapSense_GetSensorRaw
 1843 002a C046     		.section	.text.CapSense_SetUnscannedSensorState,"ax",%progbits
 1844              		.align	2
 1845              		.global	CapSense_SetUnscannedSensorState
 1846              		.code	16
 1847              		.thumb_func
 1848              		.type	CapSense_SetUnscannedSensorState, %function
 1849              	CapSense_SetUnscannedSensorState:
 1850              	.LFB70:
2122:Generated_Source\PSoC4/CapSense.c **** #endif /* ((0u != CapSense_AUTOCALIBRATION_ENABLE) && (CapSense_TUNING_METHOD == CapSense__TUNING_A
2123:Generated_Source\PSoC4/CapSense.c **** 
2124:Generated_Source\PSoC4/CapSense.c **** 
2125:Generated_Source\PSoC4/CapSense.c **** #if((0u != CapSense_AUTOCALIBRATION_ENABLE) && (CapSense_TUNING_METHOD != CapSense__TUNING_AUTO))
2126:Generated_Source\PSoC4/CapSense.c ****     /*******************************************************************************
2127:Generated_Source\PSoC4/CapSense.c ****     * Function Name: CapSense_CalibrateSensor
2128:Generated_Source\PSoC4/CapSense.c ****     ********************************************************************************
2129:Generated_Source\PSoC4/CapSense.c ****     *
2130:Generated_Source\PSoC4/CapSense.c ****     * Summary:
2131:Generated_Source\PSoC4/CapSense.c ****     *  Computes the one sensor IDAC value, which provides the raw signal on
2132:Generated_Source\PSoC4/CapSense.c ****     *  a specified level, with a specified prescaler, speed, and resolution.
2133:Generated_Source\PSoC4/CapSense.c ****     *
2134:Generated_Source\PSoC4/CapSense.c ****     * Parameters:
2135:Generated_Source\PSoC4/CapSense.c ****     *  sensor - Sensor Number.
2136:Generated_Source\PSoC4/CapSense.c ****     *
2137:Generated_Source\PSoC4/CapSense.c ****     *  rawLevel -  Raw data level which should be reached during the calibration
2138:Generated_Source\PSoC4/CapSense.c ****     *              procedure.
2139:Generated_Source\PSoC4/CapSense.c ****     *
2140:Generated_Source\PSoC4/CapSense.c ****     *  idacLevelsTbl - Pointer to the modulatorIdac data register configuration table.
2141:Generated_Source\PSoC4/CapSense.c ****     *
2142:Generated_Source\PSoC4/CapSense.c ****     * Return:
2143:Generated_Source\PSoC4/CapSense.c ****     *  None
2144:Generated_Source\PSoC4/CapSense.c ****     *
2145:Generated_Source\PSoC4/CapSense.c ****     *******************************************************************************/
2146:Generated_Source\PSoC4/CapSense.c ****     void CapSense_CalibrateSensor(uint32 sensor, uint32 rawLevel, uint8 idacLevelsTbl[])
2147:Generated_Source\PSoC4/CapSense.c ****     {
2148:Generated_Source\PSoC4/CapSense.c ****         uint8 mask;
2149:Generated_Source\PSoC4/CapSense.c ****         uint16 rawData;
2150:Generated_Source\PSoC4/CapSense.c **** 
2151:Generated_Source\PSoC4/CapSense.c ****         rawData = 0u;
ARM GAS  C:\Users\ZURUSH~1\AppData\Local\Temp\ccIBvwAy.s 			page 73


2152:Generated_Source\PSoC4/CapSense.c **** 
2153:Generated_Source\PSoC4/CapSense.c ****         mask = 0x80u;
2154:Generated_Source\PSoC4/CapSense.c ****         /* Init IDAC for null Channel */
2155:Generated_Source\PSoC4/CapSense.c ****         idacLevelsTbl[sensor] = 0x00u;
2156:Generated_Source\PSoC4/CapSense.c **** 
2157:Generated_Source\PSoC4/CapSense.c ****         do
2158:Generated_Source\PSoC4/CapSense.c ****         {
2159:Generated_Source\PSoC4/CapSense.c ****             /* Set bit for null Channel */
2160:Generated_Source\PSoC4/CapSense.c ****             idacLevelsTbl[sensor] |= mask;
2161:Generated_Source\PSoC4/CapSense.c **** 
2162:Generated_Source\PSoC4/CapSense.c ****             /* Scan null Channel and get Rawdata */
2163:Generated_Source\PSoC4/CapSense.c ****             rawData = CapSense_GetSensorRaw(sensor);
2164:Generated_Source\PSoC4/CapSense.c **** 
2165:Generated_Source\PSoC4/CapSense.c ****             /* Decrease IDAC until Rawdata reaches rawLevel */
2166:Generated_Source\PSoC4/CapSense.c ****             if(rawData < rawLevel)
2167:Generated_Source\PSoC4/CapSense.c ****             {
2168:Generated_Source\PSoC4/CapSense.c ****                 /* Reset bit for null Channel  */
2169:Generated_Source\PSoC4/CapSense.c ****                 idacLevelsTbl[sensor] &= (uint8)~mask;
2170:Generated_Source\PSoC4/CapSense.c ****             }
2171:Generated_Source\PSoC4/CapSense.c **** 
2172:Generated_Source\PSoC4/CapSense.c ****             mask >>= 1u;
2173:Generated_Source\PSoC4/CapSense.c ****         }
2174:Generated_Source\PSoC4/CapSense.c ****         while(mask > 0u);
2175:Generated_Source\PSoC4/CapSense.c **** 
2176:Generated_Source\PSoC4/CapSense.c ****     }
