ARM GAS  C:\Users\ZTIPRI~1\AppData\Local\Temp\ccqOwDTe.s 			page 1


   1              		.syntax unified
   2              		.cpu cortex-m0
   3              		.fpu softvfp
   4              		.eabi_attribute 20, 1
   5              		.eabi_attribute 21, 1
   6              		.eabi_attribute 23, 3
   7              		.eabi_attribute 24, 1
   8              		.eabi_attribute 25, 1
   9              		.eabi_attribute 26, 1
  10              		.eabi_attribute 30, 1
  11              		.eabi_attribute 34, 0
  12              		.eabi_attribute 18, 4
  13              		.thumb
  14              		.syntax unified
  15              		.file	"CapSense_CSD_CSHL.c"
  16              		.text
  17              	.Ltext0:
  18              		.cfi_sections	.debug_frame
  19              		.section	.text.CapSense_CSD_BaseInit,"ax",%progbits
  20              		.align	2
  21              		.global	CapSense_CSD_BaseInit
  22              		.code	16
  23              		.thumb_func
  24              		.type	CapSense_CSD_BaseInit, %function
  25              	CapSense_CSD_BaseInit:
  26              	.LFB32:
  27              		.file 1 "Generated_Source\\PSoC4\\CapSense_CSD_CSHL.c"
   1:Generated_Source\PSoC4/CapSense_CSD_CSHL.c **** /*******************************************************************************
   2:Generated_Source\PSoC4/CapSense_CSD_CSHL.c **** * File Name: CapSense_CSD_CSHL.c
   3:Generated_Source\PSoC4/CapSense_CSD_CSHL.c **** * Version 2.60
   4:Generated_Source\PSoC4/CapSense_CSD_CSHL.c **** *
   5:Generated_Source\PSoC4/CapSense_CSD_CSHL.c **** * Description:
   6:Generated_Source\PSoC4/CapSense_CSD_CSHL.c **** *  This file provides the source code to the High Level APIs for the CapSesne
   7:Generated_Source\PSoC4/CapSense_CSD_CSHL.c **** *  CSD component.
   8:Generated_Source\PSoC4/CapSense_CSD_CSHL.c **** *
   9:Generated_Source\PSoC4/CapSense_CSD_CSHL.c **** * Note:
  10:Generated_Source\PSoC4/CapSense_CSD_CSHL.c **** *
  11:Generated_Source\PSoC4/CapSense_CSD_CSHL.c **** ********************************************************************************
  12:Generated_Source\PSoC4/CapSense_CSD_CSHL.c **** * Copyright 2013-2016, Cypress Semiconductor Corporation.  All rights reserved.
  13:Generated_Source\PSoC4/CapSense_CSD_CSHL.c **** * You may use this file only in accordance with the license, terms, conditions,
  14:Generated_Source\PSoC4/CapSense_CSD_CSHL.c **** * disclaimers, and limitations in the end user license agreement accompanying
  15:Generated_Source\PSoC4/CapSense_CSD_CSHL.c **** * the software package with which this file was provided.
  16:Generated_Source\PSoC4/CapSense_CSD_CSHL.c **** *******************************************************************************/
  17:Generated_Source\PSoC4/CapSense_CSD_CSHL.c **** 
  18:Generated_Source\PSoC4/CapSense_CSD_CSHL.c **** #include "CapSense_CSD_CSHL.h"
  19:Generated_Source\PSoC4/CapSense_CSD_CSHL.c **** #include "CapSense_CSD_PVT.h"
  20:Generated_Source\PSoC4/CapSense_CSD_CSHL.c **** 
  21:Generated_Source\PSoC4/CapSense_CSD_CSHL.c **** /* SmartSense functions */
  22:Generated_Source\PSoC4/CapSense_CSD_CSHL.c **** #if (CapSense_CSD_TUNING_METHOD == CapSense_CSD__TUNING_AUTO)
  23:Generated_Source\PSoC4/CapSense_CSD_CSHL.c ****     extern void CapSense_CSD_UpdateThresholds(uint32 sensor);
  24:Generated_Source\PSoC4/CapSense_CSD_CSHL.c **** #endif /* (CapSense_CSD_TUNING_METHOD == CapSense_CSD__TUNING_AUTO) */
  25:Generated_Source\PSoC4/CapSense_CSD_CSHL.c **** 
  26:Generated_Source\PSoC4/CapSense_CSD_CSHL.c **** /* Storage of filters data */
  27:Generated_Source\PSoC4/CapSense_CSD_CSHL.c **** #if ( (0u != (CapSense_CSD_RAW_FILTER_MASK & CapSense_CSD_MEDIAN_FILTER)) || \
  28:Generated_Source\PSoC4/CapSense_CSD_CSHL.c ****       (0u != (CapSense_CSD_RAW_FILTER_MASK & CapSense_CSD_AVERAGING_FILTER)) )
  29:Generated_Source\PSoC4/CapSense_CSD_CSHL.c **** 
  30:Generated_Source\PSoC4/CapSense_CSD_CSHL.c ****     uint16 CapSense_CSD_rawFilterData1[CapSense_CSD_TOTAL_SENSOR_COUNT];
ARM GAS  C:\Users\ZTIPRI~1\AppData\Local\Temp\ccqOwDTe.s 			page 2


  31:Generated_Source\PSoC4/CapSense_CSD_CSHL.c ****     uint16 CapSense_CSD_rawFilterData2[CapSense_CSD_TOTAL_SENSOR_COUNT];
  32:Generated_Source\PSoC4/CapSense_CSD_CSHL.c **** 
  33:Generated_Source\PSoC4/CapSense_CSD_CSHL.c **** #elif ( (0u != (CapSense_CSD_RAW_FILTER_MASK & CapSense_CSD_IIR2_FILTER))   || \
  34:Generated_Source\PSoC4/CapSense_CSD_CSHL.c ****         (0u != (CapSense_CSD_RAW_FILTER_MASK & CapSense_CSD_IIR4_FILTER))   || \
  35:Generated_Source\PSoC4/CapSense_CSD_CSHL.c ****         (0u != (CapSense_CSD_RAW_FILTER_MASK & CapSense_CSD_JITTER_FILTER)) || \
  36:Generated_Source\PSoC4/CapSense_CSD_CSHL.c ****         (0u != (CapSense_CSD_RAW_FILTER_MASK & CapSense_CSD_IIR8_FILTER))   || \
  37:Generated_Source\PSoC4/CapSense_CSD_CSHL.c ****         (0u != (CapSense_CSD_RAW_FILTER_MASK & CapSense_CSD_IIR16_FILTER)) )
  38:Generated_Source\PSoC4/CapSense_CSD_CSHL.c **** 
  39:Generated_Source\PSoC4/CapSense_CSD_CSHL.c ****     uint16 CapSense_CSD_rawFilterData1[CapSense_CSD_TOTAL_SENSOR_COUNT];
  40:Generated_Source\PSoC4/CapSense_CSD_CSHL.c **** #endif  /* ( (CapSense_CSD_RAW_FILTER_MASK & CapSense_CSD_MEDIAN_FILTER) || \
  41:Generated_Source\PSoC4/CapSense_CSD_CSHL.c ****         *    (CapSense_CSD_RAW_FILTER_MASK & CapSense_CSD_AVERAGING_FILTER) )
  42:Generated_Source\PSoC4/CapSense_CSD_CSHL.c ****         */
  43:Generated_Source\PSoC4/CapSense_CSD_CSHL.c **** 
  44:Generated_Source\PSoC4/CapSense_CSD_CSHL.c **** extern uint16 CapSense_CSD_sensorRaw[CapSense_CSD_TOTAL_SENSOR_COUNT];
  45:Generated_Source\PSoC4/CapSense_CSD_CSHL.c **** extern uint8 CapSense_CSD_sensorEnableMask[CapSense_CSD_TOTAL_SENSOR_MASK];
  46:Generated_Source\PSoC4/CapSense_CSD_CSHL.c **** extern const uint8 CapSense_CSD_widgetNumber[CapSense_CSD_TOTAL_SENSOR_COUNT];
  47:Generated_Source\PSoC4/CapSense_CSD_CSHL.c **** 
  48:Generated_Source\PSoC4/CapSense_CSD_CSHL.c **** #if (CapSense_CSD_TUNING_METHOD != CapSense_CSD__TUNING_NONE)
  49:Generated_Source\PSoC4/CapSense_CSD_CSHL.c ****     extern uint32 CapSense_CSD_widgetResolution[CapSense_CSD_RESOLUTIONS_TBL_SIZE];
  50:Generated_Source\PSoC4/CapSense_CSD_CSHL.c **** #endif /* (CapSense_CSD_TUNING_METHOD != CapSense_CSD__TUNING_NONE) */
  51:Generated_Source\PSoC4/CapSense_CSD_CSHL.c **** 
  52:Generated_Source\PSoC4/CapSense_CSD_CSHL.c **** uint16 CapSense_CSD_sensorBaseline[CapSense_CSD_TOTAL_SENSOR_COUNT] = {0u};
  53:Generated_Source\PSoC4/CapSense_CSD_CSHL.c **** uint8 CapSense_CSD_sensorBaselineLow[CapSense_CSD_TOTAL_SENSOR_COUNT] = {0u};
  54:Generated_Source\PSoC4/CapSense_CSD_CSHL.c **** uint8 CapSense_CSD_sensorSignal[CapSense_CSD_TOTAL_SENSOR_COUNT] = {0u};
  55:Generated_Source\PSoC4/CapSense_CSD_CSHL.c **** uint8 CapSense_CSD_sensorOnMask[CapSense_CSD_TOTAL_SENSOR_MASK] = {0u};
  56:Generated_Source\PSoC4/CapSense_CSD_CSHL.c **** 
  57:Generated_Source\PSoC4/CapSense_CSD_CSHL.c **** uint8 CapSense_CSD_lowBaselineResetCnt[CapSense_CSD_TOTAL_SENSOR_COUNT];
  58:Generated_Source\PSoC4/CapSense_CSD_CSHL.c **** uint8 CapSense_CSD_lowBaselineReset[CapSense_CSD_TOTAL_SENSOR_COUNT] = {
  59:Generated_Source\PSoC4/CapSense_CSD_CSHL.c ****     30u, 30u, 30u, 30u, 30u, 
  60:Generated_Source\PSoC4/CapSense_CSD_CSHL.c **** };
  61:Generated_Source\PSoC4/CapSense_CSD_CSHL.c **** 
  62:Generated_Source\PSoC4/CapSense_CSD_CSHL.c **** 
  63:Generated_Source\PSoC4/CapSense_CSD_CSHL.c **** 
  64:Generated_Source\PSoC4/CapSense_CSD_CSHL.c **** #if (CapSense_CSD_TUNING_METHOD == CapSense_CSD__TUNING_AUTO)
  65:Generated_Source\PSoC4/CapSense_CSD_CSHL.c ****     extern CapSense_CSD_CONFIG_TYPE_P4_v2_60 CapSense_CSD_config;
  66:Generated_Source\PSoC4/CapSense_CSD_CSHL.c **** #endif  /* (CapSense_CSD_TUNING_METHOD == CapSense_CSD__TUNING_AUTO) */
  67:Generated_Source\PSoC4/CapSense_CSD_CSHL.c **** 
  68:Generated_Source\PSoC4/CapSense_CSD_CSHL.c **** #if (CapSense_CSD_RAW_FILTER_MASK != 0u)
  69:Generated_Source\PSoC4/CapSense_CSD_CSHL.c **** uint8 CapSense_CSD_enableRawFilters = CapSense_CSD_RAW_FILTERS_ENABLED;
  70:Generated_Source\PSoC4/CapSense_CSD_CSHL.c **** #endif  /* (CapSense_CSD_RAW_FILTER_MASK != 0u) */
  71:Generated_Source\PSoC4/CapSense_CSD_CSHL.c **** 
  72:Generated_Source\PSoC4/CapSense_CSD_CSHL.c **** /* Generated by Customizer */
  73:Generated_Source\PSoC4/CapSense_CSD_CSHL.c **** uint8 CapSense_CSD_fingerThreshold[CapSense_CSD_THRESHOLD_TBL_SIZE];
  74:Generated_Source\PSoC4/CapSense_CSD_CSHL.c **** 
  75:Generated_Source\PSoC4/CapSense_CSD_CSHL.c **** uint8 CapSense_CSD_noiseThreshold[CapSense_CSD_THRESHOLD_TBL_SIZE];
  76:Generated_Source\PSoC4/CapSense_CSD_CSHL.c **** 
  77:Generated_Source\PSoC4/CapSense_CSD_CSHL.c **** uint8 CapSense_CSD_negativeNoiseThreshold[CapSense_CSD_THRESHOLD_TBL_SIZE];
  78:Generated_Source\PSoC4/CapSense_CSD_CSHL.c **** 
  79:Generated_Source\PSoC4/CapSense_CSD_CSHL.c **** uint8 CapSense_CSD_hysteresis[CapSense_CSD_WIDGET_PARAM_TBL_SIZE];
  80:Generated_Source\PSoC4/CapSense_CSD_CSHL.c **** 
  81:Generated_Source\PSoC4/CapSense_CSD_CSHL.c **** uint8 CapSense_CSD_debounce[] = {
  82:Generated_Source\PSoC4/CapSense_CSD_CSHL.c ****     5u, 5u, 5u, 5u, 5u, 
  83:Generated_Source\PSoC4/CapSense_CSD_CSHL.c **** };
  84:Generated_Source\PSoC4/CapSense_CSD_CSHL.c **** 
  85:Generated_Source\PSoC4/CapSense_CSD_CSHL.c **** static uint8 CapSense_CSD_debounceCounter[] = {
  86:Generated_Source\PSoC4/CapSense_CSD_CSHL.c ****     0u, 0u, 0u, 0u, 0u, 0u, 
  87:Generated_Source\PSoC4/CapSense_CSD_CSHL.c **** };
ARM GAS  C:\Users\ZTIPRI~1\AppData\Local\Temp\ccqOwDTe.s 			page 3


  88:Generated_Source\PSoC4/CapSense_CSD_CSHL.c **** 
  89:Generated_Source\PSoC4/CapSense_CSD_CSHL.c **** const uint8 CapSense_CSD_rawDataIndex[] = {
  90:Generated_Source\PSoC4/CapSense_CSD_CSHL.c ****     0u, /* Button0__BTN */
  91:Generated_Source\PSoC4/CapSense_CSD_CSHL.c ****     1u, /* Button1__BTN */
  92:Generated_Source\PSoC4/CapSense_CSD_CSHL.c ****     2u, /* Button2__BTN */
  93:Generated_Source\PSoC4/CapSense_CSD_CSHL.c ****     3u, /* Button3__BTN */
  94:Generated_Source\PSoC4/CapSense_CSD_CSHL.c ****     4u, /* Button4__BTN */
  95:Generated_Source\PSoC4/CapSense_CSD_CSHL.c **** };
  96:Generated_Source\PSoC4/CapSense_CSD_CSHL.c **** 
  97:Generated_Source\PSoC4/CapSense_CSD_CSHL.c **** const uint8 CapSense_CSD_numberOfSensors[] = {
  98:Generated_Source\PSoC4/CapSense_CSD_CSHL.c ****     1u, /* Button0__BTN */
  99:Generated_Source\PSoC4/CapSense_CSD_CSHL.c ****     1u, /* Button1__BTN */
 100:Generated_Source\PSoC4/CapSense_CSD_CSHL.c ****     1u, /* Button2__BTN */
 101:Generated_Source\PSoC4/CapSense_CSD_CSHL.c ****     1u, /* Button3__BTN */
 102:Generated_Source\PSoC4/CapSense_CSD_CSHL.c ****     1u, /* Button4__BTN */
 103:Generated_Source\PSoC4/CapSense_CSD_CSHL.c **** };
 104:Generated_Source\PSoC4/CapSense_CSD_CSHL.c **** 
 105:Generated_Source\PSoC4/CapSense_CSD_CSHL.c **** 
 106:Generated_Source\PSoC4/CapSense_CSD_CSHL.c **** 
 107:Generated_Source\PSoC4/CapSense_CSD_CSHL.c **** 
 108:Generated_Source\PSoC4/CapSense_CSD_CSHL.c **** /*******************************************************************************
 109:Generated_Source\PSoC4/CapSense_CSD_CSHL.c **** * Function Name: CapSense_CSD_BaseInit
 110:Generated_Source\PSoC4/CapSense_CSD_CSHL.c **** ********************************************************************************
 111:Generated_Source\PSoC4/CapSense_CSD_CSHL.c **** *
 112:Generated_Source\PSoC4/CapSense_CSD_CSHL.c **** * Summary:
 113:Generated_Source\PSoC4/CapSense_CSD_CSHL.c **** *  Loads the CapSense_CSD_sensorBaseline[sensor] array element with an
 114:Generated_Source\PSoC4/CapSense_CSD_CSHL.c **** *  initial value which is equal to the raw count value.
 115:Generated_Source\PSoC4/CapSense_CSD_CSHL.c **** *  Resets to zero CapSense_CSD_sensorBaselineLow[sensor] and
 116:Generated_Source\PSoC4/CapSense_CSD_CSHL.c **** *  CapSense_CSD_sensorSignal[sensor] array element.
 117:Generated_Source\PSoC4/CapSense_CSD_CSHL.c **** *  Loads the CapSense_CSD_rawFilterData2[sensor] and
 118:Generated_Source\PSoC4/CapSense_CSD_CSHL.c **** *  CapSense_CSD_rawFilterData2[sensor] array element with an
 119:Generated_Source\PSoC4/CapSense_CSD_CSHL.c **** *  initial value which is equal to the raw count value if the raw data filter is enabled.
 120:Generated_Source\PSoC4/CapSense_CSD_CSHL.c **** *
 121:Generated_Source\PSoC4/CapSense_CSD_CSHL.c **** * Parameters:
 122:Generated_Source\PSoC4/CapSense_CSD_CSHL.c **** *  sensor:  Sensor number.
 123:Generated_Source\PSoC4/CapSense_CSD_CSHL.c **** *
 124:Generated_Source\PSoC4/CapSense_CSD_CSHL.c **** * Return:
 125:Generated_Source\PSoC4/CapSense_CSD_CSHL.c **** *  None
 126:Generated_Source\PSoC4/CapSense_CSD_CSHL.c **** *
 127:Generated_Source\PSoC4/CapSense_CSD_CSHL.c **** * Global Variables:
 128:Generated_Source\PSoC4/CapSense_CSD_CSHL.c **** *  CapSense_CSD_sensorBaseline[]    - used to store the baseline value.
 129:Generated_Source\PSoC4/CapSense_CSD_CSHL.c **** *  CapSense_CSD_sensorBaselineLow[] - used to store the fraction byte of
 130:Generated_Source\PSoC4/CapSense_CSD_CSHL.c **** *  the baseline value.
 131:Generated_Source\PSoC4/CapSense_CSD_CSHL.c **** *  CapSense_CSD_sensorSignal[]      - used to store a difference between
 132:Generated_Source\PSoC4/CapSense_CSD_CSHL.c **** *  the current value of raw data and the previous value of the baseline.
 133:Generated_Source\PSoC4/CapSense_CSD_CSHL.c **** *  CapSense_CSD_rawFilterData1[]    - used to store a previous sample of
 134:Generated_Source\PSoC4/CapSense_CSD_CSHL.c **** *  any enabled raw data filter.
 135:Generated_Source\PSoC4/CapSense_CSD_CSHL.c **** *  CapSense_CSD_rawFilterData2[]    - used to store before a previous sample
 136:Generated_Source\PSoC4/CapSense_CSD_CSHL.c **** *  of the enabled raw data filter. Required only for median or average filters.
 137:Generated_Source\PSoC4/CapSense_CSD_CSHL.c **** *
 138:Generated_Source\PSoC4/CapSense_CSD_CSHL.c **** * Side Effects:
 139:Generated_Source\PSoC4/CapSense_CSD_CSHL.c **** *  None
 140:Generated_Source\PSoC4/CapSense_CSD_CSHL.c **** *
 141:Generated_Source\PSoC4/CapSense_CSD_CSHL.c **** *******************************************************************************/
 142:Generated_Source\PSoC4/CapSense_CSD_CSHL.c **** void CapSense_CSD_BaseInit(uint32 sensor)
 143:Generated_Source\PSoC4/CapSense_CSD_CSHL.c **** {
  28              		.loc 1 143 0
ARM GAS  C:\Users\ZTIPRI~1\AppData\Local\Temp\ccqOwDTe.s 			page 4


  29              		.cfi_startproc
  30              		@ args = 0, pretend = 0, frame = 0
  31              		@ frame_needed = 0, uses_anonymous_args = 0
  32              	.LVL0:
  33 0000 30B5     		push	{r4, r5, lr}
  34              		.cfi_def_cfa_offset 12
  35              		.cfi_offset 4, -12
  36              		.cfi_offset 5, -8
  37              		.cfi_offset 14, -4
 144:Generated_Source\PSoC4/CapSense_CSD_CSHL.c ****     #if ((CapSense_CSD_TOTAL_BUTTONS_COUNT) || (CapSense_CSD_TOTAL_MATRIX_BUTTONS_COUNT) || \
 145:Generated_Source\PSoC4/CapSense_CSD_CSHL.c ****          (CapSense_CSD_TOTAL_GENERICS_COUNT))
 146:Generated_Source\PSoC4/CapSense_CSD_CSHL.c ****         uint8 widget = CapSense_CSD_widgetNumber[sensor];
  38              		.loc 1 146 0
  39 0002 094B     		ldr	r3, .L2
  40 0004 1B5C     		ldrb	r3, [r3, r0]
  41              	.LVL1:
 147:Generated_Source\PSoC4/CapSense_CSD_CSHL.c ****     #endif /* ((CapSense_CSD_TOTAL_MATRIX_BUTTONS_COUNT) || (CapSense_CSD_TOTAL_MATRIX_BUTTONS_COUN
 148:Generated_Source\PSoC4/CapSense_CSD_CSHL.c **** 
 149:Generated_Source\PSoC4/CapSense_CSD_CSHL.c ****     #if (CapSense_CSD_TOTAL_MATRIX_BUTTONS_COUNT)
 150:Generated_Source\PSoC4/CapSense_CSD_CSHL.c ****         uint8 debounceIndex;
 151:Generated_Source\PSoC4/CapSense_CSD_CSHL.c ****     #endif  /* (CapSense_CSD_TOTAL_MATRIX_BUTTONS_COUNT) */
 152:Generated_Source\PSoC4/CapSense_CSD_CSHL.c **** 
 153:Generated_Source\PSoC4/CapSense_CSD_CSHL.c ****     #if (CapSense_CSD_TOTAL_GENERICS_COUNT)
 154:Generated_Source\PSoC4/CapSense_CSD_CSHL.c ****         /* Exclude generic widget */
 155:Generated_Source\PSoC4/CapSense_CSD_CSHL.c ****         if(widget < CapSense_CSD_END_OF_WIDGETS_INDEX)
 156:Generated_Source\PSoC4/CapSense_CSD_CSHL.c ****         {
 157:Generated_Source\PSoC4/CapSense_CSD_CSHL.c ****     #endif  /* CapSense_CSD_TOTAL_GENERICS_COUNT */
 158:Generated_Source\PSoC4/CapSense_CSD_CSHL.c **** 
 159:Generated_Source\PSoC4/CapSense_CSD_CSHL.c ****     /* Initialize Baseline */
 160:Generated_Source\PSoC4/CapSense_CSD_CSHL.c ****     CapSense_CSD_sensorBaseline[sensor] = CapSense_CSD_sensorRaw[sensor];
  42              		.loc 1 160 0
  43 0006 4200     		lsls	r2, r0, #1
  44 0008 0849     		ldr	r1, .L2+4
  45 000a 545A     		ldrh	r4, [r2, r1]
  46 000c 0849     		ldr	r1, .L2+8
  47 000e 5452     		strh	r4, [r2, r1]
 161:Generated_Source\PSoC4/CapSense_CSD_CSHL.c ****     CapSense_CSD_sensorBaselineLow[sensor] = 0u;
  48              		.loc 1 161 0
  49 0010 0818     		adds	r0, r1, r0
  50              	.LVL2:
  51 0012 0025     		movs	r5, #0
  52 0014 0573     		strb	r5, [r0, #12]
 162:Generated_Source\PSoC4/CapSense_CSD_CSHL.c ****     CapSense_CSD_sensorSignal[sensor] = 0u;
  53              		.loc 1 162 0
  54 0016 0575     		strb	r5, [r0, #20]
 163:Generated_Source\PSoC4/CapSense_CSD_CSHL.c **** 
 164:Generated_Source\PSoC4/CapSense_CSD_CSHL.c ****     CapSense_CSD_debounceCounter[widget] =  CapSense_CSD_debounce[widget];
  55              		.loc 1 164 0
  56 0018 0648     		ldr	r0, .L2+12
  57 001a C05C     		ldrb	r0, [r0, r3]
  58 001c CB18     		adds	r3, r1, r3
  59              	.LVL3:
  60 001e 1877     		strb	r0, [r3, #28]
 165:Generated_Source\PSoC4/CapSense_CSD_CSHL.c **** 
 166:Generated_Source\PSoC4/CapSense_CSD_CSHL.c **** 
 167:Generated_Source\PSoC4/CapSense_CSD_CSHL.c ****     #if ((0u != (CapSense_CSD_RAW_FILTER_MASK & CapSense_CSD_MEDIAN_FILTER)) ||\
 168:Generated_Source\PSoC4/CapSense_CSD_CSHL.c ****          (0u != (CapSense_CSD_RAW_FILTER_MASK & CapSense_CSD_AVERAGING_FILTER)))
ARM GAS  C:\Users\ZTIPRI~1\AppData\Local\Temp\ccqOwDTe.s 			page 5


 169:Generated_Source\PSoC4/CapSense_CSD_CSHL.c **** 
 170:Generated_Source\PSoC4/CapSense_CSD_CSHL.c ****         CapSense_CSD_rawFilterData1[sensor] = CapSense_CSD_sensorRaw[sensor];
 171:Generated_Source\PSoC4/CapSense_CSD_CSHL.c ****         CapSense_CSD_rawFilterData2[sensor] = CapSense_CSD_sensorRaw[sensor];
 172:Generated_Source\PSoC4/CapSense_CSD_CSHL.c **** 
 173:Generated_Source\PSoC4/CapSense_CSD_CSHL.c ****     #elif ((CapSense_CSD_RAW_FILTER_MASK & CapSense_CSD_IIR2_FILTER) ||\
 174:Generated_Source\PSoC4/CapSense_CSD_CSHL.c ****            (CapSense_CSD_RAW_FILTER_MASK & CapSense_CSD_IIR4_FILTER) ||\
 175:Generated_Source\PSoC4/CapSense_CSD_CSHL.c ****            (CapSense_CSD_RAW_FILTER_MASK & CapSense_CSD_JITTER_FILTER) ||\
 176:Generated_Source\PSoC4/CapSense_CSD_CSHL.c ****            (CapSense_CSD_RAW_FILTER_MASK & CapSense_CSD_IIR8_FILTER) ||\
 177:Generated_Source\PSoC4/CapSense_CSD_CSHL.c ****            (CapSense_CSD_RAW_FILTER_MASK & CapSense_CSD_IIR16_FILTER))
 178:Generated_Source\PSoC4/CapSense_CSD_CSHL.c **** 
 179:Generated_Source\PSoC4/CapSense_CSD_CSHL.c ****         CapSense_CSD_rawFilterData1[sensor] = CapSense_CSD_sensorRaw[sensor];
  61              		.loc 1 179 0
  62 0020 054B     		ldr	r3, .L2+16
  63 0022 D452     		strh	r4, [r2, r3]
 180:Generated_Source\PSoC4/CapSense_CSD_CSHL.c **** 
 181:Generated_Source\PSoC4/CapSense_CSD_CSHL.c ****     #else
 182:Generated_Source\PSoC4/CapSense_CSD_CSHL.c ****         /* No Raw filters */
 183:Generated_Source\PSoC4/CapSense_CSD_CSHL.c ****     #endif  /* ((CapSense_CSD_RAW_FILTER_MASK & CapSense_CSD_MEDIAN_FILTER) || \
 184:Generated_Source\PSoC4/CapSense_CSD_CSHL.c ****             *   (CapSense_CSD_RAW_FILTER_MASK & CapSense_CSD_AVERAGING_FILTER))
 185:Generated_Source\PSoC4/CapSense_CSD_CSHL.c ****             */
 186:Generated_Source\PSoC4/CapSense_CSD_CSHL.c **** 
 187:Generated_Source\PSoC4/CapSense_CSD_CSHL.c ****     #if (CapSense_CSD_TOTAL_GENERICS_COUNT)
 188:Generated_Source\PSoC4/CapSense_CSD_CSHL.c ****         /* Exclude generic widget */
 189:Generated_Source\PSoC4/CapSense_CSD_CSHL.c ****         }
 190:Generated_Source\PSoC4/CapSense_CSD_CSHL.c ****     #endif  /* CapSense_CSD_TOTAL_GENERICS_COUNT */
 191:Generated_Source\PSoC4/CapSense_CSD_CSHL.c **** }
  64              		.loc 1 191 0
  65              		@ sp needed
  66 0024 30BD     		pop	{r4, r5, pc}
  67              	.L3:
  68 0026 C046     		.align	2
  69              	.L2:
  70 0028 00000000 		.word	CapSense_CSD_widgetNumber
  71 002c 00000000 		.word	CapSense_CSD_sensorRaw
  72 0030 00000000 		.word	.LANCHOR0
  73 0034 00000000 		.word	.LANCHOR1
  74 0038 00000000 		.word	CapSense_CSD_rawFilterData1
  75              		.cfi_endproc
  76              	.LFE32:
  77              		.size	CapSense_CSD_BaseInit, .-CapSense_CSD_BaseInit
  78              		.section	.text.CapSense_CSD_InitializeSensorBaseline,"ax",%progbits
  79              		.align	2
  80              		.global	CapSense_CSD_InitializeSensorBaseline
  81              		.code	16
  82              		.thumb_func
  83              		.type	CapSense_CSD_InitializeSensorBaseline, %function
  84              	CapSense_CSD_InitializeSensorBaseline:
  85              	.LFB33:
 192:Generated_Source\PSoC4/CapSense_CSD_CSHL.c **** 
 193:Generated_Source\PSoC4/CapSense_CSD_CSHL.c **** 
 194:Generated_Source\PSoC4/CapSense_CSD_CSHL.c **** /*******************************************************************************
 195:Generated_Source\PSoC4/CapSense_CSD_CSHL.c **** * Function Name: CapSense_CSD_InitializeSensorBaseline
 196:Generated_Source\PSoC4/CapSense_CSD_CSHL.c **** ********************************************************************************
 197:Generated_Source\PSoC4/CapSense_CSD_CSHL.c **** *
 198:Generated_Source\PSoC4/CapSense_CSD_CSHL.c **** * Summary:
 199:Generated_Source\PSoC4/CapSense_CSD_CSHL.c **** *  Loads the CapSense_CSD_sensorBaseline[sensor] array element with an
 200:Generated_Source\PSoC4/CapSense_CSD_CSHL.c **** *  initial value by scanning the selected sensor (one channel design) or a pair
ARM GAS  C:\Users\ZTIPRI~1\AppData\Local\Temp\ccqOwDTe.s 			page 6


 201:Generated_Source\PSoC4/CapSense_CSD_CSHL.c **** *  of sensors (two channels designs). The raw count value is copied into the
 202:Generated_Source\PSoC4/CapSense_CSD_CSHL.c **** *  baseline array for each sensor. The raw data filters are initialized if
 203:Generated_Source\PSoC4/CapSense_CSD_CSHL.c **** *  enabled.
 204:Generated_Source\PSoC4/CapSense_CSD_CSHL.c **** *
 205:Generated_Source\PSoC4/CapSense_CSD_CSHL.c **** * Parameters:
 206:Generated_Source\PSoC4/CapSense_CSD_CSHL.c **** *  sensor:  Sensor number.
 207:Generated_Source\PSoC4/CapSense_CSD_CSHL.c **** *
 208:Generated_Source\PSoC4/CapSense_CSD_CSHL.c **** * Return:
 209:Generated_Source\PSoC4/CapSense_CSD_CSHL.c **** *  None
 210:Generated_Source\PSoC4/CapSense_CSD_CSHL.c **** *
 211:Generated_Source\PSoC4/CapSense_CSD_CSHL.c **** * Global Variables:
 212:Generated_Source\PSoC4/CapSense_CSD_CSHL.c **** *  None
 213:Generated_Source\PSoC4/CapSense_CSD_CSHL.c **** *
 214:Generated_Source\PSoC4/CapSense_CSD_CSHL.c **** * Side Effects:
 215:Generated_Source\PSoC4/CapSense_CSD_CSHL.c **** *  None
 216:Generated_Source\PSoC4/CapSense_CSD_CSHL.c **** *
 217:Generated_Source\PSoC4/CapSense_CSD_CSHL.c **** *******************************************************************************/
 218:Generated_Source\PSoC4/CapSense_CSD_CSHL.c **** void CapSense_CSD_InitializeSensorBaseline(uint32 sensor)
 219:Generated_Source\PSoC4/CapSense_CSD_CSHL.c **** {
  86              		.loc 1 219 0
  87              		.cfi_startproc
  88              		@ args = 0, pretend = 0, frame = 0
  89              		@ frame_needed = 0, uses_anonymous_args = 0
  90              	.LVL4:
  91 0000 10B5     		push	{r4, lr}
  92              		.cfi_def_cfa_offset 8
  93              		.cfi_offset 4, -8
  94              		.cfi_offset 14, -4
  95 0002 0400     		movs	r4, r0
 220:Generated_Source\PSoC4/CapSense_CSD_CSHL.c ****     /* Scan sensor */
 221:Generated_Source\PSoC4/CapSense_CSD_CSHL.c ****     CapSense_CSD_ScanSensor(sensor);
  96              		.loc 1 221 0
  97 0004 FFF7FEFF 		bl	CapSense_CSD_ScanSensor
  98              	.LVL5:
  99              	.L5:
 222:Generated_Source\PSoC4/CapSense_CSD_CSHL.c ****     while(CapSense_CSD_IsBusy() != 0u)
 100              		.loc 1 222 0 discriminator 1
 101 0008 FFF7FEFF 		bl	CapSense_CSD_IsBusy
 102              	.LVL6:
 103 000c 0028     		cmp	r0, #0
 104 000e FBD1     		bne	.L5
 223:Generated_Source\PSoC4/CapSense_CSD_CSHL.c ****     {
 224:Generated_Source\PSoC4/CapSense_CSD_CSHL.c ****         /* Wait while sensor is busy */
 225:Generated_Source\PSoC4/CapSense_CSD_CSHL.c ****     }
 226:Generated_Source\PSoC4/CapSense_CSD_CSHL.c **** 
 227:Generated_Source\PSoC4/CapSense_CSD_CSHL.c ****     /* Initialize Baseline, Signal and debounce counters */
 228:Generated_Source\PSoC4/CapSense_CSD_CSHL.c ****     CapSense_CSD_BaseInit(sensor);
 105              		.loc 1 228 0
 106 0010 2000     		movs	r0, r4
 107 0012 FFF7FEFF 		bl	CapSense_CSD_BaseInit
 108              	.LVL7:
 229:Generated_Source\PSoC4/CapSense_CSD_CSHL.c **** }
 109              		.loc 1 229 0
 110              		@ sp needed
 111              	.LVL8:
 112 0016 10BD     		pop	{r4, pc}
 113              		.cfi_endproc
ARM GAS  C:\Users\ZTIPRI~1\AppData\Local\Temp\ccqOwDTe.s 			page 7


 114              	.LFE33:
 115              		.size	CapSense_CSD_InitializeSensorBaseline, .-CapSense_CSD_InitializeSensorBaseline
 116              		.section	.text.CapSense_CSD_InitializeAllBaselines,"ax",%progbits
 117              		.align	2
 118              		.global	CapSense_CSD_InitializeAllBaselines
 119              		.code	16
 120              		.thumb_func
 121              		.type	CapSense_CSD_InitializeAllBaselines, %function
 122              	CapSense_CSD_InitializeAllBaselines:
 123              	.LFB34:
 230:Generated_Source\PSoC4/CapSense_CSD_CSHL.c **** 
 231:Generated_Source\PSoC4/CapSense_CSD_CSHL.c **** 
 232:Generated_Source\PSoC4/CapSense_CSD_CSHL.c **** /*******************************************************************************
 233:Generated_Source\PSoC4/CapSense_CSD_CSHL.c **** * Function Name: CapSense_CSD_InitializeAllBaselines
 234:Generated_Source\PSoC4/CapSense_CSD_CSHL.c **** ********************************************************************************
 235:Generated_Source\PSoC4/CapSense_CSD_CSHL.c **** *
 236:Generated_Source\PSoC4/CapSense_CSD_CSHL.c **** * Summary:
 237:Generated_Source\PSoC4/CapSense_CSD_CSHL.c **** *  Uses the CapSense_CSD_InitializeSensorBaseline function to load the
 238:Generated_Source\PSoC4/CapSense_CSD_CSHL.c **** *  CapSense_CSD_sensorBaseline[] array with an initial values by scanning
 239:Generated_Source\PSoC4/CapSense_CSD_CSHL.c **** *  all the sensors. The raw count values are copied into the baseline array for
 240:Generated_Source\PSoC4/CapSense_CSD_CSHL.c **** *  all the sensors. The raw data filters are initialized if enabled.
 241:Generated_Source\PSoC4/CapSense_CSD_CSHL.c **** *
 242:Generated_Source\PSoC4/CapSense_CSD_CSHL.c **** * Parameters:
 243:Generated_Source\PSoC4/CapSense_CSD_CSHL.c **** *  None
 244:Generated_Source\PSoC4/CapSense_CSD_CSHL.c **** *
 245:Generated_Source\PSoC4/CapSense_CSD_CSHL.c **** * Return:
 246:Generated_Source\PSoC4/CapSense_CSD_CSHL.c **** *  None
 247:Generated_Source\PSoC4/CapSense_CSD_CSHL.c **** *
 248:Generated_Source\PSoC4/CapSense_CSD_CSHL.c **** * Global Variables:
 249:Generated_Source\PSoC4/CapSense_CSD_CSHL.c **** *  None
 250:Generated_Source\PSoC4/CapSense_CSD_CSHL.c **** *
 251:Generated_Source\PSoC4/CapSense_CSD_CSHL.c **** * Side Effects:
 252:Generated_Source\PSoC4/CapSense_CSD_CSHL.c **** *  None
 253:Generated_Source\PSoC4/CapSense_CSD_CSHL.c **** *
 254:Generated_Source\PSoC4/CapSense_CSD_CSHL.c **** *******************************************************************************/
 255:Generated_Source\PSoC4/CapSense_CSD_CSHL.c **** void CapSense_CSD_InitializeAllBaselines(void)
 256:Generated_Source\PSoC4/CapSense_CSD_CSHL.c **** {
 124              		.loc 1 256 0
 125              		.cfi_startproc
 126              		@ args = 0, pretend = 0, frame = 0
 127              		@ frame_needed = 0, uses_anonymous_args = 0
 128 0000 10B5     		push	{r4, lr}
 129              		.cfi_def_cfa_offset 8
 130              		.cfi_offset 4, -8
 131              		.cfi_offset 14, -4
 132              	.LVL9:
 257:Generated_Source\PSoC4/CapSense_CSD_CSHL.c ****     uint32 i;
 258:Generated_Source\PSoC4/CapSense_CSD_CSHL.c **** 
 259:Generated_Source\PSoC4/CapSense_CSD_CSHL.c ****     for(i = 0u; i < CapSense_CSD_TOTAL_SCANSLOT_COUNT; i++)
 133              		.loc 1 259 0
 134 0002 0024     		movs	r4, #0
 135 0004 03E0     		b	.L7
 136              	.LVL10:
 137              	.L8:
 260:Generated_Source\PSoC4/CapSense_CSD_CSHL.c ****     {
 261:Generated_Source\PSoC4/CapSense_CSD_CSHL.c ****         CapSense_CSD_InitializeSensorBaseline(i);
 138              		.loc 1 261 0 discriminator 3
ARM GAS  C:\Users\ZTIPRI~1\AppData\Local\Temp\ccqOwDTe.s 			page 8


 139 0006 2000     		movs	r0, r4
 140 0008 FFF7FEFF 		bl	CapSense_CSD_InitializeSensorBaseline
 141              	.LVL11:
 259:Generated_Source\PSoC4/CapSense_CSD_CSHL.c ****     {
 142              		.loc 1 259 0 discriminator 3
 143 000c 0134     		adds	r4, r4, #1
 144              	.LVL12:
 145              	.L7:
 259:Generated_Source\PSoC4/CapSense_CSD_CSHL.c ****     {
 146              		.loc 1 259 0 is_stmt 0 discriminator 1
 147 000e 042C     		cmp	r4, #4
 148 0010 F9D9     		bls	.L8
 262:Generated_Source\PSoC4/CapSense_CSD_CSHL.c ****     }
 263:Generated_Source\PSoC4/CapSense_CSD_CSHL.c **** }
 149              		.loc 1 263 0 is_stmt 1
 150              		@ sp needed
 151              	.LVL13:
 152 0012 10BD     		pop	{r4, pc}
 153              		.cfi_endproc
 154              	.LFE34:
 155              		.size	CapSense_CSD_InitializeAllBaselines, .-CapSense_CSD_InitializeAllBaselines
 156              		.section	.text.CapSense_CSD_InitializeEnabledBaselines,"ax",%progbits
 157              		.align	2
 158              		.global	CapSense_CSD_InitializeEnabledBaselines
 159              		.code	16
 160              		.thumb_func
 161              		.type	CapSense_CSD_InitializeEnabledBaselines, %function
 162              	CapSense_CSD_InitializeEnabledBaselines:
 163              	.LFB35:
 264:Generated_Source\PSoC4/CapSense_CSD_CSHL.c **** 
 265:Generated_Source\PSoC4/CapSense_CSD_CSHL.c **** 
 266:Generated_Source\PSoC4/CapSense_CSD_CSHL.c **** /*******************************************************************************
 267:Generated_Source\PSoC4/CapSense_CSD_CSHL.c **** * Function Name: CapSense_CSD_InitializeEnabledBaselines
 268:Generated_Source\PSoC4/CapSense_CSD_CSHL.c **** ********************************************************************************
 269:Generated_Source\PSoC4/CapSense_CSD_CSHL.c **** *
 270:Generated_Source\PSoC4/CapSense_CSD_CSHL.c **** * Summary:
 271:Generated_Source\PSoC4/CapSense_CSD_CSHL.c **** *  Scans all the enabled widgets and the raw count values are copied into the
 272:Generated_Source\PSoC4/CapSense_CSD_CSHL.c **** *  baseline array for all the sensors enabled in the scanning process. The baselines
 273:Generated_Source\PSoC4/CapSense_CSD_CSHL.c **** *  are initialized with zero values for sensors disabled from the scanning process.
 274:Generated_Source\PSoC4/CapSense_CSD_CSHL.c **** *  The raw data filters are initialized if enabled.
 275:Generated_Source\PSoC4/CapSense_CSD_CSHL.c **** *
 276:Generated_Source\PSoC4/CapSense_CSD_CSHL.c **** * Parameters:
 277:Generated_Source\PSoC4/CapSense_CSD_CSHL.c **** *  None
 278:Generated_Source\PSoC4/CapSense_CSD_CSHL.c **** *
 279:Generated_Source\PSoC4/CapSense_CSD_CSHL.c **** * Return:
 280:Generated_Source\PSoC4/CapSense_CSD_CSHL.c **** *  None
 281:Generated_Source\PSoC4/CapSense_CSD_CSHL.c **** *
 282:Generated_Source\PSoC4/CapSense_CSD_CSHL.c **** * Global Variables:
 283:Generated_Source\PSoC4/CapSense_CSD_CSHL.c **** *  CapSense_CSD_sensorRaw[] - used to store the sensors raw data.
 284:Generated_Source\PSoC4/CapSense_CSD_CSHL.c **** *  CapSense_CSD_sensorEnableMask[ ] - used to store bit masks of the enabled sensors.
 285:Generated_Source\PSoC4/CapSense_CSD_CSHL.c **** *
 286:Generated_Source\PSoC4/CapSense_CSD_CSHL.c **** * Side Effects:
 287:Generated_Source\PSoC4/CapSense_CSD_CSHL.c **** *  None
 288:Generated_Source\PSoC4/CapSense_CSD_CSHL.c **** *
 289:Generated_Source\PSoC4/CapSense_CSD_CSHL.c **** *******************************************************************************/
 290:Generated_Source\PSoC4/CapSense_CSD_CSHL.c **** void CapSense_CSD_InitializeEnabledBaselines(void)
 291:Generated_Source\PSoC4/CapSense_CSD_CSHL.c **** {
ARM GAS  C:\Users\ZTIPRI~1\AppData\Local\Temp\ccqOwDTe.s 			page 9


 164              		.loc 1 291 0
 165              		.cfi_startproc
 166              		@ args = 0, pretend = 0, frame = 0
 167              		@ frame_needed = 0, uses_anonymous_args = 0
 168 0000 10B5     		push	{r4, lr}
 169              		.cfi_def_cfa_offset 8
 170              		.cfi_offset 4, -8
 171              		.cfi_offset 14, -4
 292:Generated_Source\PSoC4/CapSense_CSD_CSHL.c ****     uint32 i;
 293:Generated_Source\PSoC4/CapSense_CSD_CSHL.c ****     uint32 isSensorEnabled;
 294:Generated_Source\PSoC4/CapSense_CSD_CSHL.c **** 
 295:Generated_Source\PSoC4/CapSense_CSD_CSHL.c ****     CapSense_CSD_ScanEnabledWidgets();
 172              		.loc 1 295 0
 173 0002 FFF7FEFF 		bl	CapSense_CSD_ScanEnabledWidgets
 174              	.LVL14:
 175              	.L10:
 296:Generated_Source\PSoC4/CapSense_CSD_CSHL.c ****     while(CapSense_CSD_IsBusy() != 0u)
 176              		.loc 1 296 0 discriminator 1
 177 0006 FFF7FEFF 		bl	CapSense_CSD_IsBusy
 178              	.LVL15:
 179 000a 0028     		cmp	r0, #0
 180 000c FBD1     		bne	.L10
 181 000e 0024     		movs	r4, #0
 182 0010 09E0     		b	.L11
 183              	.LVL16:
 184              	.L13:
 297:Generated_Source\PSoC4/CapSense_CSD_CSHL.c ****     {
 298:Generated_Source\PSoC4/CapSense_CSD_CSHL.c ****         /* Wait while sensor is busy */
 299:Generated_Source\PSoC4/CapSense_CSD_CSHL.c ****     }
 300:Generated_Source\PSoC4/CapSense_CSD_CSHL.c **** 
 301:Generated_Source\PSoC4/CapSense_CSD_CSHL.c ****     for(i = 0u; i < CapSense_CSD_TOTAL_SENSOR_COUNT; i++)
 302:Generated_Source\PSoC4/CapSense_CSD_CSHL.c ****     {
 303:Generated_Source\PSoC4/CapSense_CSD_CSHL.c ****         isSensorEnabled = CapSense_CSD_GetBitValue(CapSense_CSD_sensorEnableMask, i);
 185              		.loc 1 303 0
 186 0012 2100     		movs	r1, r4
 187 0014 0548     		ldr	r0, .L14
 188 0016 FFF7FEFF 		bl	CapSense_CSD_GetBitValue
 189              	.LVL17:
 304:Generated_Source\PSoC4/CapSense_CSD_CSHL.c **** 
 305:Generated_Source\PSoC4/CapSense_CSD_CSHL.c ****         /* Clear raw data if sensor is disabled from scanning process */
 306:Generated_Source\PSoC4/CapSense_CSD_CSHL.c ****         if(isSensorEnabled != 0u)
 190              		.loc 1 306 0
 191 001a 0028     		cmp	r0, #0
 192 001c 02D0     		beq	.L12
 307:Generated_Source\PSoC4/CapSense_CSD_CSHL.c ****         {
 308:Generated_Source\PSoC4/CapSense_CSD_CSHL.c ****             /* Initialize baselines */
 309:Generated_Source\PSoC4/CapSense_CSD_CSHL.c ****             CapSense_CSD_BaseInit(i);
 193              		.loc 1 309 0
 194 001e 2000     		movs	r0, r4
 195              	.LVL18:
 196 0020 FFF7FEFF 		bl	CapSense_CSD_BaseInit
 197              	.LVL19:
 198              	.L12:
 301:Generated_Source\PSoC4/CapSense_CSD_CSHL.c ****     {
 199              		.loc 1 301 0 discriminator 2
 200 0024 0134     		adds	r4, r4, #1
 201              	.LVL20:
ARM GAS  C:\Users\ZTIPRI~1\AppData\Local\Temp\ccqOwDTe.s 			page 10


 202              	.L11:
 301:Generated_Source\PSoC4/CapSense_CSD_CSHL.c ****     {
 203              		.loc 1 301 0 is_stmt 0 discriminator 1
 204 0026 042C     		cmp	r4, #4
 205 0028 F3D9     		bls	.L13
 310:Generated_Source\PSoC4/CapSense_CSD_CSHL.c ****         }
 311:Generated_Source\PSoC4/CapSense_CSD_CSHL.c ****     }
 312:Generated_Source\PSoC4/CapSense_CSD_CSHL.c **** }
 206              		.loc 1 312 0 is_stmt 1
 207              		@ sp needed
 208              	.LVL21:
 209 002a 10BD     		pop	{r4, pc}
 210              	.L15:
 211              		.align	2
 212              	.L14:
 213 002c 00000000 		.word	CapSense_CSD_sensorEnableMask
 214              		.cfi_endproc
 215              	.LFE35:
 216              		.size	CapSense_CSD_InitializeEnabledBaselines, .-CapSense_CSD_InitializeEnabledBaselines
 217              		.section	.text.CapSense_CSD_GetBaselineData,"ax",%progbits
 218              		.align	2
 219              		.global	CapSense_CSD_GetBaselineData
 220              		.code	16
 221              		.thumb_func
 222              		.type	CapSense_CSD_GetBaselineData, %function
 223              	CapSense_CSD_GetBaselineData:
 224              	.LFB40:
 313:Generated_Source\PSoC4/CapSense_CSD_CSHL.c **** 
 314:Generated_Source\PSoC4/CapSense_CSD_CSHL.c **** 
 315:Generated_Source\PSoC4/CapSense_CSD_CSHL.c **** /*******************************************************************************
 316:Generated_Source\PSoC4/CapSense_CSD_CSHL.c **** * Function Name: CapSense_CSD_UpdateBaselineNoThreshold
 317:Generated_Source\PSoC4/CapSense_CSD_CSHL.c **** ********************************************************************************
 318:Generated_Source\PSoC4/CapSense_CSD_CSHL.c **** *
 319:Generated_Source\PSoC4/CapSense_CSD_CSHL.c **** * Summary:
 320:Generated_Source\PSoC4/CapSense_CSD_CSHL.c **** *  Updates the CapSense_CSD_sensorBaseline[sensor] array element using the
 321:Generated_Source\PSoC4/CapSense_CSD_CSHL.c **** *  LP filter with k = 256. The signal calculates the difference of count by
 322:Generated_Source\PSoC4/CapSense_CSD_CSHL.c **** *  subtracting the previous baseline from the current raw count value and stores
 323:Generated_Source\PSoC4/CapSense_CSD_CSHL.c **** *  it in CapSense_CSD_sensorSignal[sensor].
 324:Generated_Source\PSoC4/CapSense_CSD_CSHL.c **** *  If the auto reset option is enabled, the baseline updated regards the noise threshold.
 325:Generated_Source\PSoC4/CapSense_CSD_CSHL.c **** *  If the auto reset option is disabled, the baseline stops updating; baseline is loaded
 326:Generated_Source\PSoC4/CapSense_CSD_CSHL.c **** *  with a raw count value if a signal is greater than zero and if signal is less
 327:Generated_Source\PSoC4/CapSense_CSD_CSHL.c **** *  than noise threshold.
 328:Generated_Source\PSoC4/CapSense_CSD_CSHL.c **** *  Raw data filters are applied to the values if enabled before baseline
 329:Generated_Source\PSoC4/CapSense_CSD_CSHL.c **** *  calculation.
 330:Generated_Source\PSoC4/CapSense_CSD_CSHL.c **** *
 331:Generated_Source\PSoC4/CapSense_CSD_CSHL.c **** *  This API does not update the thresholds in the Smartsense Mode.
 332:Generated_Source\PSoC4/CapSense_CSD_CSHL.c **** *
 333:Generated_Source\PSoC4/CapSense_CSD_CSHL.c **** * Parameters:
 334:Generated_Source\PSoC4/CapSense_CSD_CSHL.c **** *  sensor:  Sensor number.
 335:Generated_Source\PSoC4/CapSense_CSD_CSHL.c **** *
 336:Generated_Source\PSoC4/CapSense_CSD_CSHL.c **** * Return:
 337:Generated_Source\PSoC4/CapSense_CSD_CSHL.c **** *  None
 338:Generated_Source\PSoC4/CapSense_CSD_CSHL.c **** *
 339:Generated_Source\PSoC4/CapSense_CSD_CSHL.c **** * Global Variables:
 340:Generated_Source\PSoC4/CapSense_CSD_CSHL.c **** *  CapSense_CSD_widgetNumber[]  - stores widget numbers.
 341:Generated_Source\PSoC4/CapSense_CSD_CSHL.c **** *  CapSense_CSD_sensorBaseline[]    - used to store baseline value.
 342:Generated_Source\PSoC4/CapSense_CSD_CSHL.c **** *  CapSense_CSD_sensorBaselineLow[] - used to store fraction byte of
ARM GAS  C:\Users\ZTIPRI~1\AppData\Local\Temp\ccqOwDTe.s 			page 11


 343:Generated_Source\PSoC4/CapSense_CSD_CSHL.c **** *  baseline value.
 344:Generated_Source\PSoC4/CapSense_CSD_CSHL.c **** *  CapSense_CSD_sensorSignal[]      - used to store difference between
 345:Generated_Source\PSoC4/CapSense_CSD_CSHL.c **** *  current value of raw data and previous value of baseline.
 346:Generated_Source\PSoC4/CapSense_CSD_CSHL.c **** *  CapSense_CSD_rawFilterData1[]    - used to store previous sample of
 347:Generated_Source\PSoC4/CapSense_CSD_CSHL.c **** *  any enabled raw data filter.
 348:Generated_Source\PSoC4/CapSense_CSD_CSHL.c **** *  CapSense_CSD_rawFilterData2[]    - used to store before previous sample
 349:Generated_Source\PSoC4/CapSense_CSD_CSHL.c **** *  of enabled raw data filter. Only required for median or average filters.
 350:Generated_Source\PSoC4/CapSense_CSD_CSHL.c **** *
 351:Generated_Source\PSoC4/CapSense_CSD_CSHL.c **** * Side Effects:
 352:Generated_Source\PSoC4/CapSense_CSD_CSHL.c **** *  None
 353:Generated_Source\PSoC4/CapSense_CSD_CSHL.c **** *
 354:Generated_Source\PSoC4/CapSense_CSD_CSHL.c **** *******************************************************************************/
 355:Generated_Source\PSoC4/CapSense_CSD_CSHL.c **** void CapSense_CSD_UpdateBaselineNoThreshold(uint32 sensor)
 356:Generated_Source\PSoC4/CapSense_CSD_CSHL.c **** {
 357:Generated_Source\PSoC4/CapSense_CSD_CSHL.c ****     uint32 calc;
 358:Generated_Source\PSoC4/CapSense_CSD_CSHL.c ****     uint32 sign;
 359:Generated_Source\PSoC4/CapSense_CSD_CSHL.c ****     uint16 tempRaw;
 360:Generated_Source\PSoC4/CapSense_CSD_CSHL.c ****     uint16 filteredRawData;
 361:Generated_Source\PSoC4/CapSense_CSD_CSHL.c ****     uint8 widget = CapSense_CSD_widgetNumber[sensor];
 362:Generated_Source\PSoC4/CapSense_CSD_CSHL.c ****     uint8 noiseThreshold;
 363:Generated_Source\PSoC4/CapSense_CSD_CSHL.c **** 
 364:Generated_Source\PSoC4/CapSense_CSD_CSHL.c ****     #if (CapSense_CSD_TOTAL_GENERICS_COUNT)
 365:Generated_Source\PSoC4/CapSense_CSD_CSHL.c ****         /* Exclude generic widget */
 366:Generated_Source\PSoC4/CapSense_CSD_CSHL.c ****         if(widget < CapSense_CSD_END_OF_WIDGETS_INDEX)
 367:Generated_Source\PSoC4/CapSense_CSD_CSHL.c ****         {
 368:Generated_Source\PSoC4/CapSense_CSD_CSHL.c ****     #endif  /* CapSense_CSD_TOTAL_GENERICS_COUNT */
 369:Generated_Source\PSoC4/CapSense_CSD_CSHL.c **** 
 370:Generated_Source\PSoC4/CapSense_CSD_CSHL.c ****     noiseThreshold = CapSense_CSD_noiseThreshold[widget];
 371:Generated_Source\PSoC4/CapSense_CSD_CSHL.c ****     filteredRawData = CapSense_CSD_sensorRaw[sensor];
 372:Generated_Source\PSoC4/CapSense_CSD_CSHL.c **** 
 373:Generated_Source\PSoC4/CapSense_CSD_CSHL.c ****     #if (CapSense_CSD_RAW_FILTER_MASK != 0u)
 374:Generated_Source\PSoC4/CapSense_CSD_CSHL.c ****     if(CapSense_CSD_enableRawFilters != 0u)
 375:Generated_Source\PSoC4/CapSense_CSD_CSHL.c ****     {
 376:Generated_Source\PSoC4/CapSense_CSD_CSHL.c ****         #if (CapSense_CSD_RAW_FILTER_MASK & CapSense_CSD_MEDIAN_FILTER)
 377:Generated_Source\PSoC4/CapSense_CSD_CSHL.c ****             tempRaw = filteredRawData;
 378:Generated_Source\PSoC4/CapSense_CSD_CSHL.c ****             filteredRawData = CapSense_CSD_MedianFilter(filteredRawData, CapSense_CSD_rawFilterData
 379:Generated_Source\PSoC4/CapSense_CSD_CSHL.c ****                                                             CapSense_CSD_rawFilterData2[sensor]);
 380:Generated_Source\PSoC4/CapSense_CSD_CSHL.c ****             CapSense_CSD_rawFilterData2[sensor] = CapSense_CSD_rawFilterData1[sensor];
 381:Generated_Source\PSoC4/CapSense_CSD_CSHL.c ****             CapSense_CSD_rawFilterData1[sensor] = tempRaw;
 382:Generated_Source\PSoC4/CapSense_CSD_CSHL.c **** 
 383:Generated_Source\PSoC4/CapSense_CSD_CSHL.c ****         #elif (CapSense_CSD_RAW_FILTER_MASK & CapSense_CSD_AVERAGING_FILTER)
 384:Generated_Source\PSoC4/CapSense_CSD_CSHL.c ****             tempRaw = filteredRawData;
 385:Generated_Source\PSoC4/CapSense_CSD_CSHL.c ****             filteredRawData = CapSense_CSD_AveragingFilter(filteredRawData, CapSense_CSD_rawFilterD
 386:Generated_Source\PSoC4/CapSense_CSD_CSHL.c ****                                                                CapSense_CSD_rawFilterData2[sensor])
 387:Generated_Source\PSoC4/CapSense_CSD_CSHL.c ****             CapSense_CSD_rawFilterData2[sensor] = CapSense_CSD_rawFilterData1[sensor];
 388:Generated_Source\PSoC4/CapSense_CSD_CSHL.c ****             CapSense_CSD_rawFilterData1[sensor] = tempRaw;
 389:Generated_Source\PSoC4/CapSense_CSD_CSHL.c **** 
 390:Generated_Source\PSoC4/CapSense_CSD_CSHL.c ****         #elif (CapSense_CSD_RAW_FILTER_MASK & CapSense_CSD_IIR2_FILTER)
 391:Generated_Source\PSoC4/CapSense_CSD_CSHL.c ****             filteredRawData = CapSense_CSD_IIR2Filter(filteredRawData, CapSense_CSD_rawFilterData1[
 392:Generated_Source\PSoC4/CapSense_CSD_CSHL.c ****             CapSense_CSD_rawFilterData1[sensor] = filteredRawData;
 393:Generated_Source\PSoC4/CapSense_CSD_CSHL.c **** 
 394:Generated_Source\PSoC4/CapSense_CSD_CSHL.c ****         #elif (CapSense_CSD_RAW_FILTER_MASK & CapSense_CSD_IIR4_FILTER)
 395:Generated_Source\PSoC4/CapSense_CSD_CSHL.c ****             filteredRawData = CapSense_CSD_IIR4Filter(filteredRawData, CapSense_CSD_rawFilterData1[
 396:Generated_Source\PSoC4/CapSense_CSD_CSHL.c ****             CapSense_CSD_rawFilterData1[sensor] = filteredRawData;
 397:Generated_Source\PSoC4/CapSense_CSD_CSHL.c **** 
 398:Generated_Source\PSoC4/CapSense_CSD_CSHL.c ****         #elif (CapSense_CSD_RAW_FILTER_MASK & CapSense_CSD_JITTER_FILTER)
 399:Generated_Source\PSoC4/CapSense_CSD_CSHL.c ****             filteredRawData = CapSense_CSD_JitterFilter(filteredRawData, CapSense_CSD_rawFilterData
ARM GAS  C:\Users\ZTIPRI~1\AppData\Local\Temp\ccqOwDTe.s 			page 12


 400:Generated_Source\PSoC4/CapSense_CSD_CSHL.c ****             CapSense_CSD_rawFilterData1[sensor] = filteredRawData;
 401:Generated_Source\PSoC4/CapSense_CSD_CSHL.c **** 
 402:Generated_Source\PSoC4/CapSense_CSD_CSHL.c ****         #elif (CapSense_CSD_RAW_FILTER_MASK & CapSense_CSD_IIR8_FILTER)
 403:Generated_Source\PSoC4/CapSense_CSD_CSHL.c ****             filteredRawData = CapSense_CSD_IIR8Filter(filteredRawData, CapSense_CSD_rawFilterData1[
 404:Generated_Source\PSoC4/CapSense_CSD_CSHL.c ****             CapSense_CSD_rawFilterData1[sensor] = filteredRawData;
 405:Generated_Source\PSoC4/CapSense_CSD_CSHL.c **** 
 406:Generated_Source\PSoC4/CapSense_CSD_CSHL.c ****         #elif (CapSense_CSD_RAW_FILTER_MASK & CapSense_CSD_IIR16_FILTER)
 407:Generated_Source\PSoC4/CapSense_CSD_CSHL.c ****             filteredRawData = CapSense_CSD_IIR16Filter(filteredRawData, CapSense_CSD_rawFilterData1
 408:Generated_Source\PSoC4/CapSense_CSD_CSHL.c ****             CapSense_CSD_rawFilterData1[sensor] = filteredRawData;
 409:Generated_Source\PSoC4/CapSense_CSD_CSHL.c **** 
 410:Generated_Source\PSoC4/CapSense_CSD_CSHL.c ****         #else
 411:Generated_Source\PSoC4/CapSense_CSD_CSHL.c ****             /* No Raw filters */
 412:Generated_Source\PSoC4/CapSense_CSD_CSHL.c ****         #endif  /* (CapSense_CSD_RAW_FILTER_MASK & CapSense_CSD_MEDIAN_FILTER) */
 413:Generated_Source\PSoC4/CapSense_CSD_CSHL.c ****     }
 414:Generated_Source\PSoC4/CapSense_CSD_CSHL.c ****     #endif  /* (CapSense_CSD_RAW_FILTER_MASK != 0u) */
 415:Generated_Source\PSoC4/CapSense_CSD_CSHL.c **** 
 416:Generated_Source\PSoC4/CapSense_CSD_CSHL.c ****     #if (CapSense_CSD_TUNING_METHOD == CapSense_CSD__TUNING_AUTO)
 417:Generated_Source\PSoC4/CapSense_CSD_CSHL.c ****         MeasureNoiseEnvelope_P4_v2_60(&CapSense_CSD_config, (uint8)sensor, CapSense_CSD_sensorRaw);
 418:Generated_Source\PSoC4/CapSense_CSD_CSHL.c ****     #endif /* (CapSense_CSD_TUNING_METHOD == CapSense_CSD__TUNING_AUTO) */
 419:Generated_Source\PSoC4/CapSense_CSD_CSHL.c **** 
 420:Generated_Source\PSoC4/CapSense_CSD_CSHL.c ****     /* Baseline calculation */
 421:Generated_Source\PSoC4/CapSense_CSD_CSHL.c ****     /* Calculate difference RawData[cur] - Baseline[prev] */
 422:Generated_Source\PSoC4/CapSense_CSD_CSHL.c ****     if(filteredRawData >= CapSense_CSD_sensorBaseline[sensor])
 423:Generated_Source\PSoC4/CapSense_CSD_CSHL.c ****     {
 424:Generated_Source\PSoC4/CapSense_CSD_CSHL.c ****         CapSense_CSD_lowBaselineResetCnt[sensor] = 0u;
 425:Generated_Source\PSoC4/CapSense_CSD_CSHL.c ****         tempRaw = filteredRawData - CapSense_CSD_sensorBaseline[sensor];
 426:Generated_Source\PSoC4/CapSense_CSD_CSHL.c ****         sign = 1u;    /* Positive difference - Calculate the Signal */
 427:Generated_Source\PSoC4/CapSense_CSD_CSHL.c ****     }
 428:Generated_Source\PSoC4/CapSense_CSD_CSHL.c ****     else
 429:Generated_Source\PSoC4/CapSense_CSD_CSHL.c ****     {
 430:Generated_Source\PSoC4/CapSense_CSD_CSHL.c ****         tempRaw = CapSense_CSD_sensorBaseline[sensor] - filteredRawData;
 431:Generated_Source\PSoC4/CapSense_CSD_CSHL.c ****         sign = 0u;    /* Negative difference - Do NOT calculate the Signal */
 432:Generated_Source\PSoC4/CapSense_CSD_CSHL.c ****     }
 433:Generated_Source\PSoC4/CapSense_CSD_CSHL.c **** 
 434:Generated_Source\PSoC4/CapSense_CSD_CSHL.c ****     #if (CapSense_CSD_TUNING_METHOD != CapSense_CSD__TUNING_NONE)
 435:Generated_Source\PSoC4/CapSense_CSD_CSHL.c ****     if((sign == 0u) && (tempRaw > (uint16) CapSense_CSD_negativeNoiseThreshold[widget]))
 436:Generated_Source\PSoC4/CapSense_CSD_CSHL.c ****     #else
 437:Generated_Source\PSoC4/CapSense_CSD_CSHL.c ****     if((sign == 0u) && (tempRaw > (uint16) CapSense_CSD_NEGATIVE_NOISE_THRESHOLD))
 438:Generated_Source\PSoC4/CapSense_CSD_CSHL.c ****     #endif /* (CapSense_CSD_TUNING_METHOD != CapSense_CSD__TUNING_NONE) */
 439:Generated_Source\PSoC4/CapSense_CSD_CSHL.c ****     {
 440:Generated_Source\PSoC4/CapSense_CSD_CSHL.c ****         if(CapSense_CSD_lowBaselineResetCnt[sensor] >= CapSense_CSD_lowBaselineReset[sensor])
 441:Generated_Source\PSoC4/CapSense_CSD_CSHL.c ****         {
 442:Generated_Source\PSoC4/CapSense_CSD_CSHL.c ****             CapSense_CSD_BaseInit(sensor);
 443:Generated_Source\PSoC4/CapSense_CSD_CSHL.c ****             CapSense_CSD_lowBaselineResetCnt[sensor] = 0u;
 444:Generated_Source\PSoC4/CapSense_CSD_CSHL.c ****         }
 445:Generated_Source\PSoC4/CapSense_CSD_CSHL.c ****         else
 446:Generated_Source\PSoC4/CapSense_CSD_CSHL.c ****         {
 447:Generated_Source\PSoC4/CapSense_CSD_CSHL.c ****             CapSense_CSD_lowBaselineResetCnt[sensor]++;
 448:Generated_Source\PSoC4/CapSense_CSD_CSHL.c ****         }
 449:Generated_Source\PSoC4/CapSense_CSD_CSHL.c ****     }
 450:Generated_Source\PSoC4/CapSense_CSD_CSHL.c ****     else
 451:Generated_Source\PSoC4/CapSense_CSD_CSHL.c ****     {
 452:Generated_Source\PSoC4/CapSense_CSD_CSHL.c ****         #if (CapSense_CSD_AUTO_RESET == CapSense_CSD_AUTO_RESET_DISABLE)
 453:Generated_Source\PSoC4/CapSense_CSD_CSHL.c ****         #if (CapSense_CSD_TUNING_METHOD != CapSense_CSD__TUNING_NONE)
 454:Generated_Source\PSoC4/CapSense_CSD_CSHL.c ****             /* Update Baseline if lower than noiseThreshold */
 455:Generated_Source\PSoC4/CapSense_CSD_CSHL.c ****             if ( (tempRaw <= noiseThreshold) ||
 456:Generated_Source\PSoC4/CapSense_CSD_CSHL.c ****              ((tempRaw < (uint16) CapSense_CSD_negativeNoiseThreshold[widget])
ARM GAS  C:\Users\ZTIPRI~1\AppData\Local\Temp\ccqOwDTe.s 			page 13


 457:Generated_Source\PSoC4/CapSense_CSD_CSHL.c ****                && (sign == 0u)))
 458:Generated_Source\PSoC4/CapSense_CSD_CSHL.c ****             {
 459:Generated_Source\PSoC4/CapSense_CSD_CSHL.c ****         #else
 460:Generated_Source\PSoC4/CapSense_CSD_CSHL.c ****             /* Update Baseline if lower than noiseThreshold */
 461:Generated_Source\PSoC4/CapSense_CSD_CSHL.c ****             if ( (tempRaw <= noiseThreshold) ||
 462:Generated_Source\PSoC4/CapSense_CSD_CSHL.c ****                  ((tempRaw < (uint16) CapSense_CSD_NEGATIVE_NOISE_THRESHOLD)
 463:Generated_Source\PSoC4/CapSense_CSD_CSHL.c ****                    && (sign == 0u)))
 464:Generated_Source\PSoC4/CapSense_CSD_CSHL.c ****             {
 465:Generated_Source\PSoC4/CapSense_CSD_CSHL.c ****         #endif /* (CapSense_CSD_TUNING_METHOD != CapSense_CSD__TUNING_NONE) */
 466:Generated_Source\PSoC4/CapSense_CSD_CSHL.c ****         #endif /* (CapSense_CSD_AUTO_RESET == CapSense_CSD_AUTO_RESET_DISABLE) */
 467:Generated_Source\PSoC4/CapSense_CSD_CSHL.c ****                 /* Make full Baseline 23 bits */
 468:Generated_Source\PSoC4/CapSense_CSD_CSHL.c ****                 calc = (uint32) CapSense_CSD_sensorBaseline[sensor] << 8u;
 469:Generated_Source\PSoC4/CapSense_CSD_CSHL.c ****                 calc |= (uint32) CapSense_CSD_sensorBaselineLow[sensor];
 470:Generated_Source\PSoC4/CapSense_CSD_CSHL.c **** 
 471:Generated_Source\PSoC4/CapSense_CSD_CSHL.c ****                 /* Add Raw Data to Baseline */
 472:Generated_Source\PSoC4/CapSense_CSD_CSHL.c ****                 calc += filteredRawData;
 473:Generated_Source\PSoC4/CapSense_CSD_CSHL.c **** 
 474:Generated_Source\PSoC4/CapSense_CSD_CSHL.c ****                 /* Sub the high Baseline */
 475:Generated_Source\PSoC4/CapSense_CSD_CSHL.c ****                 calc -= CapSense_CSD_sensorBaseline[sensor];
 476:Generated_Source\PSoC4/CapSense_CSD_CSHL.c **** 
 477:Generated_Source\PSoC4/CapSense_CSD_CSHL.c ****                 /* Put Baseline and BaselineLow */
 478:Generated_Source\PSoC4/CapSense_CSD_CSHL.c ****                 CapSense_CSD_sensorBaseline[sensor] = ((uint16) (calc >> 8u));
 479:Generated_Source\PSoC4/CapSense_CSD_CSHL.c ****                 CapSense_CSD_sensorBaselineLow[sensor] = ((uint8) calc);
 480:Generated_Source\PSoC4/CapSense_CSD_CSHL.c **** 
 481:Generated_Source\PSoC4/CapSense_CSD_CSHL.c ****                 CapSense_CSD_lowBaselineResetCnt[sensor] = 0u;
 482:Generated_Source\PSoC4/CapSense_CSD_CSHL.c ****         #if (CapSense_CSD_AUTO_RESET == CapSense_CSD_AUTO_RESET_DISABLE)
 483:Generated_Source\PSoC4/CapSense_CSD_CSHL.c ****             }
 484:Generated_Source\PSoC4/CapSense_CSD_CSHL.c ****         #endif /* (CapSense_CSD_AUTO_RESET == CapSense_CSD_AUTO_RESET_DISABLE) */
 485:Generated_Source\PSoC4/CapSense_CSD_CSHL.c ****     }
 486:Generated_Source\PSoC4/CapSense_CSD_CSHL.c **** 
 487:Generated_Source\PSoC4/CapSense_CSD_CSHL.c ****     /* Calculate Signal if positive difference > noiseThreshold */
 488:Generated_Source\PSoC4/CapSense_CSD_CSHL.c ****     if((tempRaw > (uint16) noiseThreshold) && (sign != 0u))
 489:Generated_Source\PSoC4/CapSense_CSD_CSHL.c ****     {
 490:Generated_Source\PSoC4/CapSense_CSD_CSHL.c ****         #if (CapSense_CSD_SIGNAL_SIZE == CapSense_CSD_SIGNAL_SIZE_UINT8)
 491:Generated_Source\PSoC4/CapSense_CSD_CSHL.c ****             /* Over flow defence for uint8 */
 492:Generated_Source\PSoC4/CapSense_CSD_CSHL.c ****             if (tempRaw > 0xFFu)
 493:Generated_Source\PSoC4/CapSense_CSD_CSHL.c ****             {
 494:Generated_Source\PSoC4/CapSense_CSD_CSHL.c ****                 CapSense_CSD_sensorSignal[sensor] = 0xFFu;
 495:Generated_Source\PSoC4/CapSense_CSD_CSHL.c ****             }
 496:Generated_Source\PSoC4/CapSense_CSD_CSHL.c ****             else
 497:Generated_Source\PSoC4/CapSense_CSD_CSHL.c ****             {
 498:Generated_Source\PSoC4/CapSense_CSD_CSHL.c ****                 CapSense_CSD_sensorSignal[sensor] = ((uint8) tempRaw);
 499:Generated_Source\PSoC4/CapSense_CSD_CSHL.c ****             }
 500:Generated_Source\PSoC4/CapSense_CSD_CSHL.c ****         #else
 501:Generated_Source\PSoC4/CapSense_CSD_CSHL.c ****             CapSense_CSD_sensorSignal[sensor] = ((uint16) tempRaw);
 502:Generated_Source\PSoC4/CapSense_CSD_CSHL.c ****         #endif  /* (CapSense_CSD_SIGNAL_SIZE == CapSense_CSD_SIGNAL_SIZE_UINT8) */
 503:Generated_Source\PSoC4/CapSense_CSD_CSHL.c ****     }
 504:Generated_Source\PSoC4/CapSense_CSD_CSHL.c ****     else
 505:Generated_Source\PSoC4/CapSense_CSD_CSHL.c ****     {
 506:Generated_Source\PSoC4/CapSense_CSD_CSHL.c ****         /* Signal is zero */
 507:Generated_Source\PSoC4/CapSense_CSD_CSHL.c ****         CapSense_CSD_sensorSignal[sensor] = 0u;
 508:Generated_Source\PSoC4/CapSense_CSD_CSHL.c ****     }
 509:Generated_Source\PSoC4/CapSense_CSD_CSHL.c **** 
 510:Generated_Source\PSoC4/CapSense_CSD_CSHL.c ****     #if (CapSense_CSD_TOTAL_GENERICS_COUNT)
 511:Generated_Source\PSoC4/CapSense_CSD_CSHL.c ****         /* Exclude generic widget */
 512:Generated_Source\PSoC4/CapSense_CSD_CSHL.c ****         }
 513:Generated_Source\PSoC4/CapSense_CSD_CSHL.c ****     #endif  /* CapSense_CSD_TOTAL_GENERICS_COUNT */
ARM GAS  C:\Users\ZTIPRI~1\AppData\Local\Temp\ccqOwDTe.s 			page 14


 514:Generated_Source\PSoC4/CapSense_CSD_CSHL.c **** }
 515:Generated_Source\PSoC4/CapSense_CSD_CSHL.c **** 
 516:Generated_Source\PSoC4/CapSense_CSD_CSHL.c **** 
 517:Generated_Source\PSoC4/CapSense_CSD_CSHL.c **** /*******************************************************************************
 518:Generated_Source\PSoC4/CapSense_CSD_CSHL.c **** * Function Name: CapSense_CSD_UpdateSensorBaseline
 519:Generated_Source\PSoC4/CapSense_CSD_CSHL.c **** ********************************************************************************
 520:Generated_Source\PSoC4/CapSense_CSD_CSHL.c **** *
 521:Generated_Source\PSoC4/CapSense_CSD_CSHL.c **** * Summary:
 522:Generated_Source\PSoC4/CapSense_CSD_CSHL.c **** *  Updates the CapSense_CSD_sensorBaseline[sensor] array element using the
 523:Generated_Source\PSoC4/CapSense_CSD_CSHL.c **** *  LP filter with k = 256. The signal calculates the difference of count by
 524:Generated_Source\PSoC4/CapSense_CSD_CSHL.c **** *  subtracting the previous baseline from the current raw count value and stores
 525:Generated_Source\PSoC4/CapSense_CSD_CSHL.c **** *  it in CapSense_CSD_sensorSignal[sensor].
 526:Generated_Source\PSoC4/CapSense_CSD_CSHL.c **** *  If the auto reset option is enabled, the baseline updated regards the noise threshold.
 527:Generated_Source\PSoC4/CapSense_CSD_CSHL.c **** *  If the auto reset option is disabled, the baseline stops updating.
 528:Generated_Source\PSoC4/CapSense_CSD_CSHL.c **** *  Baseline is loaded with raw count value if a signal is greater than zero and
 529:Generated_Source\PSoC4/CapSense_CSD_CSHL.c **** *  if signal is less than noise threshold.
 530:Generated_Source\PSoC4/CapSense_CSD_CSHL.c **** *  Raw data filters are applied to the values if enabled before baseline
 531:Generated_Source\PSoC4/CapSense_CSD_CSHL.c **** *  calculation.
 532:Generated_Source\PSoC4/CapSense_CSD_CSHL.c **** *  This API updates the thresholds in the Smartsense Mode.
 533:Generated_Source\PSoC4/CapSense_CSD_CSHL.c **** *
 534:Generated_Source\PSoC4/CapSense_CSD_CSHL.c **** * Parameters:
 535:Generated_Source\PSoC4/CapSense_CSD_CSHL.c **** *  sensor:  Sensor number.
 536:Generated_Source\PSoC4/CapSense_CSD_CSHL.c **** *
 537:Generated_Source\PSoC4/CapSense_CSD_CSHL.c **** * Return:
 538:Generated_Source\PSoC4/CapSense_CSD_CSHL.c **** *  None
 539:Generated_Source\PSoC4/CapSense_CSD_CSHL.c **** *
 540:Generated_Source\PSoC4/CapSense_CSD_CSHL.c **** * Global Variables:
 541:Generated_Source\PSoC4/CapSense_CSD_CSHL.c **** *  CapSense_CSD_widgetNumber[]  - stores widget numbers.
 542:Generated_Source\PSoC4/CapSense_CSD_CSHL.c **** *
 543:Generated_Source\PSoC4/CapSense_CSD_CSHL.c **** * Side Effects:
 544:Generated_Source\PSoC4/CapSense_CSD_CSHL.c **** *  None
 545:Generated_Source\PSoC4/CapSense_CSD_CSHL.c **** *
 546:Generated_Source\PSoC4/CapSense_CSD_CSHL.c **** *******************************************************************************/
 547:Generated_Source\PSoC4/CapSense_CSD_CSHL.c ****  void CapSense_CSD_UpdateSensorBaseline(uint32 sensor)
 548:Generated_Source\PSoC4/CapSense_CSD_CSHL.c **** {
 549:Generated_Source\PSoC4/CapSense_CSD_CSHL.c ****     #if (CapSense_CSD_TOTAL_GENERICS_COUNT)
 550:Generated_Source\PSoC4/CapSense_CSD_CSHL.c ****         uint32 widget;
 551:Generated_Source\PSoC4/CapSense_CSD_CSHL.c **** 
 552:Generated_Source\PSoC4/CapSense_CSD_CSHL.c ****         widget = CapSense_CSD_widgetNumber[sensor];
 553:Generated_Source\PSoC4/CapSense_CSD_CSHL.c **** 
 554:Generated_Source\PSoC4/CapSense_CSD_CSHL.c ****         /* Exclude generic widget */
 555:Generated_Source\PSoC4/CapSense_CSD_CSHL.c ****         if(widget < CapSense_CSD_END_OF_WIDGETS_INDEX)
 556:Generated_Source\PSoC4/CapSense_CSD_CSHL.c ****         {
 557:Generated_Source\PSoC4/CapSense_CSD_CSHL.c ****     #endif  /* CapSense_CSD_TOTAL_GENERICS_COUNT */
 558:Generated_Source\PSoC4/CapSense_CSD_CSHL.c **** 
 559:Generated_Source\PSoC4/CapSense_CSD_CSHL.c ****     #if (CapSense_CSD_TUNING_METHOD == CapSense_CSD__TUNING_AUTO)
 560:Generated_Source\PSoC4/CapSense_CSD_CSHL.c ****         CapSense_CSD_UpdateThresholds(sensor);
 561:Generated_Source\PSoC4/CapSense_CSD_CSHL.c ****     #endif /* (CapSense_CSD_TUNING_METHOD == CapSense_CSD__TUNING_AUTO) */
 562:Generated_Source\PSoC4/CapSense_CSD_CSHL.c **** 
 563:Generated_Source\PSoC4/CapSense_CSD_CSHL.c ****     CapSense_CSD_UpdateBaselineNoThreshold(sensor);
 564:Generated_Source\PSoC4/CapSense_CSD_CSHL.c **** 
 565:Generated_Source\PSoC4/CapSense_CSD_CSHL.c ****     #if (CapSense_CSD_TOTAL_GENERICS_COUNT)
 566:Generated_Source\PSoC4/CapSense_CSD_CSHL.c ****         /* Exclude generic widget */
 567:Generated_Source\PSoC4/CapSense_CSD_CSHL.c ****         }
 568:Generated_Source\PSoC4/CapSense_CSD_CSHL.c ****     #endif  /* CapSense_CSD_TOTAL_GENERICS_COUNT */
 569:Generated_Source\PSoC4/CapSense_CSD_CSHL.c **** }
 570:Generated_Source\PSoC4/CapSense_CSD_CSHL.c **** 
ARM GAS  C:\Users\ZTIPRI~1\AppData\Local\Temp\ccqOwDTe.s 			page 15


 571:Generated_Source\PSoC4/CapSense_CSD_CSHL.c **** 
 572:Generated_Source\PSoC4/CapSense_CSD_CSHL.c **** /*******************************************************************************
 573:Generated_Source\PSoC4/CapSense_CSD_CSHL.c **** * Function Name: CapSense_CSD_UpdateEnabledBaselines
 574:Generated_Source\PSoC4/CapSense_CSD_CSHL.c **** ********************************************************************************
 575:Generated_Source\PSoC4/CapSense_CSD_CSHL.c **** *
 576:Generated_Source\PSoC4/CapSense_CSD_CSHL.c **** * Summary:
 577:Generated_Source\PSoC4/CapSense_CSD_CSHL.c **** *  Checks CapSense_CSD_sensorEnableMask[] array and calls the
 578:Generated_Source\PSoC4/CapSense_CSD_CSHL.c **** *  CapSense_CSD_UpdateSensorBaseline function to update the baselines
 579:Generated_Source\PSoC4/CapSense_CSD_CSHL.c **** *  for the enabled sensors.
 580:Generated_Source\PSoC4/CapSense_CSD_CSHL.c **** *
 581:Generated_Source\PSoC4/CapSense_CSD_CSHL.c **** * Parameters:
 582:Generated_Source\PSoC4/CapSense_CSD_CSHL.c **** *  None
 583:Generated_Source\PSoC4/CapSense_CSD_CSHL.c **** *
 584:Generated_Source\PSoC4/CapSense_CSD_CSHL.c **** * Return:
 585:Generated_Source\PSoC4/CapSense_CSD_CSHL.c **** *  None
 586:Generated_Source\PSoC4/CapSense_CSD_CSHL.c **** *
 587:Generated_Source\PSoC4/CapSense_CSD_CSHL.c **** * Global Variables:
 588:Generated_Source\PSoC4/CapSense_CSD_CSHL.c **** *  CapSense_CSD_sensorEnableMask[] - used to store the sensor scanning
 589:Generated_Source\PSoC4/CapSense_CSD_CSHL.c **** *  state.
 590:Generated_Source\PSoC4/CapSense_CSD_CSHL.c **** *  CapSense_CSD_sensorEnableMask[0] contains the masked bits for sensors
 591:Generated_Source\PSoC4/CapSense_CSD_CSHL.c **** *   0 through 7 (sensor 0 is bit 0, sensor 1 is bit 1).
 592:Generated_Source\PSoC4/CapSense_CSD_CSHL.c **** *  CapSense_CSD_sensorEnableMask[1] contains the masked bits for
 593:Generated_Source\PSoC4/CapSense_CSD_CSHL.c **** *  sensors 8 through 15 (if needed), and so on.
 594:Generated_Source\PSoC4/CapSense_CSD_CSHL.c **** *  0 - sensor doesn't scan by CapSense_CSD_ScanEnabledWidgets().
 595:Generated_Source\PSoC4/CapSense_CSD_CSHL.c **** *  1 - sensor scans by CapSense_CSD_ScanEnabledWidgets().
 596:Generated_Source\PSoC4/CapSense_CSD_CSHL.c **** *
 597:Generated_Source\PSoC4/CapSense_CSD_CSHL.c **** * Side Effects:
 598:Generated_Source\PSoC4/CapSense_CSD_CSHL.c **** *  None
 599:Generated_Source\PSoC4/CapSense_CSD_CSHL.c **** *
 600:Generated_Source\PSoC4/CapSense_CSD_CSHL.c **** *******************************************************************************/
 601:Generated_Source\PSoC4/CapSense_CSD_CSHL.c ****  void CapSense_CSD_UpdateEnabledBaselines(void)
 602:Generated_Source\PSoC4/CapSense_CSD_CSHL.c **** {
 603:Generated_Source\PSoC4/CapSense_CSD_CSHL.c ****     uint32 i;
 604:Generated_Source\PSoC4/CapSense_CSD_CSHL.c ****     uint32 isSensorEnabled;
 605:Generated_Source\PSoC4/CapSense_CSD_CSHL.c **** 
 606:Generated_Source\PSoC4/CapSense_CSD_CSHL.c ****     for(i = 0u; i < CapSense_CSD_TOTAL_SENSOR_COUNT; i++)
 607:Generated_Source\PSoC4/CapSense_CSD_CSHL.c ****     {
 608:Generated_Source\PSoC4/CapSense_CSD_CSHL.c ****         isSensorEnabled = CapSense_CSD_GetBitValue(CapSense_CSD_sensorEnableMask, i);
 609:Generated_Source\PSoC4/CapSense_CSD_CSHL.c **** 
 610:Generated_Source\PSoC4/CapSense_CSD_CSHL.c ****         if(0u != isSensorEnabled)
 611:Generated_Source\PSoC4/CapSense_CSD_CSHL.c ****         {
 612:Generated_Source\PSoC4/CapSense_CSD_CSHL.c ****             CapSense_CSD_UpdateSensorBaseline(i);
 613:Generated_Source\PSoC4/CapSense_CSD_CSHL.c ****         }
 614:Generated_Source\PSoC4/CapSense_CSD_CSHL.c ****     }
 615:Generated_Source\PSoC4/CapSense_CSD_CSHL.c **** }
 616:Generated_Source\PSoC4/CapSense_CSD_CSHL.c **** 
 617:Generated_Source\PSoC4/CapSense_CSD_CSHL.c **** /*******************************************************************************
 618:Generated_Source\PSoC4/CapSense_CSD_CSHL.c **** * Function Name: CapSense_CSD_UpdateWidgetBaseline
 619:Generated_Source\PSoC4/CapSense_CSD_CSHL.c **** ********************************************************************************
 620:Generated_Source\PSoC4/CapSense_CSD_CSHL.c **** *
 621:Generated_Source\PSoC4/CapSense_CSD_CSHL.c **** * Summary:
 622:Generated_Source\PSoC4/CapSense_CSD_CSHL.c **** *  Checks CapSense_CSD_sensorEnableMask[] array and calls the
 623:Generated_Source\PSoC4/CapSense_CSD_CSHL.c **** *  CapSense_CSD_UpdateSensorBaseline function to update the baselines
 624:Generated_Source\PSoC4/CapSense_CSD_CSHL.c **** *  for the enabled sensors that belong to widget.
 625:Generated_Source\PSoC4/CapSense_CSD_CSHL.c **** *
 626:Generated_Source\PSoC4/CapSense_CSD_CSHL.c **** * Parameters:
 627:Generated_Source\PSoC4/CapSense_CSD_CSHL.c **** *  widget:  Widget number.
ARM GAS  C:\Users\ZTIPRI~1\AppData\Local\Temp\ccqOwDTe.s 			page 16


 628:Generated_Source\PSoC4/CapSense_CSD_CSHL.c **** *
 629:Generated_Source\PSoC4/CapSense_CSD_CSHL.c **** * Return:
 630:Generated_Source\PSoC4/CapSense_CSD_CSHL.c **** *  None
 631:Generated_Source\PSoC4/CapSense_CSD_CSHL.c **** *
 632:Generated_Source\PSoC4/CapSense_CSD_CSHL.c **** * Global Variables:
 633:Generated_Source\PSoC4/CapSense_CSD_CSHL.c **** *  CapSense_CSD_sensorEnableMask[] - used to store the sensor scanning
 634:Generated_Source\PSoC4/CapSense_CSD_CSHL.c **** *  state.
 635:Generated_Source\PSoC4/CapSense_CSD_CSHL.c **** *  CapSense_CSD_sensorEnableMask[0] contains the masked bits for sensors
 636:Generated_Source\PSoC4/CapSense_CSD_CSHL.c **** *   0 through 7 (sensor 0 is bit 0, sensor 1 is bit 1).
 637:Generated_Source\PSoC4/CapSense_CSD_CSHL.c **** *  CapSense_CSD_sensorEnableMask[1] contains the masked bits for
 638:Generated_Source\PSoC4/CapSense_CSD_CSHL.c **** *  sensors 8 through 15 (if needed), and so on.
 639:Generated_Source\PSoC4/CapSense_CSD_CSHL.c **** *  0 - sensor doesn't scan by CapSense_CSD_ScanEnabledWidgets().
 640:Generated_Source\PSoC4/CapSense_CSD_CSHL.c **** *  1 - sensor scans by CapSense_CSD_ScanEnabledWidgets().
 641:Generated_Source\PSoC4/CapSense_CSD_CSHL.c **** *
 642:Generated_Source\PSoC4/CapSense_CSD_CSHL.c **** * Side Effects:
 643:Generated_Source\PSoC4/CapSense_CSD_CSHL.c **** *  None
 644:Generated_Source\PSoC4/CapSense_CSD_CSHL.c **** *
 645:Generated_Source\PSoC4/CapSense_CSD_CSHL.c **** *******************************************************************************/
 646:Generated_Source\PSoC4/CapSense_CSD_CSHL.c **** void CapSense_CSD_UpdateWidgetBaseline(uint32 widget)
 647:Generated_Source\PSoC4/CapSense_CSD_CSHL.c **** {
 648:Generated_Source\PSoC4/CapSense_CSD_CSHL.c ****     uint32 sensorsPerWidget;
 649:Generated_Source\PSoC4/CapSense_CSD_CSHL.c ****     uint32 firstSensor;
 650:Generated_Source\PSoC4/CapSense_CSD_CSHL.c ****     uint32 lastSensor;
 651:Generated_Source\PSoC4/CapSense_CSD_CSHL.c ****     uint32 i;
 652:Generated_Source\PSoC4/CapSense_CSD_CSHL.c ****     uint32 isSensorEnabled;
 653:Generated_Source\PSoC4/CapSense_CSD_CSHL.c **** 
 654:Generated_Source\PSoC4/CapSense_CSD_CSHL.c ****     /* Get number of sensors in widget */
 655:Generated_Source\PSoC4/CapSense_CSD_CSHL.c ****     sensorsPerWidget = CapSense_CSD_numberOfSensors[widget];
 656:Generated_Source\PSoC4/CapSense_CSD_CSHL.c **** 
 657:Generated_Source\PSoC4/CapSense_CSD_CSHL.c ****     /* Get first sensor in widget */
 658:Generated_Source\PSoC4/CapSense_CSD_CSHL.c ****     firstSensor = CapSense_CSD_rawDataIndex[widget];
 659:Generated_Source\PSoC4/CapSense_CSD_CSHL.c **** 
 660:Generated_Source\PSoC4/CapSense_CSD_CSHL.c ****     /* Get last sensor in widget */
 661:Generated_Source\PSoC4/CapSense_CSD_CSHL.c ****     lastSensor = (CapSense_CSD_rawDataIndex[widget] + sensorsPerWidget);
 662:Generated_Source\PSoC4/CapSense_CSD_CSHL.c **** 
 663:Generated_Source\PSoC4/CapSense_CSD_CSHL.c ****     for(i = firstSensor; i < lastSensor; i++)
 664:Generated_Source\PSoC4/CapSense_CSD_CSHL.c ****     {
 665:Generated_Source\PSoC4/CapSense_CSD_CSHL.c ****         isSensorEnabled = CapSense_CSD_GetBitValue(CapSense_CSD_sensorEnableMask, i);
 666:Generated_Source\PSoC4/CapSense_CSD_CSHL.c **** 
 667:Generated_Source\PSoC4/CapSense_CSD_CSHL.c ****         if(0u != isSensorEnabled)
 668:Generated_Source\PSoC4/CapSense_CSD_CSHL.c ****         {
 669:Generated_Source\PSoC4/CapSense_CSD_CSHL.c ****             CapSense_CSD_UpdateSensorBaseline(i);
 670:Generated_Source\PSoC4/CapSense_CSD_CSHL.c ****         }
 671:Generated_Source\PSoC4/CapSense_CSD_CSHL.c ****     }
 672:Generated_Source\PSoC4/CapSense_CSD_CSHL.c **** }
 673:Generated_Source\PSoC4/CapSense_CSD_CSHL.c **** 
 674:Generated_Source\PSoC4/CapSense_CSD_CSHL.c **** 
 675:Generated_Source\PSoC4/CapSense_CSD_CSHL.c **** /*******************************************************************************
 676:Generated_Source\PSoC4/CapSense_CSD_CSHL.c **** * Function Name: CapSense_CSD_GetBaselineData
 677:Generated_Source\PSoC4/CapSense_CSD_CSHL.c **** ********************************************************************************
 678:Generated_Source\PSoC4/CapSense_CSD_CSHL.c **** *
 679:Generated_Source\PSoC4/CapSense_CSD_CSHL.c **** * Summary:
 680:Generated_Source\PSoC4/CapSense_CSD_CSHL.c **** *  This function reads the sensor baseline from the component.
 681:Generated_Source\PSoC4/CapSense_CSD_CSHL.c **** *
 682:Generated_Source\PSoC4/CapSense_CSD_CSHL.c **** * Parameters:
 683:Generated_Source\PSoC4/CapSense_CSD_CSHL.c **** *  sensor:  Sensor number.
 684:Generated_Source\PSoC4/CapSense_CSD_CSHL.c **** *
ARM GAS  C:\Users\ZTIPRI~1\AppData\Local\Temp\ccqOwDTe.s 			page 17


 685:Generated_Source\PSoC4/CapSense_CSD_CSHL.c **** * Return:
 686:Generated_Source\PSoC4/CapSense_CSD_CSHL.c **** *  This API returns the baseline value of the sensor indicated by an argument.
 687:Generated_Source\PSoC4/CapSense_CSD_CSHL.c **** *
 688:Generated_Source\PSoC4/CapSense_CSD_CSHL.c **** * Global Variables:
 689:Generated_Source\PSoC4/CapSense_CSD_CSHL.c **** *  CapSense_CSD_sensorBaseline[] - the array with an initial values by scanning
 690:Generated_Source\PSoC4/CapSense_CSD_CSHL.c **** *
 691:Generated_Source\PSoC4/CapSense_CSD_CSHL.c **** * Side Effects:
 692:Generated_Source\PSoC4/CapSense_CSD_CSHL.c **** *  None
 693:Generated_Source\PSoC4/CapSense_CSD_CSHL.c **** *
 694:Generated_Source\PSoC4/CapSense_CSD_CSHL.c **** *******************************************************************************/
 695:Generated_Source\PSoC4/CapSense_CSD_CSHL.c **** uint16 CapSense_CSD_GetBaselineData(uint32 sensor)
 696:Generated_Source\PSoC4/CapSense_CSD_CSHL.c **** {
 225              		.loc 1 696 0
 226              		.cfi_startproc
 227              		@ args = 0, pretend = 0, frame = 0
 228              		@ frame_needed = 0, uses_anonymous_args = 0
 229              		@ link register save eliminated.
 230              	.LVL22:
 697:Generated_Source\PSoC4/CapSense_CSD_CSHL.c ****     return (CapSense_CSD_sensorBaseline[sensor]);
 231              		.loc 1 697 0
 232 0000 4000     		lsls	r0, r0, #1
 233              	.LVL23:
 234 0002 014B     		ldr	r3, .L17
 235 0004 185A     		ldrh	r0, [r3, r0]
 698:Generated_Source\PSoC4/CapSense_CSD_CSHL.c **** }
 236              		.loc 1 698 0
 237              		@ sp needed
 238 0006 7047     		bx	lr
 239              	.L18:
 240              		.align	2
 241              	.L17:
 242 0008 00000000 		.word	.LANCHOR0
 243              		.cfi_endproc
 244              	.LFE40:
 245              		.size	CapSense_CSD_GetBaselineData, .-CapSense_CSD_GetBaselineData
 246              		.section	.text.CapSense_CSD_SetBaselineData,"ax",%progbits
 247              		.align	2
 248              		.global	CapSense_CSD_SetBaselineData
 249              		.code	16
 250              		.thumb_func
 251              		.type	CapSense_CSD_SetBaselineData, %function
 252              	CapSense_CSD_SetBaselineData:
 253              	.LFB41:
 699:Generated_Source\PSoC4/CapSense_CSD_CSHL.c **** 
 700:Generated_Source\PSoC4/CapSense_CSD_CSHL.c **** 
 701:Generated_Source\PSoC4/CapSense_CSD_CSHL.c **** /*******************************************************************************
 702:Generated_Source\PSoC4/CapSense_CSD_CSHL.c **** * Function Name: CapSense_CSD_SetBaselineData
 703:Generated_Source\PSoC4/CapSense_CSD_CSHL.c **** ********************************************************************************
 704:Generated_Source\PSoC4/CapSense_CSD_CSHL.c **** *
 705:Generated_Source\PSoC4/CapSense_CSD_CSHL.c **** * Summary:
 706:Generated_Source\PSoC4/CapSense_CSD_CSHL.c **** *  This API writes the data value passed as an argument to the sensor baseline array.
 707:Generated_Source\PSoC4/CapSense_CSD_CSHL.c **** *
 708:Generated_Source\PSoC4/CapSense_CSD_CSHL.c **** * Parameters:
 709:Generated_Source\PSoC4/CapSense_CSD_CSHL.c **** *  sensor:  Sensor number.
 710:Generated_Source\PSoC4/CapSense_CSD_CSHL.c **** *  data:    Sensor baseline.
 711:Generated_Source\PSoC4/CapSense_CSD_CSHL.c **** *
 712:Generated_Source\PSoC4/CapSense_CSD_CSHL.c **** * Return:
ARM GAS  C:\Users\ZTIPRI~1\AppData\Local\Temp\ccqOwDTe.s 			page 18


 713:Generated_Source\PSoC4/CapSense_CSD_CSHL.c **** *  None.
 714:Generated_Source\PSoC4/CapSense_CSD_CSHL.c **** *
 715:Generated_Source\PSoC4/CapSense_CSD_CSHL.c **** * Global Variables:
 716:Generated_Source\PSoC4/CapSense_CSD_CSHL.c **** *  CapSense_CSD_sensorBaseline[] - the array with initial values by scanning
 717:Generated_Source\PSoC4/CapSense_CSD_CSHL.c **** *
 718:Generated_Source\PSoC4/CapSense_CSD_CSHL.c **** * Side Effects:
 719:Generated_Source\PSoC4/CapSense_CSD_CSHL.c **** *  None
 720:Generated_Source\PSoC4/CapSense_CSD_CSHL.c **** *
 721:Generated_Source\PSoC4/CapSense_CSD_CSHL.c **** *******************************************************************************/
 722:Generated_Source\PSoC4/CapSense_CSD_CSHL.c **** void CapSense_CSD_SetBaselineData(uint32 sensor, uint16 data)
 723:Generated_Source\PSoC4/CapSense_CSD_CSHL.c **** {
 254              		.loc 1 723 0
 255              		.cfi_startproc
 256              		@ args = 0, pretend = 0, frame = 0
 257              		@ frame_needed = 0, uses_anonymous_args = 0
 258              		@ link register save eliminated.
 259              	.LVL24:
 724:Generated_Source\PSoC4/CapSense_CSD_CSHL.c ****     CapSense_CSD_sensorBaseline[sensor] = data;
 260              		.loc 1 724 0
 261 0000 4000     		lsls	r0, r0, #1
 262              	.LVL25:
 263 0002 014B     		ldr	r3, .L20
 264 0004 C152     		strh	r1, [r0, r3]
 725:Generated_Source\PSoC4/CapSense_CSD_CSHL.c **** }
 265              		.loc 1 725 0
 266              		@ sp needed
 267 0006 7047     		bx	lr
 268              	.L21:
 269              		.align	2
 270              	.L20:
 271 0008 00000000 		.word	.LANCHOR0
 272              		.cfi_endproc
 273              	.LFE41:
 274              		.size	CapSense_CSD_SetBaselineData, .-CapSense_CSD_SetBaselineData
 275              		.section	.text.CapSense_CSD_GetDiffCountData,"ax",%progbits
 276              		.align	2
 277              		.global	CapSense_CSD_GetDiffCountData
 278              		.code	16
 279              		.thumb_func
 280              		.type	CapSense_CSD_GetDiffCountData, %function
 281              	CapSense_CSD_GetDiffCountData:
 282              	.LFB42:
 726:Generated_Source\PSoC4/CapSense_CSD_CSHL.c **** 
 727:Generated_Source\PSoC4/CapSense_CSD_CSHL.c **** 
 728:Generated_Source\PSoC4/CapSense_CSD_CSHL.c **** /*******************************************************************************
 729:Generated_Source\PSoC4/CapSense_CSD_CSHL.c **** * Function Name: CapSense_CSD_GetDiffCountData
 730:Generated_Source\PSoC4/CapSense_CSD_CSHL.c **** ********************************************************************************
 731:Generated_Source\PSoC4/CapSense_CSD_CSHL.c **** *
 732:Generated_Source\PSoC4/CapSense_CSD_CSHL.c **** * Summary:
 733:Generated_Source\PSoC4/CapSense_CSD_CSHL.c **** *  This function returns the Sensor Signal from the component.
 734:Generated_Source\PSoC4/CapSense_CSD_CSHL.c **** *
 735:Generated_Source\PSoC4/CapSense_CSD_CSHL.c **** * Parameters:
 736:Generated_Source\PSoC4/CapSense_CSD_CSHL.c **** *  sensor:  Sensor number.
 737:Generated_Source\PSoC4/CapSense_CSD_CSHL.c **** *
 738:Generated_Source\PSoC4/CapSense_CSD_CSHL.c **** * Return:
 739:Generated_Source\PSoC4/CapSense_CSD_CSHL.c **** *  This API returns the difference count value of the sensor indicated by the
 740:Generated_Source\PSoC4/CapSense_CSD_CSHL.c **** *  argument.
ARM GAS  C:\Users\ZTIPRI~1\AppData\Local\Temp\ccqOwDTe.s 			page 19


 741:Generated_Source\PSoC4/CapSense_CSD_CSHL.c **** *
 742:Generated_Source\PSoC4/CapSense_CSD_CSHL.c **** * Global Variables:
 743:Generated_Source\PSoC4/CapSense_CSD_CSHL.c **** *  CapSense_CSD_sensorSignal[] - the array with difference counts for sensors
 744:Generated_Source\PSoC4/CapSense_CSD_CSHL.c **** *
 745:Generated_Source\PSoC4/CapSense_CSD_CSHL.c **** * Side Effects:
 746:Generated_Source\PSoC4/CapSense_CSD_CSHL.c **** *  None
 747:Generated_Source\PSoC4/CapSense_CSD_CSHL.c **** *
 748:Generated_Source\PSoC4/CapSense_CSD_CSHL.c **** *******************************************************************************/
 749:Generated_Source\PSoC4/CapSense_CSD_CSHL.c **** uint8 CapSense_CSD_GetDiffCountData(uint32 sensor)
 750:Generated_Source\PSoC4/CapSense_CSD_CSHL.c **** {
 283              		.loc 1 750 0
 284              		.cfi_startproc
 285              		@ args = 0, pretend = 0, frame = 0
 286              		@ frame_needed = 0, uses_anonymous_args = 0
 287              		@ link register save eliminated.
 288              	.LVL26:
 751:Generated_Source\PSoC4/CapSense_CSD_CSHL.c ****     return (CapSense_CSD_sensorSignal[sensor]);
 289              		.loc 1 751 0
 290 0000 014B     		ldr	r3, .L23
 291 0002 1818     		adds	r0, r3, r0
 292              	.LVL27:
 293 0004 007D     		ldrb	r0, [r0, #20]
 752:Generated_Source\PSoC4/CapSense_CSD_CSHL.c **** }
 294              		.loc 1 752 0
 295              		@ sp needed
 296 0006 7047     		bx	lr
 297              	.L24:
 298              		.align	2
 299              	.L23:
 300 0008 00000000 		.word	.LANCHOR0
 301              		.cfi_endproc
 302              	.LFE42:
 303              		.size	CapSense_CSD_GetDiffCountData, .-CapSense_CSD_GetDiffCountData
 304              		.section	.text.CapSense_CSD_SetDiffCountData,"ax",%progbits
 305              		.align	2
 306              		.global	CapSense_CSD_SetDiffCountData
 307              		.code	16
 308              		.thumb_func
 309              		.type	CapSense_CSD_SetDiffCountData, %function
 310              	CapSense_CSD_SetDiffCountData:
 311              	.LFB43:
 753:Generated_Source\PSoC4/CapSense_CSD_CSHL.c **** 
 754:Generated_Source\PSoC4/CapSense_CSD_CSHL.c **** 
 755:Generated_Source\PSoC4/CapSense_CSD_CSHL.c **** /*******************************************************************************
 756:Generated_Source\PSoC4/CapSense_CSD_CSHL.c **** * Function Name: CapSense_CSD_SetDiffCountData
 757:Generated_Source\PSoC4/CapSense_CSD_CSHL.c **** ********************************************************************************
 758:Generated_Source\PSoC4/CapSense_CSD_CSHL.c **** *
 759:Generated_Source\PSoC4/CapSense_CSD_CSHL.c **** * Summary:
 760:Generated_Source\PSoC4/CapSense_CSD_CSHL.c **** *  This API writes the data value passed as an argument to the sensor signal array.
 761:Generated_Source\PSoC4/CapSense_CSD_CSHL.c **** *
 762:Generated_Source\PSoC4/CapSense_CSD_CSHL.c **** * Parameters:
 763:Generated_Source\PSoC4/CapSense_CSD_CSHL.c **** *  sensor:  Sensor number.
 764:Generated_Source\PSoC4/CapSense_CSD_CSHL.c **** *  value:   Sensor signal.
 765:Generated_Source\PSoC4/CapSense_CSD_CSHL.c **** *
 766:Generated_Source\PSoC4/CapSense_CSD_CSHL.c **** * Return:
 767:Generated_Source\PSoC4/CapSense_CSD_CSHL.c **** *  None.
 768:Generated_Source\PSoC4/CapSense_CSD_CSHL.c **** *
ARM GAS  C:\Users\ZTIPRI~1\AppData\Local\Temp\ccqOwDTe.s 			page 20


 769:Generated_Source\PSoC4/CapSense_CSD_CSHL.c **** * Global Variables:
 770:Generated_Source\PSoC4/CapSense_CSD_CSHL.c **** *  CapSense_CSD_sensorSignal[] - the array with difference counts for sensors
 771:Generated_Source\PSoC4/CapSense_CSD_CSHL.c **** *
 772:Generated_Source\PSoC4/CapSense_CSD_CSHL.c **** * Side Effects:
 773:Generated_Source\PSoC4/CapSense_CSD_CSHL.c **** *  None
 774:Generated_Source\PSoC4/CapSense_CSD_CSHL.c **** *
 775:Generated_Source\PSoC4/CapSense_CSD_CSHL.c **** *******************************************************************************/
 776:Generated_Source\PSoC4/CapSense_CSD_CSHL.c **** void CapSense_CSD_SetDiffCountData(uint32 sensor, uint8 value)
 777:Generated_Source\PSoC4/CapSense_CSD_CSHL.c **** {
 312              		.loc 1 777 0
 313              		.cfi_startproc
 314              		@ args = 0, pretend = 0, frame = 0
 315              		@ frame_needed = 0, uses_anonymous_args = 0
 316              		@ link register save eliminated.
 317              	.LVL28:
 778:Generated_Source\PSoC4/CapSense_CSD_CSHL.c ****     CapSense_CSD_sensorSignal[sensor] = value;
 318              		.loc 1 778 0
 319 0000 014B     		ldr	r3, .L26
 320 0002 1818     		adds	r0, r3, r0
 321              	.LVL29:
 322 0004 0175     		strb	r1, [r0, #20]
 779:Generated_Source\PSoC4/CapSense_CSD_CSHL.c **** }
 323              		.loc 1 779 0
 324              		@ sp needed
 325 0006 7047     		bx	lr
 326              	.L27:
 327              		.align	2
 328              	.L26:
 329 0008 00000000 		.word	.LANCHOR0
 330              		.cfi_endproc
 331              	.LFE43:
 332              		.size	CapSense_CSD_SetDiffCountData, .-CapSense_CSD_SetDiffCountData
 333              		.section	.text.CapSense_CSD_GetFingerThreshold,"ax",%progbits
 334              		.align	2
 335              		.global	CapSense_CSD_GetFingerThreshold
 336              		.code	16
 337              		.thumb_func
 338              		.type	CapSense_CSD_GetFingerThreshold, %function
 339              	CapSense_CSD_GetFingerThreshold:
 340              	.LFB44:
 780:Generated_Source\PSoC4/CapSense_CSD_CSHL.c **** 
 781:Generated_Source\PSoC4/CapSense_CSD_CSHL.c **** 
 782:Generated_Source\PSoC4/CapSense_CSD_CSHL.c **** /*******************************************************************************
 783:Generated_Source\PSoC4/CapSense_CSD_CSHL.c **** * Function Name: CapSense_CSD_GetFingerThreshold
 784:Generated_Source\PSoC4/CapSense_CSD_CSHL.c **** ********************************************************************************
 785:Generated_Source\PSoC4/CapSense_CSD_CSHL.c **** *
 786:Generated_Source\PSoC4/CapSense_CSD_CSHL.c **** * Summary:
 787:Generated_Source\PSoC4/CapSense_CSD_CSHL.c **** *  This function reads the finger threshold from the component.
 788:Generated_Source\PSoC4/CapSense_CSD_CSHL.c **** *
 789:Generated_Source\PSoC4/CapSense_CSD_CSHL.c **** * Parameters:
 790:Generated_Source\PSoC4/CapSense_CSD_CSHL.c **** *  widget:  widget number.
 791:Generated_Source\PSoC4/CapSense_CSD_CSHL.c **** *
 792:Generated_Source\PSoC4/CapSense_CSD_CSHL.c **** * Return:
 793:Generated_Source\PSoC4/CapSense_CSD_CSHL.c **** *  This API returns the finger threshold of the widget indicated by the argument.
 794:Generated_Source\PSoC4/CapSense_CSD_CSHL.c **** *
 795:Generated_Source\PSoC4/CapSense_CSD_CSHL.c **** * Global Variables:
 796:Generated_Source\PSoC4/CapSense_CSD_CSHL.c **** *  CapSense_CSD_fingerThreshold[] - This array contains the level of signal
ARM GAS  C:\Users\ZTIPRI~1\AppData\Local\Temp\ccqOwDTe.s 			page 21


 797:Generated_Source\PSoC4/CapSense_CSD_CSHL.c **** *  for each widget that is determined if a finger is present on the widget.
 798:Generated_Source\PSoC4/CapSense_CSD_CSHL.c **** *
 799:Generated_Source\PSoC4/CapSense_CSD_CSHL.c **** * Side Effects:
 800:Generated_Source\PSoC4/CapSense_CSD_CSHL.c **** *  None
 801:Generated_Source\PSoC4/CapSense_CSD_CSHL.c **** *
 802:Generated_Source\PSoC4/CapSense_CSD_CSHL.c **** *******************************************************************************/
 803:Generated_Source\PSoC4/CapSense_CSD_CSHL.c **** uint8 CapSense_CSD_GetFingerThreshold(uint32 widget)
 804:Generated_Source\PSoC4/CapSense_CSD_CSHL.c **** {
 341              		.loc 1 804 0
 342              		.cfi_startproc
 343              		@ args = 0, pretend = 0, frame = 0
 344              		@ frame_needed = 0, uses_anonymous_args = 0
 345              		@ link register save eliminated.
 346              	.LVL30:
 805:Generated_Source\PSoC4/CapSense_CSD_CSHL.c ****     return(CapSense_CSD_fingerThreshold[widget]);
 347              		.loc 1 805 0
 348 0000 014B     		ldr	r3, .L29
 349 0002 185C     		ldrb	r0, [r3, r0]
 350              	.LVL31:
 806:Generated_Source\PSoC4/CapSense_CSD_CSHL.c **** }
 351              		.loc 1 806 0
 352              		@ sp needed
 353 0004 7047     		bx	lr
 354              	.L30:
 355 0006 C046     		.align	2
 356              	.L29:
 357 0008 00000000 		.word	CapSense_CSD_fingerThreshold
 358              		.cfi_endproc
 359              	.LFE44:
 360              		.size	CapSense_CSD_GetFingerThreshold, .-CapSense_CSD_GetFingerThreshold
 361              		.section	.text.CapSense_CSD_GetNoiseThreshold,"ax",%progbits
 362              		.align	2
 363              		.global	CapSense_CSD_GetNoiseThreshold
 364              		.code	16
 365              		.thumb_func
 366              		.type	CapSense_CSD_GetNoiseThreshold, %function
 367              	CapSense_CSD_GetNoiseThreshold:
 368              	.LFB45:
 807:Generated_Source\PSoC4/CapSense_CSD_CSHL.c **** 
 808:Generated_Source\PSoC4/CapSense_CSD_CSHL.c **** 
 809:Generated_Source\PSoC4/CapSense_CSD_CSHL.c **** /*******************************************************************************
 810:Generated_Source\PSoC4/CapSense_CSD_CSHL.c **** * Function Name: CapSense_CSD_GetNoiseThreshold
 811:Generated_Source\PSoC4/CapSense_CSD_CSHL.c **** ********************************************************************************
 812:Generated_Source\PSoC4/CapSense_CSD_CSHL.c **** *
 813:Generated_Source\PSoC4/CapSense_CSD_CSHL.c **** * Summary:
 814:Generated_Source\PSoC4/CapSense_CSD_CSHL.c **** *  This function reads the noise threshold from the component.
 815:Generated_Source\PSoC4/CapSense_CSD_CSHL.c **** *
 816:Generated_Source\PSoC4/CapSense_CSD_CSHL.c **** * Parameters:
 817:Generated_Source\PSoC4/CapSense_CSD_CSHL.c **** *  widget:  widget number.
 818:Generated_Source\PSoC4/CapSense_CSD_CSHL.c **** *
 819:Generated_Source\PSoC4/CapSense_CSD_CSHL.c **** * Return:
 820:Generated_Source\PSoC4/CapSense_CSD_CSHL.c **** *  This API returns the noise threshold of the widget indicated by the argument.
 821:Generated_Source\PSoC4/CapSense_CSD_CSHL.c **** *
 822:Generated_Source\PSoC4/CapSense_CSD_CSHL.c **** * Global Variables:
 823:Generated_Source\PSoC4/CapSense_CSD_CSHL.c **** *  CapSense_CSD_noiseThreshold[] - This array contains the level of signal
 824:Generated_Source\PSoC4/CapSense_CSD_CSHL.c **** *  for each widget that determines the level of noise in the capacitive scan.
 825:Generated_Source\PSoC4/CapSense_CSD_CSHL.c **** *
ARM GAS  C:\Users\ZTIPRI~1\AppData\Local\Temp\ccqOwDTe.s 			page 22


 826:Generated_Source\PSoC4/CapSense_CSD_CSHL.c **** * Side Effects:
 827:Generated_Source\PSoC4/CapSense_CSD_CSHL.c **** *  None
 828:Generated_Source\PSoC4/CapSense_CSD_CSHL.c **** *
 829:Generated_Source\PSoC4/CapSense_CSD_CSHL.c **** *******************************************************************************/
 830:Generated_Source\PSoC4/CapSense_CSD_CSHL.c **** uint8 CapSense_CSD_GetNoiseThreshold(uint32 widget)
 831:Generated_Source\PSoC4/CapSense_CSD_CSHL.c **** {
 369              		.loc 1 831 0
 370              		.cfi_startproc
 371              		@ args = 0, pretend = 0, frame = 0
 372              		@ frame_needed = 0, uses_anonymous_args = 0
 373              		@ link register save eliminated.
 374              	.LVL32:
 832:Generated_Source\PSoC4/CapSense_CSD_CSHL.c ****     return (CapSense_CSD_noiseThreshold[widget]);
 375              		.loc 1 832 0
 376 0000 014B     		ldr	r3, .L32
 377 0002 185C     		ldrb	r0, [r3, r0]
 378              	.LVL33:
 833:Generated_Source\PSoC4/CapSense_CSD_CSHL.c **** }
 379              		.loc 1 833 0
 380              		@ sp needed
 381 0004 7047     		bx	lr
 382              	.L33:
 383 0006 C046     		.align	2
 384              	.L32:
 385 0008 00000000 		.word	CapSense_CSD_noiseThreshold
 386              		.cfi_endproc
 387              	.LFE45:
 388              		.size	CapSense_CSD_GetNoiseThreshold, .-CapSense_CSD_GetNoiseThreshold
 389              		.section	.text.CapSense_CSD_GetFingerHysteresis,"ax",%progbits
 390              		.align	2
 391              		.global	CapSense_CSD_GetFingerHysteresis
 392              		.code	16
 393              		.thumb_func
 394              		.type	CapSense_CSD_GetFingerHysteresis, %function
 395              	CapSense_CSD_GetFingerHysteresis:
 396              	.LFB46:
 834:Generated_Source\PSoC4/CapSense_CSD_CSHL.c **** 
 835:Generated_Source\PSoC4/CapSense_CSD_CSHL.c **** 
 836:Generated_Source\PSoC4/CapSense_CSD_CSHL.c **** /*******************************************************************************
 837:Generated_Source\PSoC4/CapSense_CSD_CSHL.c **** * Function Name: CapSense_CSD_GetFingerHysteresis
 838:Generated_Source\PSoC4/CapSense_CSD_CSHL.c **** ********************************************************************************
 839:Generated_Source\PSoC4/CapSense_CSD_CSHL.c **** *
 840:Generated_Source\PSoC4/CapSense_CSD_CSHL.c **** * Summary:
 841:Generated_Source\PSoC4/CapSense_CSD_CSHL.c **** *  This function reads the Hysteresis value from the component.
 842:Generated_Source\PSoC4/CapSense_CSD_CSHL.c **** *
 843:Generated_Source\PSoC4/CapSense_CSD_CSHL.c **** * Parameters:
 844:Generated_Source\PSoC4/CapSense_CSD_CSHL.c **** *  widget:  widget number.
 845:Generated_Source\PSoC4/CapSense_CSD_CSHL.c **** *
 846:Generated_Source\PSoC4/CapSense_CSD_CSHL.c **** * Return:
 847:Generated_Source\PSoC4/CapSense_CSD_CSHL.c **** *  This API returns the Hysteresis of the widget indicated by the argument.
 848:Generated_Source\PSoC4/CapSense_CSD_CSHL.c **** *
 849:Generated_Source\PSoC4/CapSense_CSD_CSHL.c **** * Global Variables:
 850:Generated_Source\PSoC4/CapSense_CSD_CSHL.c **** *  CapSense_CSD_hysteresis[] - This array contains the hysteresis value
 851:Generated_Source\PSoC4/CapSense_CSD_CSHL.c **** *   for each widget.
 852:Generated_Source\PSoC4/CapSense_CSD_CSHL.c **** *  CapSense_CSD_widgetNumberSld - structure with dynamic sliders' parameters.
 853:Generated_Source\PSoC4/CapSense_CSD_CSHL.c **** *
 854:Generated_Source\PSoC4/CapSense_CSD_CSHL.c **** * Side Effects:
ARM GAS  C:\Users\ZTIPRI~1\AppData\Local\Temp\ccqOwDTe.s 			page 23


 855:Generated_Source\PSoC4/CapSense_CSD_CSHL.c **** *  None
 856:Generated_Source\PSoC4/CapSense_CSD_CSHL.c **** *
 857:Generated_Source\PSoC4/CapSense_CSD_CSHL.c **** *******************************************************************************/
 858:Generated_Source\PSoC4/CapSense_CSD_CSHL.c **** uint8 CapSense_CSD_GetFingerHysteresis(uint32 widget)
 859:Generated_Source\PSoC4/CapSense_CSD_CSHL.c **** {
 397              		.loc 1 859 0
 398              		.cfi_startproc
 399              		@ args = 0, pretend = 0, frame = 0
 400              		@ frame_needed = 0, uses_anonymous_args = 0
 401              		@ link register save eliminated.
 402              	.LVL34:
 860:Generated_Source\PSoC4/CapSense_CSD_CSHL.c ****     return(CapSense_CSD_hysteresis[widget]);
 403              		.loc 1 860 0
 404 0000 014B     		ldr	r3, .L35
 405 0002 185C     		ldrb	r0, [r3, r0]
 406              	.LVL35:
 861:Generated_Source\PSoC4/CapSense_CSD_CSHL.c **** }
 407              		.loc 1 861 0
 408              		@ sp needed
 409 0004 7047     		bx	lr
 410              	.L36:
 411 0006 C046     		.align	2
 412              	.L35:
 413 0008 00000000 		.word	CapSense_CSD_hysteresis
 414              		.cfi_endproc
 415              	.LFE46:
 416              		.size	CapSense_CSD_GetFingerHysteresis, .-CapSense_CSD_GetFingerHysteresis
 417              		.section	.text.CapSense_CSD_GetNegativeNoiseThreshold,"ax",%progbits
 418              		.align	2
 419              		.global	CapSense_CSD_GetNegativeNoiseThreshold
 420              		.code	16
 421              		.thumb_func
 422              		.type	CapSense_CSD_GetNegativeNoiseThreshold, %function
 423              	CapSense_CSD_GetNegativeNoiseThreshold:
 424              	.LFB47:
 862:Generated_Source\PSoC4/CapSense_CSD_CSHL.c **** 
 863:Generated_Source\PSoC4/CapSense_CSD_CSHL.c **** 
 864:Generated_Source\PSoC4/CapSense_CSD_CSHL.c **** /*******************************************************************************
 865:Generated_Source\PSoC4/CapSense_CSD_CSHL.c **** * Function Name: CapSense_CSD_GetNegativeNoiseThreshold
 866:Generated_Source\PSoC4/CapSense_CSD_CSHL.c **** ********************************************************************************
 867:Generated_Source\PSoC4/CapSense_CSD_CSHL.c **** *
 868:Generated_Source\PSoC4/CapSense_CSD_CSHL.c **** * Summary:
 869:Generated_Source\PSoC4/CapSense_CSD_CSHL.c **** *  This function reads the negative noise threshold from the component.
 870:Generated_Source\PSoC4/CapSense_CSD_CSHL.c **** *
 871:Generated_Source\PSoC4/CapSense_CSD_CSHL.c **** * Parameters:
 872:Generated_Source\PSoC4/CapSense_CSD_CSHL.c **** *  None.
 873:Generated_Source\PSoC4/CapSense_CSD_CSHL.c **** *
 874:Generated_Source\PSoC4/CapSense_CSD_CSHL.c **** * Return Value:
 875:Generated_Source\PSoC4/CapSense_CSD_CSHL.c **** *  This API returns the negative noise threshold
 876:Generated_Source\PSoC4/CapSense_CSD_CSHL.c **** *
 877:Generated_Source\PSoC4/CapSense_CSD_CSHL.c **** * Global Variables:
 878:Generated_Source\PSoC4/CapSense_CSD_CSHL.c **** *  CapSense_CSD_negativeNoiseThreshold - This variable specifies the negative
 879:Generated_Source\PSoC4/CapSense_CSD_CSHL.c **** *   difference between the raw count and baseline levels for Baseline resetting
 880:Generated_Source\PSoC4/CapSense_CSD_CSHL.c **** *   to the raw count level.
 881:Generated_Source\PSoC4/CapSense_CSD_CSHL.c **** *
 882:Generated_Source\PSoC4/CapSense_CSD_CSHL.c **** * Side Effects:
 883:Generated_Source\PSoC4/CapSense_CSD_CSHL.c **** *  None
ARM GAS  C:\Users\ZTIPRI~1\AppData\Local\Temp\ccqOwDTe.s 			page 24


 884:Generated_Source\PSoC4/CapSense_CSD_CSHL.c **** *
 885:Generated_Source\PSoC4/CapSense_CSD_CSHL.c **** *******************************************************************************/
 886:Generated_Source\PSoC4/CapSense_CSD_CSHL.c **** uint8 CapSense_CSD_GetNegativeNoiseThreshold(uint32 widget)
 887:Generated_Source\PSoC4/CapSense_CSD_CSHL.c **** {
 425              		.loc 1 887 0
 426              		.cfi_startproc
 427              		@ args = 0, pretend = 0, frame = 0
 428              		@ frame_needed = 0, uses_anonymous_args = 0
 429              		@ link register save eliminated.
 430              	.LVL36:
 888:Generated_Source\PSoC4/CapSense_CSD_CSHL.c **** #if (CapSense_CSD_TUNING_METHOD != CapSense_CSD__TUNING_NONE)
 889:Generated_Source\PSoC4/CapSense_CSD_CSHL.c ****     return(CapSense_CSD_negativeNoiseThreshold[widget]);
 431              		.loc 1 889 0
 432 0000 014B     		ldr	r3, .L38
 433 0002 185C     		ldrb	r0, [r3, r0]
 434              	.LVL37:
 890:Generated_Source\PSoC4/CapSense_CSD_CSHL.c **** #else
 891:Generated_Source\PSoC4/CapSense_CSD_CSHL.c ****     return(CapSense_CSD_NEGATIVE_NOISE_THRESHOLD);
 892:Generated_Source\PSoC4/CapSense_CSD_CSHL.c **** #endif /* (CapSense_CSD_TUNING_METHOD != CapSense_CSD__TUNING_NONE) */
 893:Generated_Source\PSoC4/CapSense_CSD_CSHL.c **** }
 435              		.loc 1 893 0
 436              		@ sp needed
 437 0004 7047     		bx	lr
 438              	.L39:
 439 0006 C046     		.align	2
 440              	.L38:
 441 0008 00000000 		.word	CapSense_CSD_negativeNoiseThreshold
 442              		.cfi_endproc
 443              	.LFE47:
 444              		.size	CapSense_CSD_GetNegativeNoiseThreshold, .-CapSense_CSD_GetNegativeNoiseThreshold
 445              		.section	.text.CapSense_CSD_SetFingerThreshold,"ax",%progbits
 446              		.align	2
 447              		.global	CapSense_CSD_SetFingerThreshold
 448              		.code	16
 449              		.thumb_func
 450              		.type	CapSense_CSD_SetFingerThreshold, %function
 451              	CapSense_CSD_SetFingerThreshold:
 452              	.LFB48:
 894:Generated_Source\PSoC4/CapSense_CSD_CSHL.c **** 
 895:Generated_Source\PSoC4/CapSense_CSD_CSHL.c **** 
 896:Generated_Source\PSoC4/CapSense_CSD_CSHL.c **** #if(CapSense_CSD_TUNING_METHOD != CapSense_CSD__TUNING_NONE)
 897:Generated_Source\PSoC4/CapSense_CSD_CSHL.c ****     /*******************************************************************************
 898:Generated_Source\PSoC4/CapSense_CSD_CSHL.c ****     * Function Name: CapSense_CSD_SetFingerThreshold
 899:Generated_Source\PSoC4/CapSense_CSD_CSHL.c ****     ********************************************************************************
 900:Generated_Source\PSoC4/CapSense_CSD_CSHL.c ****     *
 901:Generated_Source\PSoC4/CapSense_CSD_CSHL.c ****     * Summary:
 902:Generated_Source\PSoC4/CapSense_CSD_CSHL.c ****     *  This API sets the finger threshold value for a widget.
 903:Generated_Source\PSoC4/CapSense_CSD_CSHL.c ****     *
 904:Generated_Source\PSoC4/CapSense_CSD_CSHL.c ****     * Parameters:
 905:Generated_Source\PSoC4/CapSense_CSD_CSHL.c ****     *  sensorNumber:  widget index.
 906:Generated_Source\PSoC4/CapSense_CSD_CSHL.c ****     *  value:  Finger threshold value for the widget.
 907:Generated_Source\PSoC4/CapSense_CSD_CSHL.c ****     *
 908:Generated_Source\PSoC4/CapSense_CSD_CSHL.c ****     * Return Value:
 909:Generated_Source\PSoC4/CapSense_CSD_CSHL.c ****     *  None
 910:Generated_Source\PSoC4/CapSense_CSD_CSHL.c ****     *
 911:Generated_Source\PSoC4/CapSense_CSD_CSHL.c ****     * Global Variables:
 912:Generated_Source\PSoC4/CapSense_CSD_CSHL.c ****     *  CapSense_CSD_fingerThreshold[] - This array contains the level of signal
ARM GAS  C:\Users\ZTIPRI~1\AppData\Local\Temp\ccqOwDTe.s 			page 25


 913:Generated_Source\PSoC4/CapSense_CSD_CSHL.c ****     *   for each widget that determines if a finger is present on the widget.
 914:Generated_Source\PSoC4/CapSense_CSD_CSHL.c ****     *
 915:Generated_Source\PSoC4/CapSense_CSD_CSHL.c ****     * Side Effects:
 916:Generated_Source\PSoC4/CapSense_CSD_CSHL.c ****     *  None
 917:Generated_Source\PSoC4/CapSense_CSD_CSHL.c ****     *
 918:Generated_Source\PSoC4/CapSense_CSD_CSHL.c ****     *******************************************************************************/
 919:Generated_Source\PSoC4/CapSense_CSD_CSHL.c ****     void CapSense_CSD_SetFingerThreshold(uint32 widget, uint8 value)
 920:Generated_Source\PSoC4/CapSense_CSD_CSHL.c ****     {
 453              		.loc 1 920 0
 454              		.cfi_startproc
 455              		@ args = 0, pretend = 0, frame = 0
 456              		@ frame_needed = 0, uses_anonymous_args = 0
 457              		@ link register save eliminated.
 458              	.LVL38:
 921:Generated_Source\PSoC4/CapSense_CSD_CSHL.c ****         CapSense_CSD_fingerThreshold[widget] = value;
 459              		.loc 1 921 0
 460 0000 014B     		ldr	r3, .L41
 461 0002 1954     		strb	r1, [r3, r0]
 922:Generated_Source\PSoC4/CapSense_CSD_CSHL.c ****     }
 462              		.loc 1 922 0
 463              		@ sp needed
 464 0004 7047     		bx	lr
 465              	.L42:
 466 0006 C046     		.align	2
 467              	.L41:
 468 0008 00000000 		.word	CapSense_CSD_fingerThreshold
 469              		.cfi_endproc
 470              	.LFE48:
 471              		.size	CapSense_CSD_SetFingerThreshold, .-CapSense_CSD_SetFingerThreshold
 472              		.section	.text.CapSense_CSD_SetNoiseThreshold,"ax",%progbits
 473              		.align	2
 474              		.global	CapSense_CSD_SetNoiseThreshold
 475              		.code	16
 476              		.thumb_func
 477              		.type	CapSense_CSD_SetNoiseThreshold, %function
 478              	CapSense_CSD_SetNoiseThreshold:
 479              	.LFB49:
 923:Generated_Source\PSoC4/CapSense_CSD_CSHL.c **** 
 924:Generated_Source\PSoC4/CapSense_CSD_CSHL.c **** 
 925:Generated_Source\PSoC4/CapSense_CSD_CSHL.c ****     /*******************************************************************************
 926:Generated_Source\PSoC4/CapSense_CSD_CSHL.c ****     * Function Name: CapSense_CSD_SetNoiseThreshold
 927:Generated_Source\PSoC4/CapSense_CSD_CSHL.c ****     ********************************************************************************
 928:Generated_Source\PSoC4/CapSense_CSD_CSHL.c ****     *
 929:Generated_Source\PSoC4/CapSense_CSD_CSHL.c ****     * Summary:
 930:Generated_Source\PSoC4/CapSense_CSD_CSHL.c ****     *  This API sets the Noise Threshold value for each widget.
 931:Generated_Source\PSoC4/CapSense_CSD_CSHL.c ****     *
 932:Generated_Source\PSoC4/CapSense_CSD_CSHL.c ****     * Parameters:
 933:Generated_Source\PSoC4/CapSense_CSD_CSHL.c ****     *  widget:  Sensor index number.
 934:Generated_Source\PSoC4/CapSense_CSD_CSHL.c ****     *  value:   Noise Threshold value for widget.
 935:Generated_Source\PSoC4/CapSense_CSD_CSHL.c ****     *
 936:Generated_Source\PSoC4/CapSense_CSD_CSHL.c ****     * Return Value:
 937:Generated_Source\PSoC4/CapSense_CSD_CSHL.c ****     *  None
 938:Generated_Source\PSoC4/CapSense_CSD_CSHL.c ****     *
 939:Generated_Source\PSoC4/CapSense_CSD_CSHL.c ****     * Global Variables:
 940:Generated_Source\PSoC4/CapSense_CSD_CSHL.c ****     *  CapSense_CSD_noiseThreshold[] - This array contains the level of signal
 941:Generated_Source\PSoC4/CapSense_CSD_CSHL.c ****     *   for each widget that determines the level of noise in the capacitive scan.
 942:Generated_Source\PSoC4/CapSense_CSD_CSHL.c ****     *
ARM GAS  C:\Users\ZTIPRI~1\AppData\Local\Temp\ccqOwDTe.s 			page 26


 943:Generated_Source\PSoC4/CapSense_CSD_CSHL.c ****     * Side Effects:
 944:Generated_Source\PSoC4/CapSense_CSD_CSHL.c ****     *  None
 945:Generated_Source\PSoC4/CapSense_CSD_CSHL.c ****     *
 946:Generated_Source\PSoC4/CapSense_CSD_CSHL.c ****     *******************************************************************************/
 947:Generated_Source\PSoC4/CapSense_CSD_CSHL.c ****     void CapSense_CSD_SetNoiseThreshold(uint32 widget, uint8 value)
 948:Generated_Source\PSoC4/CapSense_CSD_CSHL.c ****     {
 480              		.loc 1 948 0
 481              		.cfi_startproc
 482              		@ args = 0, pretend = 0, frame = 0
 483              		@ frame_needed = 0, uses_anonymous_args = 0
 484              		@ link register save eliminated.
 485              	.LVL39:
 949:Generated_Source\PSoC4/CapSense_CSD_CSHL.c ****         CapSense_CSD_noiseThreshold[widget] = value;
 486              		.loc 1 949 0
 487 0000 014B     		ldr	r3, .L44
 488 0002 1954     		strb	r1, [r3, r0]
 950:Generated_Source\PSoC4/CapSense_CSD_CSHL.c ****     }
 489              		.loc 1 950 0
 490              		@ sp needed
 491 0004 7047     		bx	lr
 492              	.L45:
 493 0006 C046     		.align	2
 494              	.L44:
 495 0008 00000000 		.word	CapSense_CSD_noiseThreshold
 496              		.cfi_endproc
 497              	.LFE49:
 498              		.size	CapSense_CSD_SetNoiseThreshold, .-CapSense_CSD_SetNoiseThreshold
 499              		.section	.text.CapSense_CSD_SetFingerHysteresis,"ax",%progbits
 500              		.align	2
 501              		.global	CapSense_CSD_SetFingerHysteresis
 502              		.code	16
 503              		.thumb_func
 504              		.type	CapSense_CSD_SetFingerHysteresis, %function
 505              	CapSense_CSD_SetFingerHysteresis:
 506              	.LFB50:
 951:Generated_Source\PSoC4/CapSense_CSD_CSHL.c **** 
 952:Generated_Source\PSoC4/CapSense_CSD_CSHL.c **** 
 953:Generated_Source\PSoC4/CapSense_CSD_CSHL.c ****     /*******************************************************************************
 954:Generated_Source\PSoC4/CapSense_CSD_CSHL.c ****     * Function Name: CapSense_CSD_SetFingerHysteresis
 955:Generated_Source\PSoC4/CapSense_CSD_CSHL.c ****     ********************************************************************************
 956:Generated_Source\PSoC4/CapSense_CSD_CSHL.c ****     *
 957:Generated_Source\PSoC4/CapSense_CSD_CSHL.c ****     * Summary:
 958:Generated_Source\PSoC4/CapSense_CSD_CSHL.c ****     *  This API sets the Hysteresis value of a widget
 959:Generated_Source\PSoC4/CapSense_CSD_CSHL.c ****     *
 960:Generated_Source\PSoC4/CapSense_CSD_CSHL.c ****     * Parameters:
 961:Generated_Source\PSoC4/CapSense_CSD_CSHL.c ****     *  value:  Hysteresis value for widgets.
 962:Generated_Source\PSoC4/CapSense_CSD_CSHL.c ****     *  widget:  widget number
 963:Generated_Source\PSoC4/CapSense_CSD_CSHL.c ****     *
 964:Generated_Source\PSoC4/CapSense_CSD_CSHL.c ****     * Return Value:
 965:Generated_Source\PSoC4/CapSense_CSD_CSHL.c ****     *  None
 966:Generated_Source\PSoC4/CapSense_CSD_CSHL.c ****     *
 967:Generated_Source\PSoC4/CapSense_CSD_CSHL.c ****     * Global Variables:
 968:Generated_Source\PSoC4/CapSense_CSD_CSHL.c ****     *  CapSense_CSD_hysteresis[] - This array contains the hysteresis value for each widget.
 969:Generated_Source\PSoC4/CapSense_CSD_CSHL.c ****     *  CapSense_CSD_widgetNumberSld - structure with dynamic sliders' parameters.
 970:Generated_Source\PSoC4/CapSense_CSD_CSHL.c ****     *
 971:Generated_Source\PSoC4/CapSense_CSD_CSHL.c ****     * Side Effects:
 972:Generated_Source\PSoC4/CapSense_CSD_CSHL.c ****     *  None
ARM GAS  C:\Users\ZTIPRI~1\AppData\Local\Temp\ccqOwDTe.s 			page 27


 973:Generated_Source\PSoC4/CapSense_CSD_CSHL.c ****     *
 974:Generated_Source\PSoC4/CapSense_CSD_CSHL.c ****     *******************************************************************************/
 975:Generated_Source\PSoC4/CapSense_CSD_CSHL.c ****     void CapSense_CSD_SetFingerHysteresis(uint32 widget, uint8 value)
 976:Generated_Source\PSoC4/CapSense_CSD_CSHL.c ****     {
 507              		.loc 1 976 0
 508              		.cfi_startproc
 509              		@ args = 0, pretend = 0, frame = 0
 510              		@ frame_needed = 0, uses_anonymous_args = 0
 511              		@ link register save eliminated.
 512              	.LVL40:
 977:Generated_Source\PSoC4/CapSense_CSD_CSHL.c ****         CapSense_CSD_hysteresis[widget] = value;
 513              		.loc 1 977 0
 514 0000 014B     		ldr	r3, .L47
 515 0002 1954     		strb	r1, [r3, r0]
 978:Generated_Source\PSoC4/CapSense_CSD_CSHL.c ****     }
 516              		.loc 1 978 0
 517              		@ sp needed
 518 0004 7047     		bx	lr
 519              	.L48:
 520 0006 C046     		.align	2
 521              	.L47:
 522 0008 00000000 		.word	CapSense_CSD_hysteresis
 523              		.cfi_endproc
 524              	.LFE50:
 525              		.size	CapSense_CSD_SetFingerHysteresis, .-CapSense_CSD_SetFingerHysteresis
 526              		.section	.text.CapSense_CSD_SetNegativeNoiseThreshold,"ax",%progbits
 527              		.align	2
 528              		.global	CapSense_CSD_SetNegativeNoiseThreshold
 529              		.code	16
 530              		.thumb_func
 531              		.type	CapSense_CSD_SetNegativeNoiseThreshold, %function
 532              	CapSense_CSD_SetNegativeNoiseThreshold:
 533              	.LFB51:
 979:Generated_Source\PSoC4/CapSense_CSD_CSHL.c **** 
 980:Generated_Source\PSoC4/CapSense_CSD_CSHL.c **** 
 981:Generated_Source\PSoC4/CapSense_CSD_CSHL.c ****     /*******************************************************************************
 982:Generated_Source\PSoC4/CapSense_CSD_CSHL.c ****     * Function Name: CapSense_CSD_SetNegativeNoiseThreshold
 983:Generated_Source\PSoC4/CapSense_CSD_CSHL.c ****     ********************************************************************************
 984:Generated_Source\PSoC4/CapSense_CSD_CSHL.c ****     *
 985:Generated_Source\PSoC4/CapSense_CSD_CSHL.c ****     * Summary:
 986:Generated_Source\PSoC4/CapSense_CSD_CSHL.c ****     *  This API sets the Negative Noise Threshold value of a widget
 987:Generated_Source\PSoC4/CapSense_CSD_CSHL.c ****     *
 988:Generated_Source\PSoC4/CapSense_CSD_CSHL.c ****     * Parameters:
 989:Generated_Source\PSoC4/CapSense_CSD_CSHL.c ****     *  value:  Negative Noise Threshold value for widgets.
 990:Generated_Source\PSoC4/CapSense_CSD_CSHL.c ****     *  widget: widget number
 991:Generated_Source\PSoC4/CapSense_CSD_CSHL.c ****     *
 992:Generated_Source\PSoC4/CapSense_CSD_CSHL.c ****     * Return Value:
 993:Generated_Source\PSoC4/CapSense_CSD_CSHL.c ****     *  None
 994:Generated_Source\PSoC4/CapSense_CSD_CSHL.c ****     *
 995:Generated_Source\PSoC4/CapSense_CSD_CSHL.c ****     * Global Variables:
 996:Generated_Source\PSoC4/CapSense_CSD_CSHL.c ****     *  CapSense_CSD_negativeNoiseThreshold  - This parameter specifies the negative
 997:Generated_Source\PSoC4/CapSense_CSD_CSHL.c ****     *   difference between the raw count and baseline levels for Baseline resetting to
 998:Generated_Source\PSoC4/CapSense_CSD_CSHL.c ****     *   the raw count level.
 999:Generated_Source\PSoC4/CapSense_CSD_CSHL.c ****     *
1000:Generated_Source\PSoC4/CapSense_CSD_CSHL.c ****     * Side Effects:
1001:Generated_Source\PSoC4/CapSense_CSD_CSHL.c ****     *  None
1002:Generated_Source\PSoC4/CapSense_CSD_CSHL.c ****     *
ARM GAS  C:\Users\ZTIPRI~1\AppData\Local\Temp\ccqOwDTe.s 			page 28


1003:Generated_Source\PSoC4/CapSense_CSD_CSHL.c ****     *******************************************************************************/
1004:Generated_Source\PSoC4/CapSense_CSD_CSHL.c ****     void CapSense_CSD_SetNegativeNoiseThreshold(uint32 widget, uint8 value)
1005:Generated_Source\PSoC4/CapSense_CSD_CSHL.c ****     {
 534              		.loc 1 1005 0
 535              		.cfi_startproc
 536              		@ args = 0, pretend = 0, frame = 0
 537              		@ frame_needed = 0, uses_anonymous_args = 0
 538              		@ link register save eliminated.
 539              	.LVL41:
1006:Generated_Source\PSoC4/CapSense_CSD_CSHL.c ****         CapSense_CSD_negativeNoiseThreshold[widget] = value;
 540              		.loc 1 1006 0
 541 0000 014B     		ldr	r3, .L50
 542 0002 1954     		strb	r1, [r3, r0]
1007:Generated_Source\PSoC4/CapSense_CSD_CSHL.c ****     }
 543              		.loc 1 1007 0
 544              		@ sp needed
 545 0004 7047     		bx	lr
 546              	.L51:
 547 0006 C046     		.align	2
 548              	.L50:
 549 0008 00000000 		.word	CapSense_CSD_negativeNoiseThreshold
 550              		.cfi_endproc
 551              	.LFE51:
 552              		.size	CapSense_CSD_SetNegativeNoiseThreshold, .-CapSense_CSD_SetNegativeNoiseThreshold
 553              		.section	.text.CapSense_CSD_SetDebounce,"ax",%progbits
 554              		.align	2
 555              		.global	CapSense_CSD_SetDebounce
 556              		.code	16
 557              		.thumb_func
 558              		.type	CapSense_CSD_SetDebounce, %function
 559              	CapSense_CSD_SetDebounce:
 560              	.LFB52:
1008:Generated_Source\PSoC4/CapSense_CSD_CSHL.c **** 
1009:Generated_Source\PSoC4/CapSense_CSD_CSHL.c **** 
1010:Generated_Source\PSoC4/CapSense_CSD_CSHL.c ****     /*******************************************************************************
1011:Generated_Source\PSoC4/CapSense_CSD_CSHL.c ****     * Function Name: CapSense_CSD_SetDebounce
1012:Generated_Source\PSoC4/CapSense_CSD_CSHL.c ****     ********************************************************************************
1013:Generated_Source\PSoC4/CapSense_CSD_CSHL.c ****     *
1014:Generated_Source\PSoC4/CapSense_CSD_CSHL.c ****     * Summary:
1015:Generated_Source\PSoC4/CapSense_CSD_CSHL.c ****     *  This API sets the debounce value for a widget.
1016:Generated_Source\PSoC4/CapSense_CSD_CSHL.c ****     *
1017:Generated_Source\PSoC4/CapSense_CSD_CSHL.c ****     * Parameters:
1018:Generated_Source\PSoC4/CapSense_CSD_CSHL.c ****     *  value:  Debounce value for widget.
1019:Generated_Source\PSoC4/CapSense_CSD_CSHL.c ****     *  widget: widget index.
1020:Generated_Source\PSoC4/CapSense_CSD_CSHL.c ****     *
1021:Generated_Source\PSoC4/CapSense_CSD_CSHL.c ****     * Return Value:
1022:Generated_Source\PSoC4/CapSense_CSD_CSHL.c ****     *  None
1023:Generated_Source\PSoC4/CapSense_CSD_CSHL.c ****     *
1024:Generated_Source\PSoC4/CapSense_CSD_CSHL.c ****     * Global Variables:
1025:Generated_Source\PSoC4/CapSense_CSD_CSHL.c ****     *  CapSense_CSD_debounce[] - This array contains the debounce value for each widget.
1026:Generated_Source\PSoC4/CapSense_CSD_CSHL.c ****     *  CapSense_CSD_widgetNumberSld - structure with dynamic sliders' parameters.
1027:Generated_Source\PSoC4/CapSense_CSD_CSHL.c ****     *
1028:Generated_Source\PSoC4/CapSense_CSD_CSHL.c ****     * Side Effects:
1029:Generated_Source\PSoC4/CapSense_CSD_CSHL.c ****     *  None
1030:Generated_Source\PSoC4/CapSense_CSD_CSHL.c ****     *
1031:Generated_Source\PSoC4/CapSense_CSD_CSHL.c ****     *******************************************************************************/
1032:Generated_Source\PSoC4/CapSense_CSD_CSHL.c ****     void CapSense_CSD_SetDebounce(uint32 widget, uint8 value)
ARM GAS  C:\Users\ZTIPRI~1\AppData\Local\Temp\ccqOwDTe.s 			page 29


1033:Generated_Source\PSoC4/CapSense_CSD_CSHL.c ****     {
 561              		.loc 1 1033 0
 562              		.cfi_startproc
 563              		@ args = 0, pretend = 0, frame = 0
 564              		@ frame_needed = 0, uses_anonymous_args = 0
 565              		@ link register save eliminated.
 566              	.LVL42:
1034:Generated_Source\PSoC4/CapSense_CSD_CSHL.c ****         CapSense_CSD_debounce[widget] = value;
 567              		.loc 1 1034 0
 568 0000 014B     		ldr	r3, .L53
 569 0002 1954     		strb	r1, [r3, r0]
1035:Generated_Source\PSoC4/CapSense_CSD_CSHL.c ****     }
 570              		.loc 1 1035 0
 571              		@ sp needed
 572 0004 7047     		bx	lr
 573              	.L54:
 574 0006 C046     		.align	2
 575              	.L53:
 576 0008 00000000 		.word	.LANCHOR1
 577              		.cfi_endproc
 578              	.LFE52:
 579              		.size	CapSense_CSD_SetDebounce, .-CapSense_CSD_SetDebounce
 580              		.section	.text.CapSense_CSD_SetLowBaselineReset,"ax",%progbits
 581              		.align	2
 582              		.global	CapSense_CSD_SetLowBaselineReset
 583              		.code	16
 584              		.thumb_func
 585              		.type	CapSense_CSD_SetLowBaselineReset, %function
 586              	CapSense_CSD_SetLowBaselineReset:
 587              	.LFB53:
1036:Generated_Source\PSoC4/CapSense_CSD_CSHL.c **** 
1037:Generated_Source\PSoC4/CapSense_CSD_CSHL.c **** 
1038:Generated_Source\PSoC4/CapSense_CSD_CSHL.c ****     /*******************************************************************************
1039:Generated_Source\PSoC4/CapSense_CSD_CSHL.c ****     * Function Name: CapSense_CSD_SetLowBaselineReset
1040:Generated_Source\PSoC4/CapSense_CSD_CSHL.c ****     ********************************************************************************
1041:Generated_Source\PSoC4/CapSense_CSD_CSHL.c ****     *
1042:Generated_Source\PSoC4/CapSense_CSD_CSHL.c ****     * Summary:
1043:Generated_Source\PSoC4/CapSense_CSD_CSHL.c ****     *  This API sets the low baseline reset threshold value for the sensor.
1044:Generated_Source\PSoC4/CapSense_CSD_CSHL.c ****     *
1045:Generated_Source\PSoC4/CapSense_CSD_CSHL.c ****     * Parameters:
1046:Generated_Source\PSoC4/CapSense_CSD_CSHL.c ****     *  value: low baseline reset threshold value.
1047:Generated_Source\PSoC4/CapSense_CSD_CSHL.c ****     *  sensor: Sensor index.
1048:Generated_Source\PSoC4/CapSense_CSD_CSHL.c ****     *
1049:Generated_Source\PSoC4/CapSense_CSD_CSHL.c ****     * Return Value:
1050:Generated_Source\PSoC4/CapSense_CSD_CSHL.c ****     *  None
1051:Generated_Source\PSoC4/CapSense_CSD_CSHL.c ****     *
1052:Generated_Source\PSoC4/CapSense_CSD_CSHL.c ****     * Global Variables:
1053:Generated_Source\PSoC4/CapSense_CSD_CSHL.c ****     *  CapSense_CSD_lowBaselineReset[] - This array contains the Baseline update
1054:Generated_Source\PSoC4/CapSense_CSD_CSHL.c ****     *  threshold value for each sensor.
1055:Generated_Source\PSoC4/CapSense_CSD_CSHL.c ****     *
1056:Generated_Source\PSoC4/CapSense_CSD_CSHL.c ****     * Side Effects:
1057:Generated_Source\PSoC4/CapSense_CSD_CSHL.c ****     *  None
1058:Generated_Source\PSoC4/CapSense_CSD_CSHL.c ****     *
1059:Generated_Source\PSoC4/CapSense_CSD_CSHL.c ****     *******************************************************************************/
1060:Generated_Source\PSoC4/CapSense_CSD_CSHL.c ****     void CapSense_CSD_SetLowBaselineReset(uint32 sensor, uint8 value)
1061:Generated_Source\PSoC4/CapSense_CSD_CSHL.c ****     {
 588              		.loc 1 1061 0
ARM GAS  C:\Users\ZTIPRI~1\AppData\Local\Temp\ccqOwDTe.s 			page 30


 589              		.cfi_startproc
 590              		@ args = 0, pretend = 0, frame = 0
 591              		@ frame_needed = 0, uses_anonymous_args = 0
 592              		@ link register save eliminated.
 593              	.LVL43:
1062:Generated_Source\PSoC4/CapSense_CSD_CSHL.c ****         CapSense_CSD_lowBaselineReset[sensor] = value;
 594              		.loc 1 1062 0
 595 0000 014B     		ldr	r3, .L56
 596 0002 1818     		adds	r0, r3, r0
 597              	.LVL44:
 598 0004 0172     		strb	r1, [r0, #8]
1063:Generated_Source\PSoC4/CapSense_CSD_CSHL.c ****     }
 599              		.loc 1 1063 0
 600              		@ sp needed
 601 0006 7047     		bx	lr
 602              	.L57:
 603              		.align	2
 604              	.L56:
 605 0008 00000000 		.word	.LANCHOR1
 606              		.cfi_endproc
 607              	.LFE53:
 608              		.size	CapSense_CSD_SetLowBaselineReset, .-CapSense_CSD_SetLowBaselineReset
 609              		.section	.text.CapSense_CSD_CheckIsSensorActive,"ax",%progbits
 610              		.align	2
 611              		.global	CapSense_CSD_CheckIsSensorActive
 612              		.code	16
 613              		.thumb_func
 614              		.type	CapSense_CSD_CheckIsSensorActive, %function
 615              	CapSense_CSD_CheckIsSensorActive:
 616              	.LFB54:
1064:Generated_Source\PSoC4/CapSense_CSD_CSHL.c **** #endif /* (CapSense_CSD_TUNING_METHOD != CapSense_CSD__TUNING_NONE) */
1065:Generated_Source\PSoC4/CapSense_CSD_CSHL.c **** 
1066:Generated_Source\PSoC4/CapSense_CSD_CSHL.c **** 
1067:Generated_Source\PSoC4/CapSense_CSD_CSHL.c **** /*******************************************************************************
1068:Generated_Source\PSoC4/CapSense_CSD_CSHL.c **** * Function Name: CapSense_CSD_CheckIsSensorActive
1069:Generated_Source\PSoC4/CapSense_CSD_CSHL.c **** ********************************************************************************
1070:Generated_Source\PSoC4/CapSense_CSD_CSHL.c **** *
1071:Generated_Source\PSoC4/CapSense_CSD_CSHL.c **** * Summary:
1072:Generated_Source\PSoC4/CapSense_CSD_CSHL.c **** *  Compares the CapSense_CSD_sensorSignal[sensor] array element to the finger
1073:Generated_Source\PSoC4/CapSense_CSD_CSHL.c **** *  threshold of the widget it belongs to. The hysteresis and debounce are taken into
1074:Generated_Source\PSoC4/CapSense_CSD_CSHL.c **** *  account. The hysteresis is added or subtracted from the finger threshold
1075:Generated_Source\PSoC4/CapSense_CSD_CSHL.c **** *  based on whether the sensor is currently active.
1076:Generated_Source\PSoC4/CapSense_CSD_CSHL.c **** *  If the sensor is active, the threshold is lowered by the hysteresis amount.
1077:Generated_Source\PSoC4/CapSense_CSD_CSHL.c **** *  If the sensor is inactive, the threshold is raised by the hysteresis amount.
1078:Generated_Source\PSoC4/CapSense_CSD_CSHL.c **** *  The debounce counter is added to the sensor active transition.
1079:Generated_Source\PSoC4/CapSense_CSD_CSHL.c **** *  This function updates the CapSense_CSD_sensorOnMask[] array element.
1080:Generated_Source\PSoC4/CapSense_CSD_CSHL.c **** *
1081:Generated_Source\PSoC4/CapSense_CSD_CSHL.c **** * Parameters:
1082:Generated_Source\PSoC4/CapSense_CSD_CSHL.c **** *  sensor:  Sensor number.
1083:Generated_Source\PSoC4/CapSense_CSD_CSHL.c **** *
1084:Generated_Source\PSoC4/CapSense_CSD_CSHL.c **** * Return:
1085:Generated_Source\PSoC4/CapSense_CSD_CSHL.c **** *  Returns sensor state 1 if active, 0 if not active.
1086:Generated_Source\PSoC4/CapSense_CSD_CSHL.c **** *
1087:Generated_Source\PSoC4/CapSense_CSD_CSHL.c **** * Global Variables:
1088:Generated_Source\PSoC4/CapSense_CSD_CSHL.c **** *  CapSense_CSD_sensorSignal[] - used to store the difference between
1089:Generated_Source\PSoC4/CapSense_CSD_CSHL.c **** *  the current value of raw data and a previous value of the baseline.
1090:Generated_Source\PSoC4/CapSense_CSD_CSHL.c **** *  CapSense_CSD_debounceCounter[]   - used to store the current debounce
ARM GAS  C:\Users\ZTIPRI~1\AppData\Local\Temp\ccqOwDTe.s 			page 31


1091:Generated_Source\PSoC4/CapSense_CSD_CSHL.c **** *  counter of the sensor. the widget which have this parameter are buttons, matrix
1092:Generated_Source\PSoC4/CapSense_CSD_CSHL.c **** *  buttons, proximity, and guard. All other widgets don't have the  debounce parameter
1093:Generated_Source\PSoC4/CapSense_CSD_CSHL.c **** *  and use the last element of this array with value 0 (it means no debounce).
1094:Generated_Source\PSoC4/CapSense_CSD_CSHL.c **** *  CapSense_CSD_sensorOnMask[] - used to store the sensors on/off state.
1095:Generated_Source\PSoC4/CapSense_CSD_CSHL.c **** *  CapSense_CSD_sensorOnMask[0] contains the masked bits for sensors
1096:Generated_Source\PSoC4/CapSense_CSD_CSHL.c **** *   0 through 7 (sensor 0 is bit 0, sensor 1 is bit 1).
1097:Generated_Source\PSoC4/CapSense_CSD_CSHL.c **** *  CapSense_CSD_sensorEnableMask[1] contains the masked bits for
1098:Generated_Source\PSoC4/CapSense_CSD_CSHL.c **** *  sensors 8 through 15 (if needed), and so on.
1099:Generated_Source\PSoC4/CapSense_CSD_CSHL.c **** *  0 - sensor is inactive.
1100:Generated_Source\PSoC4/CapSense_CSD_CSHL.c **** *  1 - sensor is active.
1101:Generated_Source\PSoC4/CapSense_CSD_CSHL.c **** *
1102:Generated_Source\PSoC4/CapSense_CSD_CSHL.c **** * Side Effects:
1103:Generated_Source\PSoC4/CapSense_CSD_CSHL.c **** *  None
1104:Generated_Source\PSoC4/CapSense_CSD_CSHL.c **** *
1105:Generated_Source\PSoC4/CapSense_CSD_CSHL.c **** *******************************************************************************/
1106:Generated_Source\PSoC4/CapSense_CSD_CSHL.c **** uint32 CapSense_CSD_CheckIsSensorActive(uint32 sensor)
1107:Generated_Source\PSoC4/CapSense_CSD_CSHL.c **** {
 617              		.loc 1 1107 0
 618              		.cfi_startproc
 619              		@ args = 0, pretend = 0, frame = 0
 620              		@ frame_needed = 0, uses_anonymous_args = 0
 621              	.LVL45:
 622 0000 F0B5     		push	{r4, r5, r6, r7, lr}
 623              		.cfi_def_cfa_offset 20
 624              		.cfi_offset 4, -20
 625              		.cfi_offset 5, -16
 626              		.cfi_offset 6, -12
 627              		.cfi_offset 7, -8
 628              		.cfi_offset 14, -4
 629 0002 4746     		mov	r7, r8
 630 0004 80B4     		push	{r7}
 631              		.cfi_def_cfa_offset 24
 632              		.cfi_offset 8, -24
 633 0006 0400     		movs	r4, r0
1108:Generated_Source\PSoC4/CapSense_CSD_CSHL.c ****     uint8 widget;
1109:Generated_Source\PSoC4/CapSense_CSD_CSHL.c ****     uint8 debounce;
1110:Generated_Source\PSoC4/CapSense_CSD_CSHL.c ****     uint8 debounceIndex;
1111:Generated_Source\PSoC4/CapSense_CSD_CSHL.c **** 
1112:Generated_Source\PSoC4/CapSense_CSD_CSHL.c ****     uint8 fingerThreshold;
1113:Generated_Source\PSoC4/CapSense_CSD_CSHL.c ****     uint8 hysteresis;
1114:Generated_Source\PSoC4/CapSense_CSD_CSHL.c ****     
1115:Generated_Source\PSoC4/CapSense_CSD_CSHL.c **** 
1116:Generated_Source\PSoC4/CapSense_CSD_CSHL.c ****     /* Prepare to find debounce counter index */
1117:Generated_Source\PSoC4/CapSense_CSD_CSHL.c ****     widget = CapSense_CSD_widgetNumber[sensor];
 634              		.loc 1 1117 0
 635 0008 224B     		ldr	r3, .L63
 636 000a 1D5C     		ldrb	r5, [r3, r0]
1118:Generated_Source\PSoC4/CapSense_CSD_CSHL.c **** 
1119:Generated_Source\PSoC4/CapSense_CSD_CSHL.c ****     fingerThreshold = CapSense_CSD_fingerThreshold[widget];
 637              		.loc 1 1119 0
 638 000c 224B     		ldr	r3, .L63+4
 639 000e 5F5D     		ldrb	r7, [r3, r5]
 640              	.LVL46:
1120:Generated_Source\PSoC4/CapSense_CSD_CSHL.c ****     hysteresis = CapSense_CSD_hysteresis[widget];
 641              		.loc 1 1120 0
 642 0010 224B     		ldr	r3, .L63+8
 643 0012 5E5D     		ldrb	r6, [r3, r5]
ARM GAS  C:\Users\ZTIPRI~1\AppData\Local\Temp\ccqOwDTe.s 			page 32


 644              	.LVL47:
1121:Generated_Source\PSoC4/CapSense_CSD_CSHL.c ****     debounce = CapSense_CSD_debounce[widget];
 645              		.loc 1 1121 0
 646 0014 224B     		ldr	r3, .L63+12
 647 0016 5B5D     		ldrb	r3, [r3, r5]
 648 0018 9846     		mov	r8, r3
 649              	.LVL48:
1122:Generated_Source\PSoC4/CapSense_CSD_CSHL.c **** 
1123:Generated_Source\PSoC4/CapSense_CSD_CSHL.c ****         debounceIndex = widget;
1124:Generated_Source\PSoC4/CapSense_CSD_CSHL.c **** 
1125:Generated_Source\PSoC4/CapSense_CSD_CSHL.c **** 
1126:Generated_Source\PSoC4/CapSense_CSD_CSHL.c ****     /* Was on */
1127:Generated_Source\PSoC4/CapSense_CSD_CSHL.c ****     if (0u != CapSense_CSD_GetBitValue(CapSense_CSD_sensorOnMask, sensor))
 650              		.loc 1 1127 0
 651 001a 0100     		movs	r1, r0
 652 001c 2148     		ldr	r0, .L63+16
 653              	.LVL49:
 654 001e 2430     		adds	r0, r0, #36
 655 0020 FFF7FEFF 		bl	CapSense_CSD_GetBitValue
 656              	.LVL50:
 657 0024 0028     		cmp	r0, #0
 658 0026 10D0     		beq	.L59
1128:Generated_Source\PSoC4/CapSense_CSD_CSHL.c ****     {
1129:Generated_Source\PSoC4/CapSense_CSD_CSHL.c ****         /* Hysteresis minus */
1130:Generated_Source\PSoC4/CapSense_CSD_CSHL.c ****         if (CapSense_CSD_sensorSignal[sensor] < (fingerThreshold - hysteresis))
 659              		.loc 1 1130 0
 660 0028 1E4B     		ldr	r3, .L63+16
 661 002a 1B19     		adds	r3, r3, r4
 662 002c 1B7D     		ldrb	r3, [r3, #20]
 663 002e BE1B     		subs	r6, r7, r6
 664              	.LVL51:
 665 0030 B342     		cmp	r3, r6
 666 0032 23DA     		bge	.L60
1131:Generated_Source\PSoC4/CapSense_CSD_CSHL.c ****         {
1132:Generated_Source\PSoC4/CapSense_CSD_CSHL.c ****             CapSense_CSD_SetBitValue(CapSense_CSD_sensorOnMask, sensor, 0u);
 667              		.loc 1 1132 0
 668 0034 1B4E     		ldr	r6, .L63+16
 669 0036 3000     		movs	r0, r6
 670 0038 2430     		adds	r0, r0, #36
 671 003a 0022     		movs	r2, #0
 672 003c 2100     		movs	r1, r4
 673 003e FFF7FEFF 		bl	CapSense_CSD_SetBitValue
 674              	.LVL52:
1133:Generated_Source\PSoC4/CapSense_CSD_CSHL.c ****             /* Sensor inactive - reset Debounce counter */
1134:Generated_Source\PSoC4/CapSense_CSD_CSHL.c ****             CapSense_CSD_debounceCounter[debounceIndex] = debounce;
 675              		.loc 1 1134 0
 676 0042 7519     		adds	r5, r6, r5
 677 0044 4346     		mov	r3, r8
 678 0046 2B77     		strb	r3, [r5, #28]
 679 0048 18E0     		b	.L60
 680              	.LVL53:
 681              	.L59:
1135:Generated_Source\PSoC4/CapSense_CSD_CSHL.c ****         }
1136:Generated_Source\PSoC4/CapSense_CSD_CSHL.c ****     }
1137:Generated_Source\PSoC4/CapSense_CSD_CSHL.c ****     else    /* Was off */
1138:Generated_Source\PSoC4/CapSense_CSD_CSHL.c ****     {
1139:Generated_Source\PSoC4/CapSense_CSD_CSHL.c ****         /* Hysteresis plus */
ARM GAS  C:\Users\ZTIPRI~1\AppData\Local\Temp\ccqOwDTe.s 			page 33


1140:Generated_Source\PSoC4/CapSense_CSD_CSHL.c ****         if (CapSense_CSD_sensorSignal[sensor] >= (fingerThreshold + hysteresis))
 682              		.loc 1 1140 0
 683 004a 164B     		ldr	r3, .L63+16
 684 004c 1B19     		adds	r3, r3, r4
 685 004e 1B7D     		ldrb	r3, [r3, #20]
 686 0050 BE19     		adds	r6, r7, r6
 687              	.LVL54:
 688 0052 B342     		cmp	r3, r6
 689 0054 0EDB     		blt	.L61
1141:Generated_Source\PSoC4/CapSense_CSD_CSHL.c ****         {
1142:Generated_Source\PSoC4/CapSense_CSD_CSHL.c ****             CapSense_CSD_debounceCounter[debounceIndex]--;
 690              		.loc 1 1142 0
 691 0056 134B     		ldr	r3, .L63+16
 692 0058 5D19     		adds	r5, r3, r5
 693 005a 2B7F     		ldrb	r3, [r5, #28]
 694 005c 013B     		subs	r3, r3, #1
 695 005e DBB2     		uxtb	r3, r3
 696 0060 2B77     		strb	r3, [r5, #28]
1143:Generated_Source\PSoC4/CapSense_CSD_CSHL.c ****             /* Sensor active, decrement debounce counter */
1144:Generated_Source\PSoC4/CapSense_CSD_CSHL.c ****             if(CapSense_CSD_debounceCounter[debounceIndex] == 0u)
 697              		.loc 1 1144 0
 698 0062 002B     		cmp	r3, #0
 699 0064 0AD1     		bne	.L60
1145:Generated_Source\PSoC4/CapSense_CSD_CSHL.c ****             {
1146:Generated_Source\PSoC4/CapSense_CSD_CSHL.c ****                 CapSense_CSD_SetBitValue(CapSense_CSD_sensorOnMask, sensor, 1u);
 700              		.loc 1 1146 0
 701 0066 0122     		movs	r2, #1
 702 0068 2100     		movs	r1, r4
 703 006a 0E48     		ldr	r0, .L63+16
 704 006c 2430     		adds	r0, r0, #36
 705 006e FFF7FEFF 		bl	CapSense_CSD_SetBitValue
 706              	.LVL55:
 707 0072 03E0     		b	.L60
 708              	.L61:
1147:Generated_Source\PSoC4/CapSense_CSD_CSHL.c ****             }
1148:Generated_Source\PSoC4/CapSense_CSD_CSHL.c ****         }
1149:Generated_Source\PSoC4/CapSense_CSD_CSHL.c ****         else
1150:Generated_Source\PSoC4/CapSense_CSD_CSHL.c ****         {
1151:Generated_Source\PSoC4/CapSense_CSD_CSHL.c ****             /* Sensor inactive - reset Debounce counter */
1152:Generated_Source\PSoC4/CapSense_CSD_CSHL.c ****             CapSense_CSD_debounceCounter[debounceIndex] = debounce;
 709              		.loc 1 1152 0
 710 0074 0B4B     		ldr	r3, .L63+16
 711 0076 5D19     		adds	r5, r3, r5
 712 0078 4346     		mov	r3, r8
 713 007a 2B77     		strb	r3, [r5, #28]
 714              	.L60:
1153:Generated_Source\PSoC4/CapSense_CSD_CSHL.c ****         }
1154:Generated_Source\PSoC4/CapSense_CSD_CSHL.c ****     }
1155:Generated_Source\PSoC4/CapSense_CSD_CSHL.c **** 
1156:Generated_Source\PSoC4/CapSense_CSD_CSHL.c ****     return ((uint32)((0u != CapSense_CSD_GetBitValue(CapSense_CSD_sensorOnMask, sensor)) ? 1u : 0u)
 715              		.loc 1 1156 0
 716 007c 2100     		movs	r1, r4
 717 007e 0948     		ldr	r0, .L63+16
 718 0080 2430     		adds	r0, r0, #36
 719 0082 FFF7FEFF 		bl	CapSense_CSD_GetBitValue
 720              	.LVL56:
 721 0086 0028     		cmp	r0, #0
ARM GAS  C:\Users\ZTIPRI~1\AppData\Local\Temp\ccqOwDTe.s 			page 34


 722 0088 00D0     		beq	.L62
 723 008a 0120     		movs	r0, #1
 724              	.L62:
1157:Generated_Source\PSoC4/CapSense_CSD_CSHL.c **** }
 725              		.loc 1 1157 0 discriminator 4
 726              		@ sp needed
 727              	.LVL57:
 728              	.LVL58:
 729              	.LVL59:
 730 008c 04BC     		pop	{r2}
 731 008e 9046     		mov	r8, r2
 732 0090 F0BD     		pop	{r4, r5, r6, r7, pc}
 733              	.L64:
 734 0092 C046     		.align	2
 735              	.L63:
 736 0094 00000000 		.word	CapSense_CSD_widgetNumber
 737 0098 00000000 		.word	CapSense_CSD_fingerThreshold
 738 009c 00000000 		.word	CapSense_CSD_hysteresis
 739 00a0 00000000 		.word	.LANCHOR1
 740 00a4 00000000 		.word	.LANCHOR0
 741              		.cfi_endproc
 742              	.LFE54:
 743              		.size	CapSense_CSD_CheckIsSensorActive, .-CapSense_CSD_CheckIsSensorActive
 744              		.section	.text.CapSense_CSD_CheckIsWidgetActive,"ax",%progbits
 745              		.align	2
 746              		.global	CapSense_CSD_CheckIsWidgetActive
 747              		.code	16
 748              		.thumb_func
 749              		.type	CapSense_CSD_CheckIsWidgetActive, %function
 750              	CapSense_CSD_CheckIsWidgetActive:
 751              	.LFB55:
1158:Generated_Source\PSoC4/CapSense_CSD_CSHL.c **** 
1159:Generated_Source\PSoC4/CapSense_CSD_CSHL.c **** 
1160:Generated_Source\PSoC4/CapSense_CSD_CSHL.c **** /*******************************************************************************
1161:Generated_Source\PSoC4/CapSense_CSD_CSHL.c **** * Function Name: CapSense_CSD_CheckIsWidgetActive
1162:Generated_Source\PSoC4/CapSense_CSD_CSHL.c **** ********************************************************************************
1163:Generated_Source\PSoC4/CapSense_CSD_CSHL.c **** *
1164:Generated_Source\PSoC4/CapSense_CSD_CSHL.c **** * Summary:
1165:Generated_Source\PSoC4/CapSense_CSD_CSHL.c **** *  Compares the CapSense_sensorSignal[] array element to the finger threshold of
1166:Generated_Source\PSoC4/CapSense_CSD_CSHL.c **** * the widget it belongs to. The hysteresis and debounce are taken into account.
1167:Generated_Source\PSoC4/CapSense_CSD_CSHL.c **** * The hysteresis is added or subtracted from the finger threshold based on whether
1168:Generated_Source\PSoC4/CapSense_CSD_CSHL.c **** *  the sensor is currently active. If the sensor is active, the threshold is
1169:Generated_Source\PSoC4/CapSense_CSD_CSHL.c **** *  lowered by the hysteresis amount. If the sensor is inactive, the threshold
1170:Generated_Source\PSoC4/CapSense_CSD_CSHL.c **** *  is raised by the hysteresis amount.
1171:Generated_Source\PSoC4/CapSense_CSD_CSHL.c **** * The debounce counter added to the sensor active transition.
1172:Generated_Source\PSoC4/CapSense_CSD_CSHL.c **** * This function updates CapSense_sensorOnMask[] array element
1173:Generated_Source\PSoC4/CapSense_CSD_CSHL.c **** *
1174:Generated_Source\PSoC4/CapSense_CSD_CSHL.c **** * Parameters:
1175:Generated_Source\PSoC4/CapSense_CSD_CSHL.c **** *  widget:  widget number.
1176:Generated_Source\PSoC4/CapSense_CSD_CSHL.c **** *
1177:Generated_Source\PSoC4/CapSense_CSD_CSHL.c **** * Return:
1178:Generated_Source\PSoC4/CapSense_CSD_CSHL.c **** *  Returns widget sensor state 1 if one or more sensors within widget is/are
1179:Generated_Source\PSoC4/CapSense_CSD_CSHL.c **** *  active, 0 if all sensors within widget are inactive.
1180:Generated_Source\PSoC4/CapSense_CSD_CSHL.c **** *
1181:Generated_Source\PSoC4/CapSense_CSD_CSHL.c **** * Global Variables:
1182:Generated_Source\PSoC4/CapSense_CSD_CSHL.c **** *  rawDataIndex[]: Contains the  1st sensor position in the widget
1183:Generated_Source\PSoC4/CapSense_CSD_CSHL.c **** *
ARM GAS  C:\Users\ZTIPRI~1\AppData\Local\Temp\ccqOwDTe.s 			page 35


1184:Generated_Source\PSoC4/CapSense_CSD_CSHL.c **** * Side Effects:
1185:Generated_Source\PSoC4/CapSense_CSD_CSHL.c **** *  None
1186:Generated_Source\PSoC4/CapSense_CSD_CSHL.c **** *
1187:Generated_Source\PSoC4/CapSense_CSD_CSHL.c **** *******************************************************************************/
1188:Generated_Source\PSoC4/CapSense_CSD_CSHL.c **** uint32 CapSense_CSD_CheckIsWidgetActive(uint32 widget)
1189:Generated_Source\PSoC4/CapSense_CSD_CSHL.c **** {
 752              		.loc 1 1189 0
 753              		.cfi_startproc
 754              		@ args = 0, pretend = 0, frame = 0
 755              		@ frame_needed = 0, uses_anonymous_args = 0
 756              	.LVL60:
 757 0000 70B5     		push	{r4, r5, r6, lr}
 758              		.cfi_def_cfa_offset 16
 759              		.cfi_offset 4, -16
 760              		.cfi_offset 5, -12
 761              		.cfi_offset 6, -8
 762              		.cfi_offset 14, -4
1190:Generated_Source\PSoC4/CapSense_CSD_CSHL.c ****     uint32 rawIndex = (uint32)CapSense_CSD_rawDataIndex[widget];
 763              		.loc 1 1190 0
 764 0002 084B     		ldr	r3, .L69
 765 0004 1C5C     		ldrb	r4, [r3, r0]
 766              	.LVL61:
1191:Generated_Source\PSoC4/CapSense_CSD_CSHL.c ****     uint32 numOfSensors = (uint32)CapSense_CSD_numberOfSensors[widget] + rawIndex;
 767              		.loc 1 1191 0
 768 0006 1818     		adds	r0, r3, r0
 769              	.LVL62:
 770 0008 057A     		ldrb	r5, [r0, #8]
 771 000a 6519     		adds	r5, r4, r5
 772              	.LVL63:
1192:Generated_Source\PSoC4/CapSense_CSD_CSHL.c ****     uint32 state = 0u;
 773              		.loc 1 1192 0
 774 000c 0026     		movs	r6, #0
 775              	.LVL64:
 776              	.L67:
1193:Generated_Source\PSoC4/CapSense_CSD_CSHL.c **** 
1194:Generated_Source\PSoC4/CapSense_CSD_CSHL.c ****     /* Check all sensors of widget */
1195:Generated_Source\PSoC4/CapSense_CSD_CSHL.c ****     do
1196:Generated_Source\PSoC4/CapSense_CSD_CSHL.c ****     {
1197:Generated_Source\PSoC4/CapSense_CSD_CSHL.c ****         if(CapSense_CSD_CheckIsSensorActive((uint32)rawIndex) != 0u)
 777              		.loc 1 1197 0
 778 000e 2000     		movs	r0, r4
 779 0010 FFF7FEFF 		bl	CapSense_CSD_CheckIsSensorActive
 780              	.LVL65:
 781 0014 0028     		cmp	r0, #0
 782 0016 00D0     		beq	.L66
1198:Generated_Source\PSoC4/CapSense_CSD_CSHL.c ****         {
1199:Generated_Source\PSoC4/CapSense_CSD_CSHL.c ****             state = CapSense_CSD_SENSOR_IS_ACTIVE;
 783              		.loc 1 1199 0
 784 0018 0126     		movs	r6, #1
 785              	.LVL66:
 786              	.L66:
1200:Generated_Source\PSoC4/CapSense_CSD_CSHL.c ****         }
1201:Generated_Source\PSoC4/CapSense_CSD_CSHL.c ****         rawIndex++;
 787              		.loc 1 1201 0
 788 001a 0134     		adds	r4, r4, #1
 789              	.LVL67:
1202:Generated_Source\PSoC4/CapSense_CSD_CSHL.c ****     }
ARM GAS  C:\Users\ZTIPRI~1\AppData\Local\Temp\ccqOwDTe.s 			page 36


1203:Generated_Source\PSoC4/CapSense_CSD_CSHL.c ****     while(rawIndex < numOfSensors);
 790              		.loc 1 1203 0
 791 001c A542     		cmp	r5, r4
 792 001e F6D8     		bhi	.L67
1204:Generated_Source\PSoC4/CapSense_CSD_CSHL.c **** 
1205:Generated_Source\PSoC4/CapSense_CSD_CSHL.c **** 
1206:Generated_Source\PSoC4/CapSense_CSD_CSHL.c **** 
1207:Generated_Source\PSoC4/CapSense_CSD_CSHL.c ****     return state;
1208:Generated_Source\PSoC4/CapSense_CSD_CSHL.c **** }
 793              		.loc 1 1208 0
 794 0020 3000     		movs	r0, r6
 795              		@ sp needed
 796              	.LVL68:
 797              	.LVL69:
 798              	.LVL70:
 799 0022 70BD     		pop	{r4, r5, r6, pc}
 800              	.L70:
 801              		.align	2
 802              	.L69:
 803 0024 00000000 		.word	.LANCHOR2
 804              		.cfi_endproc
 805              	.LFE55:
 806              		.size	CapSense_CSD_CheckIsWidgetActive, .-CapSense_CSD_CheckIsWidgetActive
 807              		.section	.text.CapSense_CSD_CheckIsAnyWidgetActive,"ax",%progbits
 808              		.align	2
 809              		.global	CapSense_CSD_CheckIsAnyWidgetActive
 810              		.code	16
 811              		.thumb_func
 812              		.type	CapSense_CSD_CheckIsAnyWidgetActive, %function
 813              	CapSense_CSD_CheckIsAnyWidgetActive:
 814              	.LFB56:
1209:Generated_Source\PSoC4/CapSense_CSD_CSHL.c **** 
1210:Generated_Source\PSoC4/CapSense_CSD_CSHL.c **** 
1211:Generated_Source\PSoC4/CapSense_CSD_CSHL.c **** /*******************************************************************************
1212:Generated_Source\PSoC4/CapSense_CSD_CSHL.c **** * Function Name: CapSense_CSD_CheckIsAnyWidgetActive
1213:Generated_Source\PSoC4/CapSense_CSD_CSHL.c **** ********************************************************************************
1214:Generated_Source\PSoC4/CapSense_CSD_CSHL.c **** *
1215:Generated_Source\PSoC4/CapSense_CSD_CSHL.c **** * Summary:
1216:Generated_Source\PSoC4/CapSense_CSD_CSHL.c **** *  Compares all the sensors of the CapSense_CSD_Signal[] array to their finger
1217:Generated_Source\PSoC4/CapSense_CSD_CSHL.c **** *  threshold. Calls CapSense_CSD_CheckIsWidgetActive() for each widget so
1218:Generated_Source\PSoC4/CapSense_CSD_CSHL.c **** *  the CapSense_CSD_sensorOnMask[] array is up to date after calling this
1219:Generated_Source\PSoC4/CapSense_CSD_CSHL.c **** *  function.
1220:Generated_Source\PSoC4/CapSense_CSD_CSHL.c **** *
1221:Generated_Source\PSoC4/CapSense_CSD_CSHL.c **** * Parameters:
1222:Generated_Source\PSoC4/CapSense_CSD_CSHL.c **** *  widget:  widget number.
1223:Generated_Source\PSoC4/CapSense_CSD_CSHL.c **** *
1224:Generated_Source\PSoC4/CapSense_CSD_CSHL.c **** * Return:
1225:Generated_Source\PSoC4/CapSense_CSD_CSHL.c **** *  Returns 1 if any widget is active, 0 none of widgets are active.
1226:Generated_Source\PSoC4/CapSense_CSD_CSHL.c **** *
1227:Generated_Source\PSoC4/CapSense_CSD_CSHL.c **** * Global Variables:
1228:Generated_Source\PSoC4/CapSense_CSD_CSHL.c **** *  None
1229:Generated_Source\PSoC4/CapSense_CSD_CSHL.c **** *
1230:Generated_Source\PSoC4/CapSense_CSD_CSHL.c **** * Side Effects:
1231:Generated_Source\PSoC4/CapSense_CSD_CSHL.c **** *  None
1232:Generated_Source\PSoC4/CapSense_CSD_CSHL.c **** *
1233:Generated_Source\PSoC4/CapSense_CSD_CSHL.c **** *******************************************************************************/
1234:Generated_Source\PSoC4/CapSense_CSD_CSHL.c **** uint32 CapSense_CSD_CheckIsAnyWidgetActive(void)
ARM GAS  C:\Users\ZTIPRI~1\AppData\Local\Temp\ccqOwDTe.s 			page 37


1235:Generated_Source\PSoC4/CapSense_CSD_CSHL.c **** {
 815              		.loc 1 1235 0
 816              		.cfi_startproc
 817              		@ args = 0, pretend = 0, frame = 0
 818              		@ frame_needed = 0, uses_anonymous_args = 0
 819 0000 70B5     		push	{r4, r5, r6, lr}
 820              		.cfi_def_cfa_offset 16
 821              		.cfi_offset 4, -16
 822              		.cfi_offset 5, -12
 823              		.cfi_offset 6, -8
 824              		.cfi_offset 14, -4
 825              	.LVL71:
1236:Generated_Source\PSoC4/CapSense_CSD_CSHL.c **** 
1237:Generated_Source\PSoC4/CapSense_CSD_CSHL.c ****         uint32 i;
1238:Generated_Source\PSoC4/CapSense_CSD_CSHL.c ****     uint32 state = 0u;
 826              		.loc 1 1238 0
 827 0002 0025     		movs	r5, #0
1239:Generated_Source\PSoC4/CapSense_CSD_CSHL.c ****     
1240:Generated_Source\PSoC4/CapSense_CSD_CSHL.c ****     for(i = 0u; i < CapSense_CSD_TOTAL_WIDGET_COUNT; i++)
 828              		.loc 1 1240 0
 829 0004 0024     		movs	r4, #0
 830 0006 06E0     		b	.L72
 831              	.LVL72:
 832              	.L74:
1241:Generated_Source\PSoC4/CapSense_CSD_CSHL.c ****     {
1242:Generated_Source\PSoC4/CapSense_CSD_CSHL.c ****         if (CapSense_CSD_CheckIsWidgetActive(i) != 0u)
 833              		.loc 1 1242 0
 834 0008 2000     		movs	r0, r4
 835 000a FFF7FEFF 		bl	CapSense_CSD_CheckIsWidgetActive
 836              	.LVL73:
 837 000e 0028     		cmp	r0, #0
 838 0010 00D0     		beq	.L73
1243:Generated_Source\PSoC4/CapSense_CSD_CSHL.c ****         {
1244:Generated_Source\PSoC4/CapSense_CSD_CSHL.c ****             state = CapSense_CSD_WIDGET_IS_ACTIVE;
 839              		.loc 1 1244 0
 840 0012 0125     		movs	r5, #1
 841              	.LVL74:
 842              	.L73:
1240:Generated_Source\PSoC4/CapSense_CSD_CSHL.c ****     {
 843              		.loc 1 1240 0 discriminator 2
 844 0014 0134     		adds	r4, r4, #1
 845              	.LVL75:
 846              	.L72:
1240:Generated_Source\PSoC4/CapSense_CSD_CSHL.c ****     {
 847              		.loc 1 1240 0 is_stmt 0 discriminator 1
 848 0016 042C     		cmp	r4, #4
 849 0018 F6D9     		bls	.L74
1245:Generated_Source\PSoC4/CapSense_CSD_CSHL.c ****         }
1246:Generated_Source\PSoC4/CapSense_CSD_CSHL.c ****     }
1247:Generated_Source\PSoC4/CapSense_CSD_CSHL.c ****     
1248:Generated_Source\PSoC4/CapSense_CSD_CSHL.c **** 
1249:Generated_Source\PSoC4/CapSense_CSD_CSHL.c **** 
1250:Generated_Source\PSoC4/CapSense_CSD_CSHL.c ****     return state;
1251:Generated_Source\PSoC4/CapSense_CSD_CSHL.c **** }
 850              		.loc 1 1251 0 is_stmt 1
 851 001a 2800     		movs	r0, r5
 852              		@ sp needed
ARM GAS  C:\Users\ZTIPRI~1\AppData\Local\Temp\ccqOwDTe.s 			page 38


 853              	.LVL76:
 854              	.LVL77:
 855 001c 70BD     		pop	{r4, r5, r6, pc}
 856              		.cfi_endproc
 857              	.LFE56:
 858              		.size	CapSense_CSD_CheckIsAnyWidgetActive, .-CapSense_CSD_CheckIsAnyWidgetActive
 859 001e C046     		.section	.text.CapSense_CSD_EnableWidget,"ax",%progbits
 860              		.align	2
 861              		.global	CapSense_CSD_EnableWidget
 862              		.code	16
 863              		.thumb_func
 864              		.type	CapSense_CSD_EnableWidget, %function
 865              	CapSense_CSD_EnableWidget:
 866              	.LFB57:
1252:Generated_Source\PSoC4/CapSense_CSD_CSHL.c **** 
1253:Generated_Source\PSoC4/CapSense_CSD_CSHL.c **** 
1254:Generated_Source\PSoC4/CapSense_CSD_CSHL.c **** /*******************************************************************************
1255:Generated_Source\PSoC4/CapSense_CSD_CSHL.c **** * Function Name: CapSense_CSD_EnableWidget
1256:Generated_Source\PSoC4/CapSense_CSD_CSHL.c **** ********************************************************************************
1257:Generated_Source\PSoC4/CapSense_CSD_CSHL.c **** *
1258:Generated_Source\PSoC4/CapSense_CSD_CSHL.c **** * Summary:
1259:Generated_Source\PSoC4/CapSense_CSD_CSHL.c **** *  Enables all the widget elements (sensors) to the scanning process.
1260:Generated_Source\PSoC4/CapSense_CSD_CSHL.c **** *
1261:Generated_Source\PSoC4/CapSense_CSD_CSHL.c **** * Parameters:
1262:Generated_Source\PSoC4/CapSense_CSD_CSHL.c **** *  widget:  widget number.
1263:Generated_Source\PSoC4/CapSense_CSD_CSHL.c **** *
1264:Generated_Source\PSoC4/CapSense_CSD_CSHL.c **** * Return:
1265:Generated_Source\PSoC4/CapSense_CSD_CSHL.c **** *  None
1266:Generated_Source\PSoC4/CapSense_CSD_CSHL.c **** *
1267:Generated_Source\PSoC4/CapSense_CSD_CSHL.c **** * Global Variables:
1268:Generated_Source\PSoC4/CapSense_CSD_CSHL.c **** *  CapSense_CSD_sensorEnableMask[] - used to store the sensor scanning
1269:Generated_Source\PSoC4/CapSense_CSD_CSHL.c **** *  state.
1270:Generated_Source\PSoC4/CapSense_CSD_CSHL.c **** *  CapSense_CSD_sensorEnableMask[0] contains the masked bits for sensors
1271:Generated_Source\PSoC4/CapSense_CSD_CSHL.c **** *  0 through 7 (sensor 0 is bit 0, sensor 1 is bit 1).
1272:Generated_Source\PSoC4/CapSense_CSD_CSHL.c **** *  CapSense_CSD_sensorEnableMask[1] contains the masked bits for
1273:Generated_Source\PSoC4/CapSense_CSD_CSHL.c **** *  sensors 8 through 15 (if needed), and so on.
1274:Generated_Source\PSoC4/CapSense_CSD_CSHL.c **** *  0 - sensor doesn't scan by CapSense_CSD_ScanEnabledWidgets().
1275:Generated_Source\PSoC4/CapSense_CSD_CSHL.c **** *  1 - sensor scans by CapSense_CSD_ScanEnabledWidgets().
1276:Generated_Source\PSoC4/CapSense_CSD_CSHL.c **** *
1277:Generated_Source\PSoC4/CapSense_CSD_CSHL.c **** * Side Effects:
1278:Generated_Source\PSoC4/CapSense_CSD_CSHL.c **** *  None
1279:Generated_Source\PSoC4/CapSense_CSD_CSHL.c **** *
1280:Generated_Source\PSoC4/CapSense_CSD_CSHL.c **** *******************************************************************************/
1281:Generated_Source\PSoC4/CapSense_CSD_CSHL.c **** void CapSense_CSD_EnableWidget(uint32 widget)
1282:Generated_Source\PSoC4/CapSense_CSD_CSHL.c **** {
 867              		.loc 1 1282 0
 868              		.cfi_startproc
 869              		@ args = 0, pretend = 0, frame = 0
 870              		@ frame_needed = 0, uses_anonymous_args = 0
 871              	.LVL78:
 872 0000 70B5     		push	{r4, r5, r6, lr}
 873              		.cfi_def_cfa_offset 16
 874              		.cfi_offset 4, -16
 875              		.cfi_offset 5, -12
 876              		.cfi_offset 6, -8
 877              		.cfi_offset 14, -4
1283:Generated_Source\PSoC4/CapSense_CSD_CSHL.c **** 
ARM GAS  C:\Users\ZTIPRI~1\AppData\Local\Temp\ccqOwDTe.s 			page 39


1284:Generated_Source\PSoC4/CapSense_CSD_CSHL.c ****     uint8 rawIndex = CapSense_CSD_rawDataIndex[widget];
 878              		.loc 1 1284 0
 879 0002 084B     		ldr	r3, .L78
 880 0004 1C5C     		ldrb	r4, [r3, r0]
 881              	.LVL79:
1285:Generated_Source\PSoC4/CapSense_CSD_CSHL.c ****     uint8 numOfSensors = CapSense_CSD_numberOfSensors[widget] + rawIndex;
 882              		.loc 1 1285 0
 883 0006 1818     		adds	r0, r3, r0
 884              	.LVL80:
 885 0008 057A     		ldrb	r5, [r0, #8]
 886 000a 6519     		adds	r5, r4, r5
 887 000c EDB2     		uxtb	r5, r5
 888              	.LVL81:
 889              	.L77:
1286:Generated_Source\PSoC4/CapSense_CSD_CSHL.c **** 
1287:Generated_Source\PSoC4/CapSense_CSD_CSHL.c ****     /* Enable all sensors of widget */
1288:Generated_Source\PSoC4/CapSense_CSD_CSHL.c ****     do
1289:Generated_Source\PSoC4/CapSense_CSD_CSHL.c ****     {
1290:Generated_Source\PSoC4/CapSense_CSD_CSHL.c ****         CapSense_CSD_SetBitValue(CapSense_CSD_sensorEnableMask, (uint32)rawIndex, 1u);
 890              		.loc 1 1290 0 discriminator 1
 891 000e 0122     		movs	r2, #1
 892 0010 2100     		movs	r1, r4
 893 0012 0548     		ldr	r0, .L78+4
 894 0014 FFF7FEFF 		bl	CapSense_CSD_SetBitValue
 895              	.LVL82:
1291:Generated_Source\PSoC4/CapSense_CSD_CSHL.c ****         rawIndex++;
 896              		.loc 1 1291 0 discriminator 1
 897 0018 0134     		adds	r4, r4, #1
 898              	.LVL83:
 899 001a E4B2     		uxtb	r4, r4
 900              	.LVL84:
1292:Generated_Source\PSoC4/CapSense_CSD_CSHL.c ****     }
1293:Generated_Source\PSoC4/CapSense_CSD_CSHL.c ****     while(rawIndex < numOfSensors);
 901              		.loc 1 1293 0 discriminator 1
 902 001c A542     		cmp	r5, r4
 903 001e F6D8     		bhi	.L77
1294:Generated_Source\PSoC4/CapSense_CSD_CSHL.c **** }
 904              		.loc 1 1294 0
 905              		@ sp needed
 906              	.LVL85:
 907              	.LVL86:
 908 0020 70BD     		pop	{r4, r5, r6, pc}
 909              	.L79:
 910 0022 C046     		.align	2
 911              	.L78:
 912 0024 00000000 		.word	.LANCHOR2
 913 0028 00000000 		.word	CapSense_CSD_sensorEnableMask
 914              		.cfi_endproc
 915              	.LFE57:
 916              		.size	CapSense_CSD_EnableWidget, .-CapSense_CSD_EnableWidget
 917              		.section	.text.CapSense_CSD_DisableWidget,"ax",%progbits
 918              		.align	2
 919              		.global	CapSense_CSD_DisableWidget
 920              		.code	16
 921              		.thumb_func
 922              		.type	CapSense_CSD_DisableWidget, %function
 923              	CapSense_CSD_DisableWidget:
ARM GAS  C:\Users\ZTIPRI~1\AppData\Local\Temp\ccqOwDTe.s 			page 40


 924              	.LFB58:
1295:Generated_Source\PSoC4/CapSense_CSD_CSHL.c **** 
1296:Generated_Source\PSoC4/CapSense_CSD_CSHL.c **** 
1297:Generated_Source\PSoC4/CapSense_CSD_CSHL.c **** /*******************************************************************************
1298:Generated_Source\PSoC4/CapSense_CSD_CSHL.c **** * Function Name: CapSense_CSD_DisableWidget
1299:Generated_Source\PSoC4/CapSense_CSD_CSHL.c **** ********************************************************************************
1300:Generated_Source\PSoC4/CapSense_CSD_CSHL.c **** *
1301:Generated_Source\PSoC4/CapSense_CSD_CSHL.c **** * Summary:
1302:Generated_Source\PSoC4/CapSense_CSD_CSHL.c **** *  Disables all the widget elements (sensors) from the scanning process.
1303:Generated_Source\PSoC4/CapSense_CSD_CSHL.c **** *
1304:Generated_Source\PSoC4/CapSense_CSD_CSHL.c **** * Parameters:
1305:Generated_Source\PSoC4/CapSense_CSD_CSHL.c **** *  widget:  widget number.
1306:Generated_Source\PSoC4/CapSense_CSD_CSHL.c **** *
1307:Generated_Source\PSoC4/CapSense_CSD_CSHL.c **** * Return:
1308:Generated_Source\PSoC4/CapSense_CSD_CSHL.c **** *  None
1309:Generated_Source\PSoC4/CapSense_CSD_CSHL.c **** *
1310:Generated_Source\PSoC4/CapSense_CSD_CSHL.c **** * Global Variables:
1311:Generated_Source\PSoC4/CapSense_CSD_CSHL.c **** *  CapSense_CSD_sensorEnableMask[] - used to store the sensor scanning
1312:Generated_Source\PSoC4/CapSense_CSD_CSHL.c **** *  state.
1313:Generated_Source\PSoC4/CapSense_CSD_CSHL.c **** *  CapSense_CSD_sensorEnableMask[0] contains the masked bits for sensors
1314:Generated_Source\PSoC4/CapSense_CSD_CSHL.c **** *  0 through 7 (sensor 0 is bit 0, sensor 1 is bit 1).
1315:Generated_Source\PSoC4/CapSense_CSD_CSHL.c **** *  CapSense_CSD_sensorEnableMask[1] contains the masked bits for
1316:Generated_Source\PSoC4/CapSense_CSD_CSHL.c **** *  sensors 8 through 15 (if needed), and so on.
1317:Generated_Source\PSoC4/CapSense_CSD_CSHL.c **** *  0 - sensor isn't scanned by CapSense_CSD_ScanEnabledWidgets().
1318:Generated_Source\PSoC4/CapSense_CSD_CSHL.c **** *  1 - sensor is scanned by CapSense_CSD_ScanEnabledWidgets().
1319:Generated_Source\PSoC4/CapSense_CSD_CSHL.c **** *
1320:Generated_Source\PSoC4/CapSense_CSD_CSHL.c **** * Side Effects:
1321:Generated_Source\PSoC4/CapSense_CSD_CSHL.c **** *  None
1322:Generated_Source\PSoC4/CapSense_CSD_CSHL.c **** *
1323:Generated_Source\PSoC4/CapSense_CSD_CSHL.c **** *******************************************************************************/
1324:Generated_Source\PSoC4/CapSense_CSD_CSHL.c **** void CapSense_CSD_DisableWidget(uint32 widget)
1325:Generated_Source\PSoC4/CapSense_CSD_CSHL.c **** {
 925              		.loc 1 1325 0
 926              		.cfi_startproc
 927              		@ args = 0, pretend = 0, frame = 0
 928              		@ frame_needed = 0, uses_anonymous_args = 0
 929              	.LVL87:
 930 0000 70B5     		push	{r4, r5, r6, lr}
 931              		.cfi_def_cfa_offset 16
 932              		.cfi_offset 4, -16
 933              		.cfi_offset 5, -12
 934              		.cfi_offset 6, -8
 935              		.cfi_offset 14, -4
1326:Generated_Source\PSoC4/CapSense_CSD_CSHL.c ****     uint8 rawIndex = CapSense_CSD_rawDataIndex[widget];
 936              		.loc 1 1326 0
 937 0002 084B     		ldr	r3, .L82
 938 0004 1C5C     		ldrb	r4, [r3, r0]
 939              	.LVL88:
1327:Generated_Source\PSoC4/CapSense_CSD_CSHL.c ****     uint8 numOfSensors = CapSense_CSD_numberOfSensors[widget] + rawIndex;
 940              		.loc 1 1327 0
 941 0006 1818     		adds	r0, r3, r0
 942              	.LVL89:
 943 0008 057A     		ldrb	r5, [r0, #8]
 944 000a 6519     		adds	r5, r4, r5
 945 000c EDB2     		uxtb	r5, r5
 946              	.LVL90:
 947              	.L81:
ARM GAS  C:\Users\ZTIPRI~1\AppData\Local\Temp\ccqOwDTe.s 			page 41


1328:Generated_Source\PSoC4/CapSense_CSD_CSHL.c **** 
1329:Generated_Source\PSoC4/CapSense_CSD_CSHL.c ****     /* Disable all sensors of widget */
1330:Generated_Source\PSoC4/CapSense_CSD_CSHL.c ****     do
1331:Generated_Source\PSoC4/CapSense_CSD_CSHL.c ****     {
1332:Generated_Source\PSoC4/CapSense_CSD_CSHL.c **** 
1333:Generated_Source\PSoC4/CapSense_CSD_CSHL.c ****         CapSense_CSD_SetBitValue(CapSense_CSD_sensorEnableMask, (uint32)rawIndex, 0u);
 948              		.loc 1 1333 0 discriminator 1
 949 000e 0022     		movs	r2, #0
 950 0010 2100     		movs	r1, r4
 951 0012 0548     		ldr	r0, .L82+4
 952 0014 FFF7FEFF 		bl	CapSense_CSD_SetBitValue
 953              	.LVL91:
1334:Generated_Source\PSoC4/CapSense_CSD_CSHL.c ****         rawIndex++;
 954              		.loc 1 1334 0 discriminator 1
 955 0018 0134     		adds	r4, r4, #1
 956              	.LVL92:
 957 001a E4B2     		uxtb	r4, r4
 958              	.LVL93:
1335:Generated_Source\PSoC4/CapSense_CSD_CSHL.c ****     }
1336:Generated_Source\PSoC4/CapSense_CSD_CSHL.c ****     while(rawIndex < numOfSensors);
 959              		.loc 1 1336 0 discriminator 1
 960 001c A542     		cmp	r5, r4
 961 001e F6D8     		bhi	.L81
1337:Generated_Source\PSoC4/CapSense_CSD_CSHL.c **** }
 962              		.loc 1 1337 0
 963              		@ sp needed
 964              	.LVL94:
 965              	.LVL95:
 966 0020 70BD     		pop	{r4, r5, r6, pc}
 967              	.L83:
 968 0022 C046     		.align	2
 969              	.L82:
 970 0024 00000000 		.word	.LANCHOR2
 971 0028 00000000 		.word	CapSense_CSD_sensorEnableMask
 972              		.cfi_endproc
 973              	.LFE58:
 974              		.size	CapSense_CSD_DisableWidget, .-CapSense_CSD_DisableWidget
 975              		.section	.text.CapSense_CSD_MedianFilter,"ax",%progbits
 976              		.align	2
 977              		.global	CapSense_CSD_MedianFilter
 978              		.code	16
 979              		.thumb_func
 980              		.type	CapSense_CSD_MedianFilter, %function
 981              	CapSense_CSD_MedianFilter:
 982              	.LFB59:
1338:Generated_Source\PSoC4/CapSense_CSD_CSHL.c **** 
1339:Generated_Source\PSoC4/CapSense_CSD_CSHL.c **** 
1340:Generated_Source\PSoC4/CapSense_CSD_CSHL.c **** #if(CapSense_CSD_TOTAL_CENTROIDS_BASIC_COUNT)
1341:Generated_Source\PSoC4/CapSense_CSD_CSHL.c ****     /*******************************************************************************
1342:Generated_Source\PSoC4/CapSense_CSD_CSHL.c ****     * Function Name: CapSense_CSD_FindMaximum
1343:Generated_Source\PSoC4/CapSense_CSD_CSHL.c ****     ********************************************************************************
1344:Generated_Source\PSoC4/CapSense_CSD_CSHL.c ****     *
1345:Generated_Source\PSoC4/CapSense_CSD_CSHL.c ****     * Summary:
1346:Generated_Source\PSoC4/CapSense_CSD_CSHL.c ****     *  Finds the index of the maximum element within a defined centroid. Checks
1347:Generated_Source\PSoC4/CapSense_CSD_CSHL.c ****     *  CapSense_CSD_sensorSignal[] within a defined centroid and
1348:Generated_Source\PSoC4/CapSense_CSD_CSHL.c ****     *  returns the index of the maximum element. The values below the finger threshold are
1349:Generated_Source\PSoC4/CapSense_CSD_CSHL.c ****     *  ignored.
ARM GAS  C:\Users\ZTIPRI~1\AppData\Local\Temp\ccqOwDTe.s 			page 42


1350:Generated_Source\PSoC4/CapSense_CSD_CSHL.c ****     *  The centroid is defined by offset of the first element and a number of elements - count.
1351:Generated_Source\PSoC4/CapSense_CSD_CSHL.c ****     *  The diplexed centroid requires at least two consecutive elements above
1352:Generated_Source\PSoC4/CapSense_CSD_CSHL.c ****     *  FingerThreshold to find the index of the maximum element.
1353:Generated_Source\PSoC4/CapSense_CSD_CSHL.c ****     *
1354:Generated_Source\PSoC4/CapSense_CSD_CSHL.c ****     * Parameters:
1355:Generated_Source\PSoC4/CapSense_CSD_CSHL.c ****     *  offset:  Start index of centroid in CapSense_CSD_sensorSignal[] array.
1356:Generated_Source\PSoC4/CapSense_CSD_CSHL.c ****     *  count:   number of elements within centroid.
1357:Generated_Source\PSoC4/CapSense_CSD_CSHL.c ****     *  fingerThreshold:  Finger threshold.
1358:Generated_Source\PSoC4/CapSense_CSD_CSHL.c ****     *  diplex:   pointer to diplex table.
1359:Generated_Source\PSoC4/CapSense_CSD_CSHL.c ****     *
1360:Generated_Source\PSoC4/CapSense_CSD_CSHL.c ****     * Return:
1361:Generated_Source\PSoC4/CapSense_CSD_CSHL.c ****     *  Returns the index of the maximum element within a defined centroid.
1362:Generated_Source\PSoC4/CapSense_CSD_CSHL.c ****     *  If the index of the maximum element isn't found it returns 0xFF.
1363:Generated_Source\PSoC4/CapSense_CSD_CSHL.c ****     *
1364:Generated_Source\PSoC4/CapSense_CSD_CSHL.c ****     * Global Variables:
1365:Generated_Source\PSoC4/CapSense_CSD_CSHL.c ****     *  CapSense_CSD_startOfSlider[] - contains the index of the first slider element
1366:Generated_Source\PSoC4/CapSense_CSD_CSHL.c ****     *
1367:Generated_Source\PSoC4/CapSense_CSD_CSHL.c ****     * Side Effects:
1368:Generated_Source\PSoC4/CapSense_CSD_CSHL.c ****     *  None
1369:Generated_Source\PSoC4/CapSense_CSD_CSHL.c ****     *
1370:Generated_Source\PSoC4/CapSense_CSD_CSHL.c ****     *******************************************************************************/
1371:Generated_Source\PSoC4/CapSense_CSD_CSHL.c ****     #if (CapSense_CSD_IS_DIPLEX_SLIDER)
1372:Generated_Source\PSoC4/CapSense_CSD_CSHL.c ****         uint8 CapSense_CSD_FindMaximum(uint8 offset, uint8 count, uint8 fingerThreshold, const uint
1373:Generated_Source\PSoC4/CapSense_CSD_CSHL.c ****     #else
1374:Generated_Source\PSoC4/CapSense_CSD_CSHL.c ****         uint8 CapSense_CSD_FindMaximum(uint8 offset, uint8 count, uint8 fingerThreshold)
1375:Generated_Source\PSoC4/CapSense_CSD_CSHL.c ****     #endif /* (CapSense_CSD_IS_DIPLEX_SLIDER) */
1376:Generated_Source\PSoC4/CapSense_CSD_CSHL.c ****     {
1377:Generated_Source\PSoC4/CapSense_CSD_CSHL.c ****         uint8 i;
1378:Generated_Source\PSoC4/CapSense_CSD_CSHL.c ****         #if (CapSense_CSD_IS_DIPLEX_SLIDER)
1379:Generated_Source\PSoC4/CapSense_CSD_CSHL.c ****             uint8 curPos = 0u;
1380:Generated_Source\PSoC4/CapSense_CSD_CSHL.c ****             /* No centroid at Start */
1381:Generated_Source\PSoC4/CapSense_CSD_CSHL.c ****             uint8 curCntrdSize = 0u;
1382:Generated_Source\PSoC4/CapSense_CSD_CSHL.c ****             uint8 curCtrdStartPos = CapSense_CSD_MAXIMUM_CENTROID;
1383:Generated_Source\PSoC4/CapSense_CSD_CSHL.c ****             /* Biggest centroid is zero */
1384:Generated_Source\PSoC4/CapSense_CSD_CSHL.c ****             uint8 biggestCtrdSize = 0u;
1385:Generated_Source\PSoC4/CapSense_CSD_CSHL.c ****             uint8 biggestCtrdStartPos = 0u;
1386:Generated_Source\PSoC4/CapSense_CSD_CSHL.c ****         #endif /* (CapSense_CSD_IS_DIPLEX_SLIDER) */
1387:Generated_Source\PSoC4/CapSense_CSD_CSHL.c ****         uint8 maximum = CapSense_CSD_MAXIMUM_CENTROID;
1388:Generated_Source\PSoC4/CapSense_CSD_CSHL.c **** 
1389:Generated_Source\PSoC4/CapSense_CSD_CSHL.c ****         uint8 temp = 0u;
1390:Generated_Source\PSoC4/CapSense_CSD_CSHL.c ****         uint8 *startOfSlider = &CapSense_CSD_sensorSignal[offset];
1391:Generated_Source\PSoC4/CapSense_CSD_CSHL.c **** 
1392:Generated_Source\PSoC4/CapSense_CSD_CSHL.c ****         #if (CapSense_CSD_IS_DIPLEX_SLIDER)
1393:Generated_Source\PSoC4/CapSense_CSD_CSHL.c ****             if(diplex != 0u)
1394:Generated_Source\PSoC4/CapSense_CSD_CSHL.c ****             {
1395:Generated_Source\PSoC4/CapSense_CSD_CSHL.c ****                 /* Initialize */
1396:Generated_Source\PSoC4/CapSense_CSD_CSHL.c ****                 i = 0u;
1397:Generated_Source\PSoC4/CapSense_CSD_CSHL.c **** 
1398:Generated_Source\PSoC4/CapSense_CSD_CSHL.c ****                 /* Make slider x2 as Diplexed */
1399:Generated_Source\PSoC4/CapSense_CSD_CSHL.c ****                 count <<= 1u;
1400:Generated_Source\PSoC4/CapSense_CSD_CSHL.c ****                 while(1u)
1401:Generated_Source\PSoC4/CapSense_CSD_CSHL.c ****                 {
1402:Generated_Source\PSoC4/CapSense_CSD_CSHL.c ****                     if (startOfSlider[curPos] > 0u)    /* Looking for centroids */
1403:Generated_Source\PSoC4/CapSense_CSD_CSHL.c ****                     {
1404:Generated_Source\PSoC4/CapSense_CSD_CSHL.c ****                         if (curCtrdStartPos == CapSense_CSD_MAXIMUM_CENTROID)
1405:Generated_Source\PSoC4/CapSense_CSD_CSHL.c ****                         {
1406:Generated_Source\PSoC4/CapSense_CSD_CSHL.c ****                             /* Start of centroid */
ARM GAS  C:\Users\ZTIPRI~1\AppData\Local\Temp\ccqOwDTe.s 			page 43


1407:Generated_Source\PSoC4/CapSense_CSD_CSHL.c ****                             curCtrdStartPos = i;
1408:Generated_Source\PSoC4/CapSense_CSD_CSHL.c ****                             curCntrdSize++;
1409:Generated_Source\PSoC4/CapSense_CSD_CSHL.c ****                         }
1410:Generated_Source\PSoC4/CapSense_CSD_CSHL.c ****                         else
1411:Generated_Source\PSoC4/CapSense_CSD_CSHL.c ****                         {
1412:Generated_Source\PSoC4/CapSense_CSD_CSHL.c ****                             curCntrdSize++;
1413:Generated_Source\PSoC4/CapSense_CSD_CSHL.c ****                         }
1414:Generated_Source\PSoC4/CapSense_CSD_CSHL.c ****                     }
1415:Generated_Source\PSoC4/CapSense_CSD_CSHL.c ****                     else   /* Select biggest and indicate zero start */
1416:Generated_Source\PSoC4/CapSense_CSD_CSHL.c ****                     {
1417:Generated_Source\PSoC4/CapSense_CSD_CSHL.c ****                         if(curCntrdSize > 0u)
1418:Generated_Source\PSoC4/CapSense_CSD_CSHL.c ****                         {
1419:Generated_Source\PSoC4/CapSense_CSD_CSHL.c ****                             /* We are at the end of current */
1420:Generated_Source\PSoC4/CapSense_CSD_CSHL.c ****                             if(curCntrdSize > biggestCtrdSize)
1421:Generated_Source\PSoC4/CapSense_CSD_CSHL.c ****                             {
1422:Generated_Source\PSoC4/CapSense_CSD_CSHL.c ****                                 biggestCtrdSize = curCntrdSize;
1423:Generated_Source\PSoC4/CapSense_CSD_CSHL.c ****                                 biggestCtrdStartPos = curCtrdStartPos;
1424:Generated_Source\PSoC4/CapSense_CSD_CSHL.c ****                             }
1425:Generated_Source\PSoC4/CapSense_CSD_CSHL.c **** 
1426:Generated_Source\PSoC4/CapSense_CSD_CSHL.c ****                             curCntrdSize = 0u;
1427:Generated_Source\PSoC4/CapSense_CSD_CSHL.c ****                             curCtrdStartPos = CapSense_CSD_MAXIMUM_CENTROID;
1428:Generated_Source\PSoC4/CapSense_CSD_CSHL.c ****                         }
1429:Generated_Source\PSoC4/CapSense_CSD_CSHL.c ****                     }
1430:Generated_Source\PSoC4/CapSense_CSD_CSHL.c **** 
1431:Generated_Source\PSoC4/CapSense_CSD_CSHL.c ****                     i++;
1432:Generated_Source\PSoC4/CapSense_CSD_CSHL.c ****                     curPos = diplex[i];
1433:Generated_Source\PSoC4/CapSense_CSD_CSHL.c ****                     if(i == count)
1434:Generated_Source\PSoC4/CapSense_CSD_CSHL.c ****                     {
1435:Generated_Source\PSoC4/CapSense_CSD_CSHL.c ****                         break;
1436:Generated_Source\PSoC4/CapSense_CSD_CSHL.c ****                     }
1437:Generated_Source\PSoC4/CapSense_CSD_CSHL.c ****                 }
1438:Generated_Source\PSoC4/CapSense_CSD_CSHL.c **** 
1439:Generated_Source\PSoC4/CapSense_CSD_CSHL.c ****                     /* Find biggest centroid if two are same size, last one wins
1440:Generated_Source\PSoC4/CapSense_CSD_CSHL.c ****                        We are at the end of current */
1441:Generated_Source\PSoC4/CapSense_CSD_CSHL.c ****                 if (curCntrdSize >= biggestCtrdSize)
1442:Generated_Source\PSoC4/CapSense_CSD_CSHL.c ****                 {
1443:Generated_Source\PSoC4/CapSense_CSD_CSHL.c ****                     biggestCtrdSize = curCntrdSize;
1444:Generated_Source\PSoC4/CapSense_CSD_CSHL.c ****                     biggestCtrdStartPos = curCtrdStartPos;
1445:Generated_Source\PSoC4/CapSense_CSD_CSHL.c ****                 }
1446:Generated_Source\PSoC4/CapSense_CSD_CSHL.c ****             }
1447:Generated_Source\PSoC4/CapSense_CSD_CSHL.c ****             else
1448:Generated_Source\PSoC4/CapSense_CSD_CSHL.c ****             {
1449:Generated_Source\PSoC4/CapSense_CSD_CSHL.c ****                 /* Without diplexing */
1450:Generated_Source\PSoC4/CapSense_CSD_CSHL.c ****                 biggestCtrdSize = count;
1451:Generated_Source\PSoC4/CapSense_CSD_CSHL.c ****             }
1452:Generated_Source\PSoC4/CapSense_CSD_CSHL.c **** 
1453:Generated_Source\PSoC4/CapSense_CSD_CSHL.c **** 
1454:Generated_Source\PSoC4/CapSense_CSD_CSHL.c ****             /* Check centroid size */
1455:Generated_Source\PSoC4/CapSense_CSD_CSHL.c ****             #if (CapSense_CSD_IS_NON_DIPLEX_SLIDER)
1456:Generated_Source\PSoC4/CapSense_CSD_CSHL.c ****                 if((biggestCtrdSize >= 2u) || ((biggestCtrdSize == 1u) && (diplex == 0u)))
1457:Generated_Source\PSoC4/CapSense_CSD_CSHL.c ****             #else
1458:Generated_Source\PSoC4/CapSense_CSD_CSHL.c ****                 if(biggestCtrdSize >= 2u)
1459:Generated_Source\PSoC4/CapSense_CSD_CSHL.c ****             #endif /* (CapSense_CSD_IS_NON_DIPLEX_SLIDER) */
1460:Generated_Source\PSoC4/CapSense_CSD_CSHL.c ****                 {
1461:Generated_Source\PSoC4/CapSense_CSD_CSHL.c ****                     for (i = biggestCtrdStartPos; i < (biggestCtrdStartPos + biggestCtrdSize); i++)
1462:Generated_Source\PSoC4/CapSense_CSD_CSHL.c ****                     {
1463:Generated_Source\PSoC4/CapSense_CSD_CSHL.c ****                         #if (CapSense_CSD_IS_DIPLEX_SLIDER && CapSense_CSD_IS_NON_DIPLEX_SLIDER)
ARM GAS  C:\Users\ZTIPRI~1\AppData\Local\Temp\ccqOwDTe.s 			page 44


1464:Generated_Source\PSoC4/CapSense_CSD_CSHL.c ****                             if (diplex == 0u)
1465:Generated_Source\PSoC4/CapSense_CSD_CSHL.c ****                             {
1466:Generated_Source\PSoC4/CapSense_CSD_CSHL.c ****                                 curPos = i;
1467:Generated_Source\PSoC4/CapSense_CSD_CSHL.c ****                             }
1468:Generated_Source\PSoC4/CapSense_CSD_CSHL.c ****                             else
1469:Generated_Source\PSoC4/CapSense_CSD_CSHL.c ****                             {
1470:Generated_Source\PSoC4/CapSense_CSD_CSHL.c ****                                 curPos = diplex[i];
1471:Generated_Source\PSoC4/CapSense_CSD_CSHL.c ****                             }
1472:Generated_Source\PSoC4/CapSense_CSD_CSHL.c ****                         #elif (CapSense_CSD_IS_DIPLEX_SLIDER)
1473:Generated_Source\PSoC4/CapSense_CSD_CSHL.c ****                             curPos = diplex[i];
1474:Generated_Source\PSoC4/CapSense_CSD_CSHL.c ****                         #endif /* (CapSense_CSD_IS_DIPLEX_SLIDER && CapSense_CSD_IS_NON_DIPLEX_SLID
1475:Generated_Source\PSoC4/CapSense_CSD_CSHL.c ****                         /* Looking for greater element within centroid */
1476:Generated_Source\PSoC4/CapSense_CSD_CSHL.c ****                         if(startOfSlider[curPos] > fingerThreshold)
1477:Generated_Source\PSoC4/CapSense_CSD_CSHL.c ****                         {
1478:Generated_Source\PSoC4/CapSense_CSD_CSHL.c ****                             if(startOfSlider[curPos] > temp)
1479:Generated_Source\PSoC4/CapSense_CSD_CSHL.c ****                             {
1480:Generated_Source\PSoC4/CapSense_CSD_CSHL.c ****                                 maximum = i;
1481:Generated_Source\PSoC4/CapSense_CSD_CSHL.c ****                                 temp = startOfSlider[curPos];
1482:Generated_Source\PSoC4/CapSense_CSD_CSHL.c ****                             }
1483:Generated_Source\PSoC4/CapSense_CSD_CSHL.c ****                         }
1484:Generated_Source\PSoC4/CapSense_CSD_CSHL.c ****                     }
1485:Generated_Source\PSoC4/CapSense_CSD_CSHL.c ****                 }
1486:Generated_Source\PSoC4/CapSense_CSD_CSHL.c ****         #else
1487:Generated_Source\PSoC4/CapSense_CSD_CSHL.c ****             for (i = 0u; i < count; i++)
1488:Generated_Source\PSoC4/CapSense_CSD_CSHL.c ****             {
1489:Generated_Source\PSoC4/CapSense_CSD_CSHL.c ****                 /* Looking for greater element within centroid */
1490:Generated_Source\PSoC4/CapSense_CSD_CSHL.c ****                 if(startOfSlider[i] > fingerThreshold)
1491:Generated_Source\PSoC4/CapSense_CSD_CSHL.c ****                 {
1492:Generated_Source\PSoC4/CapSense_CSD_CSHL.c ****                     if(startOfSlider[i] > temp)
1493:Generated_Source\PSoC4/CapSense_CSD_CSHL.c ****                     {
1494:Generated_Source\PSoC4/CapSense_CSD_CSHL.c ****                         maximum = i;
1495:Generated_Source\PSoC4/CapSense_CSD_CSHL.c ****                         temp = startOfSlider[i];
1496:Generated_Source\PSoC4/CapSense_CSD_CSHL.c ****                     }
1497:Generated_Source\PSoC4/CapSense_CSD_CSHL.c ****                 }
1498:Generated_Source\PSoC4/CapSense_CSD_CSHL.c ****             }
1499:Generated_Source\PSoC4/CapSense_CSD_CSHL.c ****         #endif /* (CapSense_CSD_IS_DIPLEX_SLIDER) */
1500:Generated_Source\PSoC4/CapSense_CSD_CSHL.c ****         return (maximum);
1501:Generated_Source\PSoC4/CapSense_CSD_CSHL.c ****     }
1502:Generated_Source\PSoC4/CapSense_CSD_CSHL.c **** 
1503:Generated_Source\PSoC4/CapSense_CSD_CSHL.c **** 
1504:Generated_Source\PSoC4/CapSense_CSD_CSHL.c ****     /*******************************************************************************
1505:Generated_Source\PSoC4/CapSense_CSD_CSHL.c ****     * Function Name: CapSense_CSD_CalcCentroid
1506:Generated_Source\PSoC4/CapSense_CSD_CSHL.c ****     ********************************************************************************
1507:Generated_Source\PSoC4/CapSense_CSD_CSHL.c ****     *
1508:Generated_Source\PSoC4/CapSense_CSD_CSHL.c ****     * Summary:
1509:Generated_Source\PSoC4/CapSense_CSD_CSHL.c ****     *  Returns a position value calculated according to the index of the maximum element and API
1510:Generated_Source\PSoC4/CapSense_CSD_CSHL.c ****     *  resolution.
1511:Generated_Source\PSoC4/CapSense_CSD_CSHL.c ****     *
1512:Generated_Source\PSoC4/CapSense_CSD_CSHL.c ****     * Parameters:
1513:Generated_Source\PSoC4/CapSense_CSD_CSHL.c ****     *  type:  widget type.
1514:Generated_Source\PSoC4/CapSense_CSD_CSHL.c ****     *  diplex:  pointer to diplex table.
1515:Generated_Source\PSoC4/CapSense_CSD_CSHL.c ****     *  maximum:  Index of maximum element within centroid.
1516:Generated_Source\PSoC4/CapSense_CSD_CSHL.c ****     *  offset:   Start index of centroid in CapSense_CSD_sensorSignal[] array.
1517:Generated_Source\PSoC4/CapSense_CSD_CSHL.c ****     *  count:    Number of elements within centroid.
1518:Generated_Source\PSoC4/CapSense_CSD_CSHL.c ****     *  resolution:  multiplicator calculated according to centroid type and
1519:Generated_Source\PSoC4/CapSense_CSD_CSHL.c ****     *  API resolution.
1520:Generated_Source\PSoC4/CapSense_CSD_CSHL.c ****     *  noiseThreshold:  Noise threshold.
ARM GAS  C:\Users\ZTIPRI~1\AppData\Local\Temp\ccqOwDTe.s 			page 45


1521:Generated_Source\PSoC4/CapSense_CSD_CSHL.c ****     *
1522:Generated_Source\PSoC4/CapSense_CSD_CSHL.c ****     * Return:
1523:Generated_Source\PSoC4/CapSense_CSD_CSHL.c ****     *  Returns a position value of the slider.
1524:Generated_Source\PSoC4/CapSense_CSD_CSHL.c ****     *
1525:Generated_Source\PSoC4/CapSense_CSD_CSHL.c ****     * Side Effects:
1526:Generated_Source\PSoC4/CapSense_CSD_CSHL.c ****     *  None
1527:Generated_Source\PSoC4/CapSense_CSD_CSHL.c ****     *
1528:Generated_Source\PSoC4/CapSense_CSD_CSHL.c ****     *******************************************************************************/
1529:Generated_Source\PSoC4/CapSense_CSD_CSHL.c **** #if (CapSense_CSD_TOTAL_TRACKPAD_GESTURES_COUNT > 0u)
1530:Generated_Source\PSoC4/CapSense_CSD_CSHL.c ****     uint8 CapSense_CSD_CalcCentroid(uint8 maximum, uint8 offset,
1531:Generated_Source\PSoC4/CapSense_CSD_CSHL.c ****                                         uint8 count, uint32 resolution, uint8 noiseThreshold)
1532:Generated_Source\PSoC4/CapSense_CSD_CSHL.c **** #else
1533:Generated_Source\PSoC4/CapSense_CSD_CSHL.c ****     uint8 CapSense_CSD_CalcCentroid(uint8 maximum, uint8 offset,
1534:Generated_Source\PSoC4/CapSense_CSD_CSHL.c ****                                         uint8 count, uint16 resolution, uint8 noiseThreshold)
1535:Generated_Source\PSoC4/CapSense_CSD_CSHL.c **** #endif /* (CapSense_CSD_TOTAL_TRACKPAD_GESTURES_COUNT > 0u) */
1536:Generated_Source\PSoC4/CapSense_CSD_CSHL.c ****     {
1537:Generated_Source\PSoC4/CapSense_CSD_CSHL.c ****         #if ((CapSense_CSD_TOTAL_LINEAR_SLIDERS_COUNT > 0u) || (CapSense_CSD_TOTAL_TOUCH_PADS_BASIC
1538:Generated_Source\PSoC4/CapSense_CSD_CSHL.c ****             uint8 posPrev;
1539:Generated_Source\PSoC4/CapSense_CSD_CSHL.c ****             uint8 posNext;
1540:Generated_Source\PSoC4/CapSense_CSD_CSHL.c ****         #endif /* ((CapSense_CSD_TOTAL_LINEAR_SLIDERS_COUNT>0u) || (CapSense_CSD_TOTAL_TOUCH_PADS_B
1541:Generated_Source\PSoC4/CapSense_CSD_CSHL.c **** 
1542:Generated_Source\PSoC4/CapSense_CSD_CSHL.c ****         /* Helps during centroid calculation */
1543:Generated_Source\PSoC4/CapSense_CSD_CSHL.c ****         #if (CapSense_CSD_TOTAL_CENTROIDS_BASIC_COUNT)
1544:Generated_Source\PSoC4/CapSense_CSD_CSHL.c ****             static uint8 CapSense_CSD_centroid[3u];
1545:Generated_Source\PSoC4/CapSense_CSD_CSHL.c ****         #endif  /* (CapSense_CSD_TOTAL_CENTROIDS_BASIC_COUNT) */
1546:Generated_Source\PSoC4/CapSense_CSD_CSHL.c **** 
1547:Generated_Source\PSoC4/CapSense_CSD_CSHL.c ****         #if (CapSense_CSD_IS_DIPLEX_SLIDER)
1548:Generated_Source\PSoC4/CapSense_CSD_CSHL.c ****             uint8 pos;
1549:Generated_Source\PSoC4/CapSense_CSD_CSHL.c ****         #endif /* (CapSense_CSD_IS_DIPLEX_SLIDER) */
1550:Generated_Source\PSoC4/CapSense_CSD_CSHL.c **** 
1551:Generated_Source\PSoC4/CapSense_CSD_CSHL.c ****         uint8 position;
1552:Generated_Source\PSoC4/CapSense_CSD_CSHL.c ****         uint32 numerator;
1553:Generated_Source\PSoC4/CapSense_CSD_CSHL.c ****         int32 denominator;
1554:Generated_Source\PSoC4/CapSense_CSD_CSHL.c **** 
1555:Generated_Source\PSoC4/CapSense_CSD_CSHL.c ****         uint8  *startOfSlider = &CapSense_CSD_sensorSignal[offset];
1556:Generated_Source\PSoC4/CapSense_CSD_CSHL.c **** 
1557:Generated_Source\PSoC4/CapSense_CSD_CSHL.c ****         #if ((CapSense_CSD_TOTAL_LINEAR_SLIDERS_COUNT > 0u) || (CapSense_CSD_TOTAL_TOUCH_PADS_BASIC
1558:Generated_Source\PSoC4/CapSense_CSD_CSHL.c ****             posPrev = 0u;
1559:Generated_Source\PSoC4/CapSense_CSD_CSHL.c ****         #endif /* ((CapSense_CSD_TOTAL_LINEAR_SLIDERS_COUNT>0u) || (CapSense_CSD_TOTAL_TOUCH_PADS_B
1560:Generated_Source\PSoC4/CapSense_CSD_CSHL.c **** 
1561:Generated_Source\PSoC4/CapSense_CSD_CSHL.c ****         #if (CapSense_CSD_ADD_SLIDER_TYPE)
1562:Generated_Source\PSoC4/CapSense_CSD_CSHL.c ****             if(type == CapSense_CSD_TYPE_RADIAL_SLIDER)
1563:Generated_Source\PSoC4/CapSense_CSD_CSHL.c ****             {
1564:Generated_Source\PSoC4/CapSense_CSD_CSHL.c ****         #endif /* (CapSense_CSD_ADD_SLIDER_TYPE) */
1565:Generated_Source\PSoC4/CapSense_CSD_CSHL.c **** 
1566:Generated_Source\PSoC4/CapSense_CSD_CSHL.c ****             #if (CapSense_CSD_TOTAL_RADIAL_SLIDERS_COUNT > 0u)
1567:Generated_Source\PSoC4/CapSense_CSD_CSHL.c ****                 /* Copy Signal to the centroid array */
1568:Generated_Source\PSoC4/CapSense_CSD_CSHL.c ****                 CapSense_CSD_centroid[CapSense_CSD_POS] = startOfSlider[maximum];
1569:Generated_Source\PSoC4/CapSense_CSD_CSHL.c **** 
1570:Generated_Source\PSoC4/CapSense_CSD_CSHL.c ****                 /* Check borders for ROTARY Slider */
1571:Generated_Source\PSoC4/CapSense_CSD_CSHL.c ****                 if (maximum == 0u)                   /* Start of centroid */
1572:Generated_Source\PSoC4/CapSense_CSD_CSHL.c ****                 {
1573:Generated_Source\PSoC4/CapSense_CSD_CSHL.c ****                     CapSense_CSD_centroid[CapSense_CSD_POS_PREV] = startOfSlider[count - 1u];
1574:Generated_Source\PSoC4/CapSense_CSD_CSHL.c ****                     CapSense_CSD_centroid[CapSense_CSD_POS_NEXT] = startOfSlider[1u];
1575:Generated_Source\PSoC4/CapSense_CSD_CSHL.c ****                 }
1576:Generated_Source\PSoC4/CapSense_CSD_CSHL.c ****                 else if (maximum == (count - 1u))    /* End of centroid */
1577:Generated_Source\PSoC4/CapSense_CSD_CSHL.c ****                 {
ARM GAS  C:\Users\ZTIPRI~1\AppData\Local\Temp\ccqOwDTe.s 			page 46


1578:Generated_Source\PSoC4/CapSense_CSD_CSHL.c ****                     CapSense_CSD_centroid[CapSense_CSD_POS_PREV] = startOfSlider[maximum - 1u];
1579:Generated_Source\PSoC4/CapSense_CSD_CSHL.c ****                     CapSense_CSD_centroid[CapSense_CSD_POS_NEXT] = startOfSlider[0u];
1580:Generated_Source\PSoC4/CapSense_CSD_CSHL.c ****                 }
1581:Generated_Source\PSoC4/CapSense_CSD_CSHL.c ****                 else                                /* Not first Not last */
1582:Generated_Source\PSoC4/CapSense_CSD_CSHL.c ****                 {
1583:Generated_Source\PSoC4/CapSense_CSD_CSHL.c ****                     CapSense_CSD_centroid[CapSense_CSD_POS_PREV] = startOfSlider[maximum - 1u];
1584:Generated_Source\PSoC4/CapSense_CSD_CSHL.c ****                     CapSense_CSD_centroid[CapSense_CSD_POS_NEXT] = startOfSlider[maximum + 1u];
1585:Generated_Source\PSoC4/CapSense_CSD_CSHL.c ****                 }
1586:Generated_Source\PSoC4/CapSense_CSD_CSHL.c ****             #endif /* (CapSense_CSD_TOTAL_RADIAL_SLIDERS_COUNT > 0u) */
1587:Generated_Source\PSoC4/CapSense_CSD_CSHL.c **** 
1588:Generated_Source\PSoC4/CapSense_CSD_CSHL.c ****         #if (CapSense_CSD_ADD_SLIDER_TYPE)
1589:Generated_Source\PSoC4/CapSense_CSD_CSHL.c ****             }
1590:Generated_Source\PSoC4/CapSense_CSD_CSHL.c ****             else
1591:Generated_Source\PSoC4/CapSense_CSD_CSHL.c ****             {
1592:Generated_Source\PSoC4/CapSense_CSD_CSHL.c ****         #endif /* (CapSense_CSD_ADD_SLIDER_TYPE) */
1593:Generated_Source\PSoC4/CapSense_CSD_CSHL.c **** 
1594:Generated_Source\PSoC4/CapSense_CSD_CSHL.c ****             #if ((CapSense_CSD_TOTAL_LINEAR_SLIDERS_COUNT > 0u) || (CapSense_CSD_TOTAL_TOUCH_PADS_B
1595:Generated_Source\PSoC4/CapSense_CSD_CSHL.c ****                 #if (CapSense_CSD_IS_DIPLEX_SLIDER && CapSense_CSD_IS_NON_DIPLEX_SLIDER)
1596:Generated_Source\PSoC4/CapSense_CSD_CSHL.c ****                     /* Calculate next and previous near to maximum */
1597:Generated_Source\PSoC4/CapSense_CSD_CSHL.c ****                     if(diplex == 0u)
1598:Generated_Source\PSoC4/CapSense_CSD_CSHL.c ****                     {
1599:Generated_Source\PSoC4/CapSense_CSD_CSHL.c ****                         pos     = maximum;
1600:Generated_Source\PSoC4/CapSense_CSD_CSHL.c ****                         posPrev = maximum - 1u;
1601:Generated_Source\PSoC4/CapSense_CSD_CSHL.c ****                         posNext = maximum + 1u;
1602:Generated_Source\PSoC4/CapSense_CSD_CSHL.c ****                     }
1603:Generated_Source\PSoC4/CapSense_CSD_CSHL.c ****                     else
1604:Generated_Source\PSoC4/CapSense_CSD_CSHL.c ****                     {
1605:Generated_Source\PSoC4/CapSense_CSD_CSHL.c ****                         pos     = diplex[maximum];
1606:Generated_Source\PSoC4/CapSense_CSD_CSHL.c ****                         posPrev = diplex[maximum - 1u];
1607:Generated_Source\PSoC4/CapSense_CSD_CSHL.c ****                         posNext = diplex[maximum + 1u];
1608:Generated_Source\PSoC4/CapSense_CSD_CSHL.c ****                         count <<= 1u;
1609:Generated_Source\PSoC4/CapSense_CSD_CSHL.c ****                     }
1610:Generated_Source\PSoC4/CapSense_CSD_CSHL.c ****                 #elif (CapSense_CSD_IS_DIPLEX_SLIDER)
1611:Generated_Source\PSoC4/CapSense_CSD_CSHL.c ****                     /* Calculate next and previous near to maximum */
1612:Generated_Source\PSoC4/CapSense_CSD_CSHL.c ****                     pos     = diplex[maximum];
1613:Generated_Source\PSoC4/CapSense_CSD_CSHL.c ****                     posPrev = diplex[maximum - 1u];
1614:Generated_Source\PSoC4/CapSense_CSD_CSHL.c ****                     posNext = diplex[maximum + 1u];
1615:Generated_Source\PSoC4/CapSense_CSD_CSHL.c ****                     count <<= 1u;
1616:Generated_Source\PSoC4/CapSense_CSD_CSHL.c ****                 #else
1617:Generated_Source\PSoC4/CapSense_CSD_CSHL.c ****                     /* Calculate next and previous near to maximum */
1618:Generated_Source\PSoC4/CapSense_CSD_CSHL.c ****                     if (maximum >= 1u)
1619:Generated_Source\PSoC4/CapSense_CSD_CSHL.c ****                     {
1620:Generated_Source\PSoC4/CapSense_CSD_CSHL.c ****                         posPrev = maximum - 1u;
1621:Generated_Source\PSoC4/CapSense_CSD_CSHL.c ****                     }
1622:Generated_Source\PSoC4/CapSense_CSD_CSHL.c ****                     posNext = maximum + 1u;
1623:Generated_Source\PSoC4/CapSense_CSD_CSHL.c ****                 #endif /* (CapSense_CSD_IS_DIPLEX_SLIDER && CapSense_CSD_IS_NON_DIPLEX_SLIDER) */
1624:Generated_Source\PSoC4/CapSense_CSD_CSHL.c **** 
1625:Generated_Source\PSoC4/CapSense_CSD_CSHL.c ****                 /* Copy Signal to the centroid array */
1626:Generated_Source\PSoC4/CapSense_CSD_CSHL.c ****                 #if (CapSense_CSD_IS_DIPLEX_SLIDER)
1627:Generated_Source\PSoC4/CapSense_CSD_CSHL.c ****                     CapSense_CSD_centroid[CapSense_CSD_POS] = startOfSlider[pos];
1628:Generated_Source\PSoC4/CapSense_CSD_CSHL.c ****                 #else
1629:Generated_Source\PSoC4/CapSense_CSD_CSHL.c ****                     CapSense_CSD_centroid[CapSense_CSD_POS] = startOfSlider[maximum];
1630:Generated_Source\PSoC4/CapSense_CSD_CSHL.c ****                 #endif /* (CapSense_CSD_IS_DIPLEX_SLIDER) */
1631:Generated_Source\PSoC4/CapSense_CSD_CSHL.c **** 
1632:Generated_Source\PSoC4/CapSense_CSD_CSHL.c ****                 /* Check borders for LINEAR Slider */
1633:Generated_Source\PSoC4/CapSense_CSD_CSHL.c ****                 if (maximum == 0u)                   /* Start of centroid */
1634:Generated_Source\PSoC4/CapSense_CSD_CSHL.c ****                 {
ARM GAS  C:\Users\ZTIPRI~1\AppData\Local\Temp\ccqOwDTe.s 			page 47


1635:Generated_Source\PSoC4/CapSense_CSD_CSHL.c ****                     CapSense_CSD_centroid[CapSense_CSD_POS_PREV] = 0u;
1636:Generated_Source\PSoC4/CapSense_CSD_CSHL.c ****                     CapSense_CSD_centroid[CapSense_CSD_POS_NEXT] = startOfSlider[posNext];
1637:Generated_Source\PSoC4/CapSense_CSD_CSHL.c ****                 }
1638:Generated_Source\PSoC4/CapSense_CSD_CSHL.c ****                 else if (maximum == ((count) - 1u)) /* End of centroid */
1639:Generated_Source\PSoC4/CapSense_CSD_CSHL.c ****                 {
1640:Generated_Source\PSoC4/CapSense_CSD_CSHL.c ****                     CapSense_CSD_centroid[CapSense_CSD_POS_PREV] = startOfSlider[posPrev];
1641:Generated_Source\PSoC4/CapSense_CSD_CSHL.c ****                     CapSense_CSD_centroid[CapSense_CSD_POS_NEXT] = 0u;
1642:Generated_Source\PSoC4/CapSense_CSD_CSHL.c ****                 }
1643:Generated_Source\PSoC4/CapSense_CSD_CSHL.c ****                 else                                /* Not first Not last */
1644:Generated_Source\PSoC4/CapSense_CSD_CSHL.c ****                 {
1645:Generated_Source\PSoC4/CapSense_CSD_CSHL.c ****                     CapSense_CSD_centroid[CapSense_CSD_POS_PREV] = startOfSlider[posPrev];
1646:Generated_Source\PSoC4/CapSense_CSD_CSHL.c ****                     CapSense_CSD_centroid[CapSense_CSD_POS_NEXT] = startOfSlider[posNext];
1647:Generated_Source\PSoC4/CapSense_CSD_CSHL.c ****                 }
1648:Generated_Source\PSoC4/CapSense_CSD_CSHL.c ****             #endif /* ((CapSense_CSD_TOTAL_LINEAR_SLIDERS_COUNT>0u)||(CapSense_CSD_TOTAL_TOUCH_PADS
1649:Generated_Source\PSoC4/CapSense_CSD_CSHL.c **** 
1650:Generated_Source\PSoC4/CapSense_CSD_CSHL.c ****         #if (CapSense_CSD_ADD_SLIDER_TYPE)
1651:Generated_Source\PSoC4/CapSense_CSD_CSHL.c ****             }
1652:Generated_Source\PSoC4/CapSense_CSD_CSHL.c ****         #endif /* (CapSense_CSD_ADD_SLIDER_TYPE) */
1653:Generated_Source\PSoC4/CapSense_CSD_CSHL.c **** 
1654:Generated_Source\PSoC4/CapSense_CSD_CSHL.c ****         /* Subtract noiseThreshold */
1655:Generated_Source\PSoC4/CapSense_CSD_CSHL.c ****         if(CapSense_CSD_centroid[CapSense_CSD_POS_PREV] > noiseThreshold)
1656:Generated_Source\PSoC4/CapSense_CSD_CSHL.c ****         {
1657:Generated_Source\PSoC4/CapSense_CSD_CSHL.c ****             CapSense_CSD_centroid[CapSense_CSD_POS_PREV] -= noiseThreshold;
1658:Generated_Source\PSoC4/CapSense_CSD_CSHL.c ****         }
1659:Generated_Source\PSoC4/CapSense_CSD_CSHL.c ****         else
1660:Generated_Source\PSoC4/CapSense_CSD_CSHL.c ****         {
1661:Generated_Source\PSoC4/CapSense_CSD_CSHL.c ****             CapSense_CSD_centroid[CapSense_CSD_POS_PREV] = 0u;
1662:Generated_Source\PSoC4/CapSense_CSD_CSHL.c ****         }
1663:Generated_Source\PSoC4/CapSense_CSD_CSHL.c **** 
1664:Generated_Source\PSoC4/CapSense_CSD_CSHL.c ****         /* Maximum always greater than fingerThreshold, so greater than noiseThreshold */
1665:Generated_Source\PSoC4/CapSense_CSD_CSHL.c ****         CapSense_CSD_centroid[CapSense_CSD_POS] -= noiseThreshold;
1666:Generated_Source\PSoC4/CapSense_CSD_CSHL.c **** 
1667:Generated_Source\PSoC4/CapSense_CSD_CSHL.c ****         /* Subtract noiseThreshold */
1668:Generated_Source\PSoC4/CapSense_CSD_CSHL.c ****         if(CapSense_CSD_centroid[CapSense_CSD_POS_NEXT] > noiseThreshold)
1669:Generated_Source\PSoC4/CapSense_CSD_CSHL.c ****         {
1670:Generated_Source\PSoC4/CapSense_CSD_CSHL.c ****             CapSense_CSD_centroid[CapSense_CSD_POS_NEXT] -= noiseThreshold;
1671:Generated_Source\PSoC4/CapSense_CSD_CSHL.c ****         }
1672:Generated_Source\PSoC4/CapSense_CSD_CSHL.c ****         else
1673:Generated_Source\PSoC4/CapSense_CSD_CSHL.c ****         {
1674:Generated_Source\PSoC4/CapSense_CSD_CSHL.c ****             CapSense_CSD_centroid[CapSense_CSD_POS_NEXT] = 0u;
1675:Generated_Source\PSoC4/CapSense_CSD_CSHL.c ****         }
1676:Generated_Source\PSoC4/CapSense_CSD_CSHL.c **** 
1677:Generated_Source\PSoC4/CapSense_CSD_CSHL.c **** 
1678:Generated_Source\PSoC4/CapSense_CSD_CSHL.c ****         /* Si+1 - Si-1 */
1679:Generated_Source\PSoC4/CapSense_CSD_CSHL.c ****         numerator = (uint32) CapSense_CSD_centroid[CapSense_CSD_POS_NEXT] -
1680:Generated_Source\PSoC4/CapSense_CSD_CSHL.c ****                     (uint32) CapSense_CSD_centroid[CapSense_CSD_POS_PREV];
1681:Generated_Source\PSoC4/CapSense_CSD_CSHL.c **** 
1682:Generated_Source\PSoC4/CapSense_CSD_CSHL.c ****         /* Si+1 + Si + Si-1 */
1683:Generated_Source\PSoC4/CapSense_CSD_CSHL.c ****         denominator = (int32) CapSense_CSD_centroid[CapSense_CSD_POS_PREV] +
1684:Generated_Source\PSoC4/CapSense_CSD_CSHL.c ****                       (int32) CapSense_CSD_centroid[CapSense_CSD_POS] +
1685:Generated_Source\PSoC4/CapSense_CSD_CSHL.c ****                       (int32) CapSense_CSD_centroid[CapSense_CSD_POS_NEXT];
1686:Generated_Source\PSoC4/CapSense_CSD_CSHL.c **** 
1687:Generated_Source\PSoC4/CapSense_CSD_CSHL.c ****         /* (numerator/denominator) + maximum */
1688:Generated_Source\PSoC4/CapSense_CSD_CSHL.c ****         denominator = (((int32)(uint32)((uint32)numerator << 8u)/denominator) + (int32)(uint32)((ui
1689:Generated_Source\PSoC4/CapSense_CSD_CSHL.c **** 
1690:Generated_Source\PSoC4/CapSense_CSD_CSHL.c ****         #if(CapSense_CSD_TOTAL_RADIAL_SLIDERS_COUNT > 0u)
1691:Generated_Source\PSoC4/CapSense_CSD_CSHL.c ****             /* Only required for RADIAL Slider */
ARM GAS  C:\Users\ZTIPRI~1\AppData\Local\Temp\ccqOwDTe.s 			page 48


1692:Generated_Source\PSoC4/CapSense_CSD_CSHL.c ****             if(denominator < 0)
1693:Generated_Source\PSoC4/CapSense_CSD_CSHL.c ****             {
1694:Generated_Source\PSoC4/CapSense_CSD_CSHL.c ****                 denominator += (int32)((uint16)((uint16) count << 8u));
1695:Generated_Source\PSoC4/CapSense_CSD_CSHL.c ****             }
1696:Generated_Source\PSoC4/CapSense_CSD_CSHL.c ****         #endif /* (CapSense_CSD_TOTAL_RADIAL_SLIDERS_COUNT > 0u) */
1697:Generated_Source\PSoC4/CapSense_CSD_CSHL.c **** 
1698:Generated_Source\PSoC4/CapSense_CSD_CSHL.c ****         denominator *= (int16)resolution;
1699:Generated_Source\PSoC4/CapSense_CSD_CSHL.c **** 
1700:Generated_Source\PSoC4/CapSense_CSD_CSHL.c ****         /* Round result and put it to uint8 */
1701:Generated_Source\PSoC4/CapSense_CSD_CSHL.c ****         position = ((uint8) HI16((uint32)denominator + CapSense_CSD_CENTROID_ROUND_VALUE));
1702:Generated_Source\PSoC4/CapSense_CSD_CSHL.c **** 
1703:Generated_Source\PSoC4/CapSense_CSD_CSHL.c ****         return (position);
1704:Generated_Source\PSoC4/CapSense_CSD_CSHL.c ****     }
1705:Generated_Source\PSoC4/CapSense_CSD_CSHL.c **** #endif /* (CapSense_CSD_TOTAL_CENTROIDS_BASIC_COUNT) */
1706:Generated_Source\PSoC4/CapSense_CSD_CSHL.c **** 
1707:Generated_Source\PSoC4/CapSense_CSD_CSHL.c **** 
1708:Generated_Source\PSoC4/CapSense_CSD_CSHL.c **** #if((CapSense_CSD_TOTAL_RADIAL_SLIDERS_COUNT > 0u) || (CapSense_CSD_TOTAL_LINEAR_SLIDERS_COUNT > 0u
1709:Generated_Source\PSoC4/CapSense_CSD_CSHL.c ****     /*******************************************************************************
1710:Generated_Source\PSoC4/CapSense_CSD_CSHL.c ****     * Function Name: CapSense_CSD_GetCentroidPos
1711:Generated_Source\PSoC4/CapSense_CSD_CSHL.c ****     ********************************************************************************
1712:Generated_Source\PSoC4/CapSense_CSD_CSHL.c ****     *
1713:Generated_Source\PSoC4/CapSense_CSD_CSHL.c ****     * Summary:
1714:Generated_Source\PSoC4/CapSense_CSD_CSHL.c ****     *  Checks the CapSense_CSD_Signal[ ] array for a centroid within
1715:Generated_Source\PSoC4/CapSense_CSD_CSHL.c ****     *  a slider specified range. The centroid position is calculated according to the resolution
1716:Generated_Source\PSoC4/CapSense_CSD_CSHL.c ****     *  specified in the CapSense customizer. The position filters are applied to the
1717:Generated_Source\PSoC4/CapSense_CSD_CSHL.c ****     *  result if enabled.
1718:Generated_Source\PSoC4/CapSense_CSD_CSHL.c ****     *
1719:Generated_Source\PSoC4/CapSense_CSD_CSHL.c ****     * Parameters:
1720:Generated_Source\PSoC4/CapSense_CSD_CSHL.c ****     *  widget:  Widget number.
1721:Generated_Source\PSoC4/CapSense_CSD_CSHL.c ****     *  For every linear slider widget there are defines in this format:
1722:Generated_Source\PSoC4/CapSense_CSD_CSHL.c ****     *  #define CapSense_CSD_"widget_name"__LS           5
1723:Generated_Source\PSoC4/CapSense_CSD_CSHL.c ****     *
1724:Generated_Source\PSoC4/CapSense_CSD_CSHL.c ****     * Return:
1725:Generated_Source\PSoC4/CapSense_CSD_CSHL.c ****     *  Returns a position value of the linear slider.
1726:Generated_Source\PSoC4/CapSense_CSD_CSHL.c ****     *
1727:Generated_Source\PSoC4/CapSense_CSD_CSHL.c ****     * Global Variables:
1728:Generated_Source\PSoC4/CapSense_CSD_CSHL.c ****     *  None
1729:Generated_Source\PSoC4/CapSense_CSD_CSHL.c ****     *
1730:Generated_Source\PSoC4/CapSense_CSD_CSHL.c ****     * Side Effects:
1731:Generated_Source\PSoC4/CapSense_CSD_CSHL.c ****     *  If any sensor within the slider widget is active, the function returns values
1732:Generated_Source\PSoC4/CapSense_CSD_CSHL.c ****     *  from zero to the API resolution value set in the CapSense customizer. If no
1733:Generated_Source\PSoC4/CapSense_CSD_CSHL.c ****     *  sensors are active, the function returns 0xFFFF. If an error occurs during
1734:Generated_Source\PSoC4/CapSense_CSD_CSHL.c ****     *  execution of the centroid/diplexing algorithm, the function returns 0xFFFF.
1735:Generated_Source\PSoC4/CapSense_CSD_CSHL.c ****     *  There are no checks of the widget type argument provided to this function.
1736:Generated_Source\PSoC4/CapSense_CSD_CSHL.c ****     *  The unproper widget type provided will cause unexpected position calculations.
1737:Generated_Source\PSoC4/CapSense_CSD_CSHL.c ****     *
1738:Generated_Source\PSoC4/CapSense_CSD_CSHL.c ****     * Note:
1739:Generated_Source\PSoC4/CapSense_CSD_CSHL.c ****     *  If noise counts on the slider segments are greater than the noise
1740:Generated_Source\PSoC4/CapSense_CSD_CSHL.c ****     *  threshold, this subroutine may generate a false centroid result. The noise
1741:Generated_Source\PSoC4/CapSense_CSD_CSHL.c ****     *  threshold should be set carefully (high enough above the noise level) so
1742:Generated_Source\PSoC4/CapSense_CSD_CSHL.c ****     *  that noise will not generate a false centroid.
1743:Generated_Source\PSoC4/CapSense_CSD_CSHL.c ****     *******************************************************************************/
1744:Generated_Source\PSoC4/CapSense_CSD_CSHL.c ****     uint16 CapSense_CSD_GetCentroidPos(uint32 widget)
1745:Generated_Source\PSoC4/CapSense_CSD_CSHL.c ****     {
1746:Generated_Source\PSoC4/CapSense_CSD_CSHL.c ****         #if (CapSense_CSD_IS_DIPLEX_SLIDER)
1747:Generated_Source\PSoC4/CapSense_CSD_CSHL.c ****             const uint8 *diplex;
1748:Generated_Source\PSoC4/CapSense_CSD_CSHL.c ****         #endif /* (CapSense_CSD_IS_DIPLEX_SLIDER) */
ARM GAS  C:\Users\ZTIPRI~1\AppData\Local\Temp\ccqOwDTe.s 			page 49


1749:Generated_Source\PSoC4/CapSense_CSD_CSHL.c **** 
1750:Generated_Source\PSoC4/CapSense_CSD_CSHL.c ****         #if (0u != CapSense_CSD_LINEAR_SLIDERS_POS_FILTERS_MASK)
1751:Generated_Source\PSoC4/CapSense_CSD_CSHL.c ****             uint8 posIndex;
1752:Generated_Source\PSoC4/CapSense_CSD_CSHL.c ****             uint8 firstTimeIndex = CapSense_CSD_posFiltersData[widget];
1753:Generated_Source\PSoC4/CapSense_CSD_CSHL.c ****             uint8 posFiltersMask = CapSense_CSD_posFiltersMask[widget];
1754:Generated_Source\PSoC4/CapSense_CSD_CSHL.c ****         #endif /* (0u != CapSense_CSD_LINEAR_SLIDERS_POS_FILTERS_MASK) */
1755:Generated_Source\PSoC4/CapSense_CSD_CSHL.c **** 
1756:Generated_Source\PSoC4/CapSense_CSD_CSHL.c ****         #if ((0u != (CapSense_CSD_MEDIAN_FILTER & CapSense_CSD_LINEAR_SLIDERS_POS_FILTERS_MASK)) ||
1757:Generated_Source\PSoC4/CapSense_CSD_CSHL.c ****              (0u != (CapSense_CSD_AVERAGING_FILTER & CapSense_CSD_LINEAR_SLIDERS_POS_FILTERS_MASK))
1758:Generated_Source\PSoC4/CapSense_CSD_CSHL.c ****             uint8 tempPos;
1759:Generated_Source\PSoC4/CapSense_CSD_CSHL.c ****         #endif /* ((0u != (CapSense_CSD_MEDIAN_FILTER & CapSense_CSD_LINEAR_SLIDERS_POS_FILTERS_MAS
1760:Generated_Source\PSoC4/CapSense_CSD_CSHL.c ****                *   (0u != (CapSense_CSD_AVERAGING_FILTER & CapSense_CSD_LINEAR_SLIDERS_POS_FILTERS_
1761:Generated_Source\PSoC4/CapSense_CSD_CSHL.c ****                */
1762:Generated_Source\PSoC4/CapSense_CSD_CSHL.c **** 
1763:Generated_Source\PSoC4/CapSense_CSD_CSHL.c ****         uint8 maximum;
1764:Generated_Source\PSoC4/CapSense_CSD_CSHL.c ****         uint16 position;
1765:Generated_Source\PSoC4/CapSense_CSD_CSHL.c ****         uint8 offset = CapSense_CSD_rawDataIndex[widget];
1766:Generated_Source\PSoC4/CapSense_CSD_CSHL.c ****         uint8 count = CapSense_CSD_numberOfSensors[widget];
1767:Generated_Source\PSoC4/CapSense_CSD_CSHL.c **** 
1768:Generated_Source\PSoC4/CapSense_CSD_CSHL.c ****         #if (CapSense_CSD_IS_DIPLEX_SLIDER)
1769:Generated_Source\PSoC4/CapSense_CSD_CSHL.c ****             if(widget < CapSense_CSD_TOTAL_DIPLEXED_SLIDERS_COUNT)
1770:Generated_Source\PSoC4/CapSense_CSD_CSHL.c ****             {
1771:Generated_Source\PSoC4/CapSense_CSD_CSHL.c ****                 maximum = CapSense_CSD_diplexTable[widget];
1772:Generated_Source\PSoC4/CapSense_CSD_CSHL.c ****                 diplex = &CapSense_CSD_diplexTable[maximum];
1773:Generated_Source\PSoC4/CapSense_CSD_CSHL.c ****             }
1774:Generated_Source\PSoC4/CapSense_CSD_CSHL.c ****             else
1775:Generated_Source\PSoC4/CapSense_CSD_CSHL.c ****             {
1776:Generated_Source\PSoC4/CapSense_CSD_CSHL.c ****                 diplex = 0u;
1777:Generated_Source\PSoC4/CapSense_CSD_CSHL.c ****             }
1778:Generated_Source\PSoC4/CapSense_CSD_CSHL.c ****         #endif /* (CapSense_CSD_IS_DIPLEX_SLIDER) */
1779:Generated_Source\PSoC4/CapSense_CSD_CSHL.c **** 
1780:Generated_Source\PSoC4/CapSense_CSD_CSHL.c ****         /* Find Maximum within centroid */
1781:Generated_Source\PSoC4/CapSense_CSD_CSHL.c ****         #if (CapSense_CSD_IS_DIPLEX_SLIDER)
1782:Generated_Source\PSoC4/CapSense_CSD_CSHL.c ****             maximum = CapSense_CSD_FindMaximum(offset, count, (uint8)CapSense_CSD_fingerThreshold[w
1783:Generated_Source\PSoC4/CapSense_CSD_CSHL.c ****         #else
1784:Generated_Source\PSoC4/CapSense_CSD_CSHL.c ****             maximum = CapSense_CSD_FindMaximum(offset, count, (uint8)CapSense_CSD_fingerThreshold[w
1785:Generated_Source\PSoC4/CapSense_CSD_CSHL.c ****         #endif /* (CapSense_CSD_IS_DIPLEX_SLIDER) */
1786:Generated_Source\PSoC4/CapSense_CSD_CSHL.c **** 
1787:Generated_Source\PSoC4/CapSense_CSD_CSHL.c ****         if (maximum != 0xFFu)
1788:Generated_Source\PSoC4/CapSense_CSD_CSHL.c ****         {
1789:Generated_Source\PSoC4/CapSense_CSD_CSHL.c ****             /* Calculate centroid */
1790:Generated_Source\PSoC4/CapSense_CSD_CSHL.c ****             position = (uint16) CapSense_CSD_CalcCentroid(maximum,
1791:Generated_Source\PSoC4/CapSense_CSD_CSHL.c ****                          offset, count, CapSense_CSD_centroidMult[widget], CapSense_CSD_noiseThresh
1792:Generated_Source\PSoC4/CapSense_CSD_CSHL.c **** 
1793:Generated_Source\PSoC4/CapSense_CSD_CSHL.c ****             #if (0u != CapSense_CSD_LINEAR_SLIDERS_POS_FILTERS_MASK)
1794:Generated_Source\PSoC4/CapSense_CSD_CSHL.c ****                 /* Check if this linear slider has enabled filters */
1795:Generated_Source\PSoC4/CapSense_CSD_CSHL.c ****                 if (0u != (posFiltersMask & CapSense_CSD_ANY_POS_FILTER))
1796:Generated_Source\PSoC4/CapSense_CSD_CSHL.c ****                 {
1797:Generated_Source\PSoC4/CapSense_CSD_CSHL.c ****                     /* Calculate position to store filters data */
1798:Generated_Source\PSoC4/CapSense_CSD_CSHL.c ****                     posIndex  = firstTimeIndex + 1u;
1799:Generated_Source\PSoC4/CapSense_CSD_CSHL.c **** 
1800:Generated_Source\PSoC4/CapSense_CSD_CSHL.c ****                     if (0u == CapSense_CSD_posFiltersData[firstTimeIndex])
1801:Generated_Source\PSoC4/CapSense_CSD_CSHL.c ****                     {
1802:Generated_Source\PSoC4/CapSense_CSD_CSHL.c ****                         /* Init filters */
1803:Generated_Source\PSoC4/CapSense_CSD_CSHL.c ****                         CapSense_CSD_posFiltersData[posIndex] = (uint8) position;
1804:Generated_Source\PSoC4/CapSense_CSD_CSHL.c ****                         #if ((0u != (CapSense_CSD_MEDIAN_FILTER & \
1805:Generated_Source\PSoC4/CapSense_CSD_CSHL.c ****                                      CapSense_CSD_LINEAR_SLIDERS_POS_FILTERS_MASK)) || \
ARM GAS  C:\Users\ZTIPRI~1\AppData\Local\Temp\ccqOwDTe.s 			page 50


1806:Generated_Source\PSoC4/CapSense_CSD_CSHL.c ****                              (0u != (CapSense_CSD_AVERAGING_FILTER & \
1807:Generated_Source\PSoC4/CapSense_CSD_CSHL.c ****                                      CapSense_CSD_LINEAR_SLIDERS_POS_FILTERS_MASK)))
1808:Generated_Source\PSoC4/CapSense_CSD_CSHL.c **** 
1809:Generated_Source\PSoC4/CapSense_CSD_CSHL.c ****                             if ( (0u != (posFiltersMask & CapSense_CSD_MEDIAN_FILTER)) ||
1810:Generated_Source\PSoC4/CapSense_CSD_CSHL.c ****                                  (0u != (posFiltersMask & CapSense_CSD_AVERAGING_FILTER)) )
1811:Generated_Source\PSoC4/CapSense_CSD_CSHL.c ****                             {
1812:Generated_Source\PSoC4/CapSense_CSD_CSHL.c ****                                 CapSense_CSD_posFiltersData[posIndex + 1u] = (uint8) position;
1813:Generated_Source\PSoC4/CapSense_CSD_CSHL.c ****                             }
1814:Generated_Source\PSoC4/CapSense_CSD_CSHL.c ****                         #endif /* ((0u != (CapSense_CSD_MEDIAN_FILTER & \
1815:Generated_Source\PSoC4/CapSense_CSD_CSHL.c ****                                *           CapSense_CSD_LINEAR_SLIDERS_POS_FILTERS_MASK)) || \
1816:Generated_Source\PSoC4/CapSense_CSD_CSHL.c ****                                *   (0u != (CapSense_CSD_AVERAGING_FILTER & \
1817:Generated_Source\PSoC4/CapSense_CSD_CSHL.c ****                                *           CapSense_CSD_LINEAR_SLIDERS_POS_FILTERS_MASK)))
1818:Generated_Source\PSoC4/CapSense_CSD_CSHL.c ****                                */
1819:Generated_Source\PSoC4/CapSense_CSD_CSHL.c **** 
1820:Generated_Source\PSoC4/CapSense_CSD_CSHL.c ****                         CapSense_CSD_posFiltersData[firstTimeIndex] = 1u;
1821:Generated_Source\PSoC4/CapSense_CSD_CSHL.c ****                     }
1822:Generated_Source\PSoC4/CapSense_CSD_CSHL.c ****                     else
1823:Generated_Source\PSoC4/CapSense_CSD_CSHL.c ****                     {
1824:Generated_Source\PSoC4/CapSense_CSD_CSHL.c ****                         /* Do filtering */
1825:Generated_Source\PSoC4/CapSense_CSD_CSHL.c ****                         #if (0u != (CapSense_CSD_MEDIAN_FILTER & CapSense_CSD_LINEAR_SLIDERS_POS_FI
1826:Generated_Source\PSoC4/CapSense_CSD_CSHL.c ****                             if (0u != (posFiltersMask & CapSense_CSD_MEDIAN_FILTER))
1827:Generated_Source\PSoC4/CapSense_CSD_CSHL.c ****                             {
1828:Generated_Source\PSoC4/CapSense_CSD_CSHL.c ****                                 tempPos = (uint8) position;
1829:Generated_Source\PSoC4/CapSense_CSD_CSHL.c ****                                 position = CapSense_CSD_MedianFilter(position,
1830:Generated_Source\PSoC4/CapSense_CSD_CSHL.c ****                                                                 (uint16)CapSense_CSD_posFiltersData
1831:Generated_Source\PSoC4/CapSense_CSD_CSHL.c ****                                                                 (uint16)CapSense_CSD_posFiltersData
1832:Generated_Source\PSoC4/CapSense_CSD_CSHL.c ****                                 CapSense_CSD_posFiltersData[posIndex + 1u] =
1833:Generated_Source\PSoC4/CapSense_CSD_CSHL.c ****                                                                              CapSense_CSD_posFilter
1834:Generated_Source\PSoC4/CapSense_CSD_CSHL.c ****                                 CapSense_CSD_posFiltersData[posIndex] = tempPos;
1835:Generated_Source\PSoC4/CapSense_CSD_CSHL.c ****                             }
1836:Generated_Source\PSoC4/CapSense_CSD_CSHL.c ****                         #endif /*(0u != (CapSense_CSD_MEDIAN_FILTER &
1837:Generated_Source\PSoC4/CapSense_CSD_CSHL.c ****                                *         CapSense_CSD_LINEAR_SLIDERS_POS_FILTERS_MASK))
1838:Generated_Source\PSoC4/CapSense_CSD_CSHL.c ****                                */
1839:Generated_Source\PSoC4/CapSense_CSD_CSHL.c **** 
1840:Generated_Source\PSoC4/CapSense_CSD_CSHL.c ****                         #if(0u!=(CapSense_CSD_AVERAGING_FILTER & CapSense_CSD_LINEAR_SLIDERS_POS_FI
1841:Generated_Source\PSoC4/CapSense_CSD_CSHL.c ****                             if (0u != (posFiltersMask & CapSense_CSD_AVERAGING_FILTER))
1842:Generated_Source\PSoC4/CapSense_CSD_CSHL.c ****                             {
1843:Generated_Source\PSoC4/CapSense_CSD_CSHL.c ****                                 tempPos = (uint8) position;
1844:Generated_Source\PSoC4/CapSense_CSD_CSHL.c ****                                 position = CapSense_CSD_AveragingFilter(position,
1845:Generated_Source\PSoC4/CapSense_CSD_CSHL.c ****                                                                 (uint16)CapSense_CSD_posFiltersData
1846:Generated_Source\PSoC4/CapSense_CSD_CSHL.c ****                                                                 (uint16)CapSense_CSD_posFiltersData
1847:Generated_Source\PSoC4/CapSense_CSD_CSHL.c ****                                 CapSense_CSD_posFiltersData[posIndex+1u]=CapSense_CSD_posFiltersDat
1848:Generated_Source\PSoC4/CapSense_CSD_CSHL.c ****                                 CapSense_CSD_posFiltersData[posIndex] = tempPos;
1849:Generated_Source\PSoC4/CapSense_CSD_CSHL.c ****                             }
1850:Generated_Source\PSoC4/CapSense_CSD_CSHL.c ****                         #endif /* (0u != (CapSense_CSD_AVERAGING_FILTER & \
1851:Generated_Source\PSoC4/CapSense_CSD_CSHL.c ****                                *           CapSense_CSD_LINEAR_SLIDERS_POS_FILTERS_MASK))
1852:Generated_Source\PSoC4/CapSense_CSD_CSHL.c ****                                */
1853:Generated_Source\PSoC4/CapSense_CSD_CSHL.c **** 
1854:Generated_Source\PSoC4/CapSense_CSD_CSHL.c ****                         #if (0u != (CapSense_CSD_IIR2_FILTER & CapSense_CSD_LINEAR_SLIDERS_POS_FILT
1855:Generated_Source\PSoC4/CapSense_CSD_CSHL.c ****                             if (0u != (posFiltersMask & CapSense_CSD_IIR2_FILTER))
1856:Generated_Source\PSoC4/CapSense_CSD_CSHL.c ****                             {
1857:Generated_Source\PSoC4/CapSense_CSD_CSHL.c ****                                 position = CapSense_CSD_IIR2Filter(position,
1858:Generated_Source\PSoC4/CapSense_CSD_CSHL.c ****                                                                     (uint16)CapSense_CSD_posFilters
1859:Generated_Source\PSoC4/CapSense_CSD_CSHL.c ****                                 CapSense_CSD_posFiltersData[posIndex] = (uint8) position;
1860:Generated_Source\PSoC4/CapSense_CSD_CSHL.c ****                             }
1861:Generated_Source\PSoC4/CapSense_CSD_CSHL.c ****                         #endif /* (0u != (CapSense_CSD_IIR2_FILTER & \
1862:Generated_Source\PSoC4/CapSense_CSD_CSHL.c ****                                *          CapSense_CSD_LINEAR_SLIDERS_POS_FILTERS_MASK))
ARM GAS  C:\Users\ZTIPRI~1\AppData\Local\Temp\ccqOwDTe.s 			page 51


1863:Generated_Source\PSoC4/CapSense_CSD_CSHL.c ****                                */
1864:Generated_Source\PSoC4/CapSense_CSD_CSHL.c **** 
1865:Generated_Source\PSoC4/CapSense_CSD_CSHL.c ****                         #if (0u != (CapSense_CSD_IIR4_FILTER & CapSense_CSD_LINEAR_SLIDERS_POS_FILT
1866:Generated_Source\PSoC4/CapSense_CSD_CSHL.c ****                             if (0u != (posFiltersMask & CapSense_CSD_IIR4_FILTER))
1867:Generated_Source\PSoC4/CapSense_CSD_CSHL.c ****                             {
1868:Generated_Source\PSoC4/CapSense_CSD_CSHL.c ****                                 position = CapSense_CSD_IIR4Filter(position,
1869:Generated_Source\PSoC4/CapSense_CSD_CSHL.c ****                                                                     (uint16)CapSense_CSD_posFilters
1870:Generated_Source\PSoC4/CapSense_CSD_CSHL.c ****                                 CapSense_CSD_posFiltersData[posIndex] = (uint8) position;
1871:Generated_Source\PSoC4/CapSense_CSD_CSHL.c ****                             }
1872:Generated_Source\PSoC4/CapSense_CSD_CSHL.c ****                         #endif /* (0u != (CapSense_CSD_IIR4_FILTER & \
1873:Generated_Source\PSoC4/CapSense_CSD_CSHL.c ****                                *          CapSense_CSD_LINEAR_SLIDERS_POS_FILTERS_MASK))
1874:Generated_Source\PSoC4/CapSense_CSD_CSHL.c ****                                */
1875:Generated_Source\PSoC4/CapSense_CSD_CSHL.c **** 
1876:Generated_Source\PSoC4/CapSense_CSD_CSHL.c ****                         #if (0u != (CapSense_CSD_JITTER_FILTER & CapSense_CSD_LINEAR_SLIDERS_POS_FI
1877:Generated_Source\PSoC4/CapSense_CSD_CSHL.c ****                             if (0u != (posFiltersMask & CapSense_CSD_JITTER_FILTER))
1878:Generated_Source\PSoC4/CapSense_CSD_CSHL.c ****                             {
1879:Generated_Source\PSoC4/CapSense_CSD_CSHL.c ****                                 position = CapSense_CSD_JitterFilter(position,
1880:Generated_Source\PSoC4/CapSense_CSD_CSHL.c ****                                                                     (uint16)CapSense_CSD_posFilters
1881:Generated_Source\PSoC4/CapSense_CSD_CSHL.c ****                                 CapSense_CSD_posFiltersData[posIndex] = (uint8) position;
1882:Generated_Source\PSoC4/CapSense_CSD_CSHL.c ****                             }
1883:Generated_Source\PSoC4/CapSense_CSD_CSHL.c ****                         #endif /* (0u != (CapSense_CSD_JITTER_FILTER & \
1884:Generated_Source\PSoC4/CapSense_CSD_CSHL.c ****                                *           CapSense_CSD_LINEAR_SLIDERS_POS_FILTERS_MASK))
1885:Generated_Source\PSoC4/CapSense_CSD_CSHL.c ****                                */
1886:Generated_Source\PSoC4/CapSense_CSD_CSHL.c ****                     }
1887:Generated_Source\PSoC4/CapSense_CSD_CSHL.c ****                 }
1888:Generated_Source\PSoC4/CapSense_CSD_CSHL.c ****             #endif /* (0u != CapSense_CSD_LINEAR_SLIDERS_POS_FILTERS_MASK) */
1889:Generated_Source\PSoC4/CapSense_CSD_CSHL.c **** 
1890:Generated_Source\PSoC4/CapSense_CSD_CSHL.c ****         }
1891:Generated_Source\PSoC4/CapSense_CSD_CSHL.c ****         else
1892:Generated_Source\PSoC4/CapSense_CSD_CSHL.c ****         {
1893:Generated_Source\PSoC4/CapSense_CSD_CSHL.c ****             /* Maximum wasn't found */
1894:Generated_Source\PSoC4/CapSense_CSD_CSHL.c ****             position = 0xFFFFu;
1895:Generated_Source\PSoC4/CapSense_CSD_CSHL.c **** 
1896:Generated_Source\PSoC4/CapSense_CSD_CSHL.c ****             #if(0u != CapSense_CSD_LINEAR_SLIDERS_POS_FILTERS_MASK)
1897:Generated_Source\PSoC4/CapSense_CSD_CSHL.c ****                 /* Reset filters */
1898:Generated_Source\PSoC4/CapSense_CSD_CSHL.c ****                 if(0u != (posFiltersMask & CapSense_CSD_ANY_POS_FILTER))
1899:Generated_Source\PSoC4/CapSense_CSD_CSHL.c ****                 {
1900:Generated_Source\PSoC4/CapSense_CSD_CSHL.c ****                     CapSense_CSD_posFiltersData[firstTimeIndex] = 0u;
1901:Generated_Source\PSoC4/CapSense_CSD_CSHL.c ****                 }
1902:Generated_Source\PSoC4/CapSense_CSD_CSHL.c ****             #endif /* (0u != CapSense_CSD_LINEAR_SLIDERS_POS_FILTERS_MASK) */
1903:Generated_Source\PSoC4/CapSense_CSD_CSHL.c ****         }
1904:Generated_Source\PSoC4/CapSense_CSD_CSHL.c **** 
1905:Generated_Source\PSoC4/CapSense_CSD_CSHL.c **** 
1906:Generated_Source\PSoC4/CapSense_CSD_CSHL.c ****         return (position);
1907:Generated_Source\PSoC4/CapSense_CSD_CSHL.c ****     }
1908:Generated_Source\PSoC4/CapSense_CSD_CSHL.c **** #endif /* ((CapSense_CSD_TOTAL_RADIAL_SLIDERS_COUNT > 0u) || (CapSense_CSD_TOTAL_LINEAR_SLIDERS_COU
1909:Generated_Source\PSoC4/CapSense_CSD_CSHL.c **** 
1910:Generated_Source\PSoC4/CapSense_CSD_CSHL.c **** 
1911:Generated_Source\PSoC4/CapSense_CSD_CSHL.c **** #if((CapSense_CSD_TOTAL_RADIAL_SLIDERS_COUNT > 0u) || (CapSense_CSD_TOTAL_LINEAR_SLIDERS_COUNT > 0u
1912:Generated_Source\PSoC4/CapSense_CSD_CSHL.c ****     /*******************************************************************************
1913:Generated_Source\PSoC4/CapSense_CSD_CSHL.c ****     * Function Name: CapSense_CSD_GetRadialCentroidPos
1914:Generated_Source\PSoC4/CapSense_CSD_CSHL.c ****     ********************************************************************************
1915:Generated_Source\PSoC4/CapSense_CSD_CSHL.c ****     *
1916:Generated_Source\PSoC4/CapSense_CSD_CSHL.c ****     * Summary:
1917:Generated_Source\PSoC4/CapSense_CSD_CSHL.c ****     *  Checks the CapSense_CSD_Signal[ ] array for a centroid within
1918:Generated_Source\PSoC4/CapSense_CSD_CSHL.c ****     *  a slider specified range. The centroid position is calculated according to the resolution
1919:Generated_Source\PSoC4/CapSense_CSD_CSHL.c ****     *  specified in the CapSense customizer. The position filters are applied to the
ARM GAS  C:\Users\ZTIPRI~1\AppData\Local\Temp\ccqOwDTe.s 			page 52


1920:Generated_Source\PSoC4/CapSense_CSD_CSHL.c ****     *  result if enabled.
1921:Generated_Source\PSoC4/CapSense_CSD_CSHL.c ****     *
1922:Generated_Source\PSoC4/CapSense_CSD_CSHL.c ****     * Parameters:
1923:Generated_Source\PSoC4/CapSense_CSD_CSHL.c ****     *  widget:  Widget number.
1924:Generated_Source\PSoC4/CapSense_CSD_CSHL.c ****     *  For every radial slider widget there are defines in this format:
1925:Generated_Source\PSoC4/CapSense_CSD_CSHL.c ****     *  #define CapSense_CSD_"widget_name"__RS           5
1926:Generated_Source\PSoC4/CapSense_CSD_CSHL.c ****     *
1927:Generated_Source\PSoC4/CapSense_CSD_CSHL.c ****     * Return:
1928:Generated_Source\PSoC4/CapSense_CSD_CSHL.c ****     *  Returns a position value of the radial slider.
1929:Generated_Source\PSoC4/CapSense_CSD_CSHL.c ****     *
1930:Generated_Source\PSoC4/CapSense_CSD_CSHL.c ****     * Global Variables:
1931:Generated_Source\PSoC4/CapSense_CSD_CSHL.c ****     *  None.
1932:Generated_Source\PSoC4/CapSense_CSD_CSHL.c ****     *
1933:Generated_Source\PSoC4/CapSense_CSD_CSHL.c ****     * Side Effects:
1934:Generated_Source\PSoC4/CapSense_CSD_CSHL.c ****     *  If any sensor within the slider widget is active, the function returns values
1935:Generated_Source\PSoC4/CapSense_CSD_CSHL.c ****     *  from zero to the API resolution value set in the CapSense customizer. If no
1936:Generated_Source\PSoC4/CapSense_CSD_CSHL.c ****     *  sensors are active, the function returns 0xFFFF.
1937:Generated_Source\PSoC4/CapSense_CSD_CSHL.c ****     *  There are no checks of the widget type argument provided to this function.
1938:Generated_Source\PSoC4/CapSense_CSD_CSHL.c ****     *  The unproper widget type provided will cause unexpected position calculations.
1939:Generated_Source\PSoC4/CapSense_CSD_CSHL.c ****     *
1940:Generated_Source\PSoC4/CapSense_CSD_CSHL.c ****     * Note:
1941:Generated_Source\PSoC4/CapSense_CSD_CSHL.c ****     *  If noise counts on the slider segments are greater than the noise
1942:Generated_Source\PSoC4/CapSense_CSD_CSHL.c ****     *  threshold, this subroutine may generate a false centroid result. The noise
1943:Generated_Source\PSoC4/CapSense_CSD_CSHL.c ****     *  threshold should be set carefully (high enough above the noise level) so
1944:Generated_Source\PSoC4/CapSense_CSD_CSHL.c ****     *  that noise will not generate a false centroid.
1945:Generated_Source\PSoC4/CapSense_CSD_CSHL.c ****     *
1946:Generated_Source\PSoC4/CapSense_CSD_CSHL.c ****     *******************************************************************************/
1947:Generated_Source\PSoC4/CapSense_CSD_CSHL.c ****      uint16 CapSense_CSD_GetRadialCentroidPos(uint32 widget)
1948:Generated_Source\PSoC4/CapSense_CSD_CSHL.c ****     {
1949:Generated_Source\PSoC4/CapSense_CSD_CSHL.c ****         #if (0u != CapSense_CSD_RADIAL_SLIDERS_POS_FILTERS_MASK)
1950:Generated_Source\PSoC4/CapSense_CSD_CSHL.c ****             uint8 posIndex;
1951:Generated_Source\PSoC4/CapSense_CSD_CSHL.c ****             uint8 firstTimeIndex = CapSense_CSD_posFiltersData[widget];
1952:Generated_Source\PSoC4/CapSense_CSD_CSHL.c ****             uint8 posFiltersMask = CapSense_CSD_posFiltersMask[widget];
1953:Generated_Source\PSoC4/CapSense_CSD_CSHL.c ****         #endif /* (0u != CapSense_CSD_RADIAL_SLIDERS_POS_FILTERS_MASK) */
1954:Generated_Source\PSoC4/CapSense_CSD_CSHL.c **** 
1955:Generated_Source\PSoC4/CapSense_CSD_CSHL.c ****         #if ((0u != (CapSense_CSD_MEDIAN_FILTER & CapSense_CSD_RADIAL_SLIDERS_POS_FILTERS_MASK)) ||
1956:Generated_Source\PSoC4/CapSense_CSD_CSHL.c ****              (0u != (CapSense_CSD_AVERAGING_FILTER & CapSense_CSD_RADIAL_SLIDERS_POS_FILTERS_MASK))
1957:Generated_Source\PSoC4/CapSense_CSD_CSHL.c ****             uint8 tempPos;
1958:Generated_Source\PSoC4/CapSense_CSD_CSHL.c ****         #endif /* ((0u != (CapSense_CSD_MEDIAN_FILTER & CapSense_CSD_RADIAL_SLIDERS_POS_FILTERS_MAS
1959:Generated_Source\PSoC4/CapSense_CSD_CSHL.c ****                *   (0u != (CapSense_CSD_AVERAGING_FILTER & CapSense_CSD_RADIAL_SLIDERS_POS_FILTERS_
1960:Generated_Source\PSoC4/CapSense_CSD_CSHL.c ****                */
1961:Generated_Source\PSoC4/CapSense_CSD_CSHL.c **** 
1962:Generated_Source\PSoC4/CapSense_CSD_CSHL.c ****         uint8 maximum;
1963:Generated_Source\PSoC4/CapSense_CSD_CSHL.c ****         uint16 position;
1964:Generated_Source\PSoC4/CapSense_CSD_CSHL.c ****         uint8 offset = CapSense_CSD_rawDataIndex[widget];
1965:Generated_Source\PSoC4/CapSense_CSD_CSHL.c ****         uint8 count = CapSense_CSD_numberOfSensors[widget];
1966:Generated_Source\PSoC4/CapSense_CSD_CSHL.c **** 
1967:Generated_Source\PSoC4/CapSense_CSD_CSHL.c ****         /* Find Maximum within centroid */
1968:Generated_Source\PSoC4/CapSense_CSD_CSHL.c ****         #if (CapSense_CSD_IS_DIPLEX_SLIDER)
1969:Generated_Source\PSoC4/CapSense_CSD_CSHL.c ****             maximum = CapSense_CSD_FindMaximum(offset, count, (uint8)CapSense_CSD_fingerThreshold[w
1970:Generated_Source\PSoC4/CapSense_CSD_CSHL.c ****         #else
1971:Generated_Source\PSoC4/CapSense_CSD_CSHL.c ****             maximum = CapSense_CSD_FindMaximum(offset, count, (uint8)CapSense_CSD_fingerThreshold[w
1972:Generated_Source\PSoC4/CapSense_CSD_CSHL.c ****         #endif /* (CapSense_CSD_IS_DIPLEX_SLIDER) */
1973:Generated_Source\PSoC4/CapSense_CSD_CSHL.c **** 
1974:Generated_Source\PSoC4/CapSense_CSD_CSHL.c ****         if (maximum != CapSense_CSD_MAXIMUM_CENTROID)
1975:Generated_Source\PSoC4/CapSense_CSD_CSHL.c ****         {
1976:Generated_Source\PSoC4/CapSense_CSD_CSHL.c ****             /* Calculate centroid */
ARM GAS  C:\Users\ZTIPRI~1\AppData\Local\Temp\ccqOwDTe.s 			page 53


1977:Generated_Source\PSoC4/CapSense_CSD_CSHL.c ****             position = (uint16) CapSense_CSD_CalcCentroid(maximum,
1978:Generated_Source\PSoC4/CapSense_CSD_CSHL.c ****                          offset, count, CapSense_CSD_centroidMult[widget], CapSense_CSD_noiseThresh
1979:Generated_Source\PSoC4/CapSense_CSD_CSHL.c **** 
1980:Generated_Source\PSoC4/CapSense_CSD_CSHL.c ****             #if (0u != CapSense_CSD_RADIAL_SLIDERS_POS_FILTERS_MASK)
1981:Generated_Source\PSoC4/CapSense_CSD_CSHL.c ****                 /* Check if this Radial slider has enabled filters */
1982:Generated_Source\PSoC4/CapSense_CSD_CSHL.c ****                 if (0u != (posFiltersMask & CapSense_CSD_ANY_POS_FILTER))
1983:Generated_Source\PSoC4/CapSense_CSD_CSHL.c ****                 {
1984:Generated_Source\PSoC4/CapSense_CSD_CSHL.c ****                     /* Calculate position to store filters data */
1985:Generated_Source\PSoC4/CapSense_CSD_CSHL.c ****                     posIndex  = firstTimeIndex + 1u;
1986:Generated_Source\PSoC4/CapSense_CSD_CSHL.c **** 
1987:Generated_Source\PSoC4/CapSense_CSD_CSHL.c ****                     if (0u == CapSense_CSD_posFiltersData[firstTimeIndex])
1988:Generated_Source\PSoC4/CapSense_CSD_CSHL.c ****                     {
1989:Generated_Source\PSoC4/CapSense_CSD_CSHL.c ****                         /* Init filters */
1990:Generated_Source\PSoC4/CapSense_CSD_CSHL.c ****                         CapSense_CSD_posFiltersData[posIndex] = (uint8) position;
1991:Generated_Source\PSoC4/CapSense_CSD_CSHL.c ****                         #if ((0u != (CapSense_CSD_MEDIAN_FILTER & \
1992:Generated_Source\PSoC4/CapSense_CSD_CSHL.c ****                                      CapSense_CSD_RADIAL_SLIDERS_POS_FILTERS_MASK)) || \
1993:Generated_Source\PSoC4/CapSense_CSD_CSHL.c ****                              (0u != (CapSense_CSD_AVERAGING_FILTER & \
1994:Generated_Source\PSoC4/CapSense_CSD_CSHL.c ****                                      CapSense_CSD_RADIAL_SLIDERS_POS_FILTERS_MASK)))
1995:Generated_Source\PSoC4/CapSense_CSD_CSHL.c **** 
1996:Generated_Source\PSoC4/CapSense_CSD_CSHL.c ****                             if ( (0u != (posFiltersMask & CapSense_CSD_MEDIAN_FILTER))  ||
1997:Generated_Source\PSoC4/CapSense_CSD_CSHL.c ****                                  (0u != (posFiltersMask & CapSense_CSD_AVERAGING_FILTER)) )
1998:Generated_Source\PSoC4/CapSense_CSD_CSHL.c ****                             {
1999:Generated_Source\PSoC4/CapSense_CSD_CSHL.c ****                                 CapSense_CSD_posFiltersData[posIndex + 1u] = (uint8) position;
2000:Generated_Source\PSoC4/CapSense_CSD_CSHL.c ****                             }
2001:Generated_Source\PSoC4/CapSense_CSD_CSHL.c ****                         #endif /* ((0u != (CapSense_CSD_MEDIAN_FILTER & \
2002:Generated_Source\PSoC4/CapSense_CSD_CSHL.c ****                                *           CapSense_CSD_RADIAL_SLIDERS_POS_FILTERS_MASK)) || \
2003:Generated_Source\PSoC4/CapSense_CSD_CSHL.c ****                                *   (0u != (CapSense_CSD_AVERAGING_FILTER & \
2004:Generated_Source\PSoC4/CapSense_CSD_CSHL.c ****                                *           CapSense_CSD_RADIAL_SLIDERS_POS_FILTERS_MASK)))
2005:Generated_Source\PSoC4/CapSense_CSD_CSHL.c ****                                */
2006:Generated_Source\PSoC4/CapSense_CSD_CSHL.c **** 
2007:Generated_Source\PSoC4/CapSense_CSD_CSHL.c ****                         CapSense_CSD_posFiltersData[firstTimeIndex] = 1u;
2008:Generated_Source\PSoC4/CapSense_CSD_CSHL.c ****                     }
2009:Generated_Source\PSoC4/CapSense_CSD_CSHL.c ****                     else
2010:Generated_Source\PSoC4/CapSense_CSD_CSHL.c ****                     {
2011:Generated_Source\PSoC4/CapSense_CSD_CSHL.c ****                         /* Do filtering */
2012:Generated_Source\PSoC4/CapSense_CSD_CSHL.c ****                         #if (0u != (CapSense_CSD_MEDIAN_FILTER & CapSense_CSD_RADIAL_SLIDERS_POS_FI
2013:Generated_Source\PSoC4/CapSense_CSD_CSHL.c ****                             if (0u != (posFiltersMask & CapSense_CSD_MEDIAN_FILTER))
2014:Generated_Source\PSoC4/CapSense_CSD_CSHL.c ****                             {
2015:Generated_Source\PSoC4/CapSense_CSD_CSHL.c ****                                 tempPos = (uint8) position;
2016:Generated_Source\PSoC4/CapSense_CSD_CSHL.c ****                                 position = CapSense_CSD_MedianFilter(position,
2017:Generated_Source\PSoC4/CapSense_CSD_CSHL.c ****                                                                         CapSense_CSD_posFiltersData
2018:Generated_Source\PSoC4/CapSense_CSD_CSHL.c ****                                                                         CapSense_CSD_posFiltersData
2019:Generated_Source\PSoC4/CapSense_CSD_CSHL.c ****                                 CapSense_CSD_posFiltersData[posIndex + 1u] =
2020:Generated_Source\PSoC4/CapSense_CSD_CSHL.c ****                                                                               CapSense_CSD_posFilte
2021:Generated_Source\PSoC4/CapSense_CSD_CSHL.c ****                                 CapSense_CSD_posFiltersData[posIndex] = tempPos;
2022:Generated_Source\PSoC4/CapSense_CSD_CSHL.c ****                             }
2023:Generated_Source\PSoC4/CapSense_CSD_CSHL.c ****                         #endif /* (0u != (CapSense_CSD_MEDIAN_FILTER &
2024:Generated_Source\PSoC4/CapSense_CSD_CSHL.c ****                                *          CapSense_CSD_RADIAL_SLIDERS_POS_FILTERS_MASK))
2025:Generated_Source\PSoC4/CapSense_CSD_CSHL.c ****                                */
2026:Generated_Source\PSoC4/CapSense_CSD_CSHL.c **** 
2027:Generated_Source\PSoC4/CapSense_CSD_CSHL.c ****                         #if (0u != (CapSense_CSD_AVERAGING_FILTER & \
2028:Generated_Source\PSoC4/CapSense_CSD_CSHL.c ****                                     CapSense_CSD_RADIAL_SLIDERS_POS_FILTERS_MASK))
2029:Generated_Source\PSoC4/CapSense_CSD_CSHL.c ****                             if (0u != (posFiltersMask & CapSense_CSD_AVERAGING_FILTER))
2030:Generated_Source\PSoC4/CapSense_CSD_CSHL.c ****                             {
2031:Generated_Source\PSoC4/CapSense_CSD_CSHL.c ****                                 tempPos = (uint8) position;
2032:Generated_Source\PSoC4/CapSense_CSD_CSHL.c ****                                 position = CapSense_CSD_AveragingFilter(position,
2033:Generated_Source\PSoC4/CapSense_CSD_CSHL.c ****                                                                        CapSense_CSD_posFiltersData[
ARM GAS  C:\Users\ZTIPRI~1\AppData\Local\Temp\ccqOwDTe.s 			page 54


2034:Generated_Source\PSoC4/CapSense_CSD_CSHL.c ****                                                                        CapSense_CSD_posFiltersData[
2035:Generated_Source\PSoC4/CapSense_CSD_CSHL.c ****                                 CapSense_CSD_posFiltersData[posIndex+1u]= CapSense_CSD_posFiltersDa
2036:Generated_Source\PSoC4/CapSense_CSD_CSHL.c ****                                 CapSense_CSD_posFiltersData[posIndex] = tempPos;
2037:Generated_Source\PSoC4/CapSense_CSD_CSHL.c ****                             }
2038:Generated_Source\PSoC4/CapSense_CSD_CSHL.c ****                         #endif /* (0u != (CapSense_CSD_AVERAGING_FILTER & \
2039:Generated_Source\PSoC4/CapSense_CSD_CSHL.c ****                                *          CapSense_CSD_RADIAL_SLIDERS_POS_FILTERS_MASK))
2040:Generated_Source\PSoC4/CapSense_CSD_CSHL.c ****                                */
2041:Generated_Source\PSoC4/CapSense_CSD_CSHL.c **** 
2042:Generated_Source\PSoC4/CapSense_CSD_CSHL.c ****                         #if (0u != (CapSense_CSD_IIR2_FILTER & CapSense_CSD_RADIAL_SLIDERS_POS_FILT
2043:Generated_Source\PSoC4/CapSense_CSD_CSHL.c ****                             if (0u != (posFiltersMask & CapSense_CSD_IIR2_FILTER))
2044:Generated_Source\PSoC4/CapSense_CSD_CSHL.c ****                             {
2045:Generated_Source\PSoC4/CapSense_CSD_CSHL.c ****                                 position = CapSense_CSD_IIR2Filter(position,
2046:Generated_Source\PSoC4/CapSense_CSD_CSHL.c ****                                                                     (uint16)CapSense_CSD_posFilters
2047:Generated_Source\PSoC4/CapSense_CSD_CSHL.c ****                                 CapSense_CSD_posFiltersData[posIndex] = (uint8) position;
2048:Generated_Source\PSoC4/CapSense_CSD_CSHL.c ****                             }
2049:Generated_Source\PSoC4/CapSense_CSD_CSHL.c ****                         #endif /* (0u != (CapSense_CSD_IIR2_FILTER &
2050:Generated_Source\PSoC4/CapSense_CSD_CSHL.c ****                                *          CapSense_CSD_RADIAL_SLIDERS_POS_FILTERS_MASK))
2051:Generated_Source\PSoC4/CapSense_CSD_CSHL.c ****                                */
2052:Generated_Source\PSoC4/CapSense_CSD_CSHL.c **** 
2053:Generated_Source\PSoC4/CapSense_CSD_CSHL.c ****                         #if (0u != (CapSense_CSD_IIR4_FILTER & CapSense_CSD_RADIAL_SLIDERS_POS_FILT
2054:Generated_Source\PSoC4/CapSense_CSD_CSHL.c ****                             if (0u != (posFiltersMask & CapSense_CSD_IIR4_FILTER))
2055:Generated_Source\PSoC4/CapSense_CSD_CSHL.c ****                             {
2056:Generated_Source\PSoC4/CapSense_CSD_CSHL.c ****                                 position = CapSense_CSD_IIR4Filter(position,
2057:Generated_Source\PSoC4/CapSense_CSD_CSHL.c ****                                                                     (uint16)CapSense_CSD_posFilters
2058:Generated_Source\PSoC4/CapSense_CSD_CSHL.c ****                                 CapSense_CSD_posFiltersData[posIndex] = (uint8) position;
2059:Generated_Source\PSoC4/CapSense_CSD_CSHL.c ****                             }
2060:Generated_Source\PSoC4/CapSense_CSD_CSHL.c ****                         #endif /* (0u != (CapSense_CSD_IIR4_FILTER &
2061:Generated_Source\PSoC4/CapSense_CSD_CSHL.c ****                                *          CapSense_CSD_RADIAL_SLIDERS_POS_FILTERS_MASK))
2062:Generated_Source\PSoC4/CapSense_CSD_CSHL.c ****                                */
2063:Generated_Source\PSoC4/CapSense_CSD_CSHL.c **** 
2064:Generated_Source\PSoC4/CapSense_CSD_CSHL.c ****                         #if (0u != (CapSense_CSD_JITTER_FILTER & CapSense_CSD_RADIAL_SLIDERS_POS_FI
2065:Generated_Source\PSoC4/CapSense_CSD_CSHL.c ****                             if (0u != (posFiltersMask & CapSense_CSD_JITTER_FILTER))
2066:Generated_Source\PSoC4/CapSense_CSD_CSHL.c ****                             {
2067:Generated_Source\PSoC4/CapSense_CSD_CSHL.c ****                                 position = CapSense_CSD_JitterFilter(position,
2068:Generated_Source\PSoC4/CapSense_CSD_CSHL.c ****                                                                          CapSense_CSD_posFiltersDat
2069:Generated_Source\PSoC4/CapSense_CSD_CSHL.c ****                                 CapSense_CSD_posFiltersData[posIndex] = (uint8) position;
2070:Generated_Source\PSoC4/CapSense_CSD_CSHL.c ****                             }
2071:Generated_Source\PSoC4/CapSense_CSD_CSHL.c ****                         #endif /* (0u != (CapSense_CSD_JITTER_FILTER &
2072:Generated_Source\PSoC4/CapSense_CSD_CSHL.c ****                                *           CapSense_CSD_RADIAL_SLIDERS_POS_FILTERS_MASK))
2073:Generated_Source\PSoC4/CapSense_CSD_CSHL.c ****                                */
2074:Generated_Source\PSoC4/CapSense_CSD_CSHL.c ****                     }
2075:Generated_Source\PSoC4/CapSense_CSD_CSHL.c ****                 }
2076:Generated_Source\PSoC4/CapSense_CSD_CSHL.c ****             #endif /* (0u != CapSense_CSD_RADIAL_SLIDERS_POS_FILTERS_MASK) */
2077:Generated_Source\PSoC4/CapSense_CSD_CSHL.c **** 
2078:Generated_Source\PSoC4/CapSense_CSD_CSHL.c ****         }
2079:Generated_Source\PSoC4/CapSense_CSD_CSHL.c ****         else
2080:Generated_Source\PSoC4/CapSense_CSD_CSHL.c ****         {
2081:Generated_Source\PSoC4/CapSense_CSD_CSHL.c ****             /* Maximum was not found */
2082:Generated_Source\PSoC4/CapSense_CSD_CSHL.c ****             position = 0xFFFFu;
2083:Generated_Source\PSoC4/CapSense_CSD_CSHL.c **** 
2084:Generated_Source\PSoC4/CapSense_CSD_CSHL.c ****             #if (0u != CapSense_CSD_RADIAL_SLIDERS_POS_FILTERS_MASK)
2085:Generated_Source\PSoC4/CapSense_CSD_CSHL.c ****                 /* Reset filters */
2086:Generated_Source\PSoC4/CapSense_CSD_CSHL.c ****                 if((posFiltersMask & CapSense_CSD_ANY_POS_FILTER) != 0u)
2087:Generated_Source\PSoC4/CapSense_CSD_CSHL.c ****                 {
2088:Generated_Source\PSoC4/CapSense_CSD_CSHL.c ****                     CapSense_CSD_posFiltersData[firstTimeIndex] = 0u;
2089:Generated_Source\PSoC4/CapSense_CSD_CSHL.c ****                 }
2090:Generated_Source\PSoC4/CapSense_CSD_CSHL.c ****             #endif /* (0u != CapSense_CSD_RADIAL_SLIDERS_POS_FILTERS_MASK) */
ARM GAS  C:\Users\ZTIPRI~1\AppData\Local\Temp\ccqOwDTe.s 			page 55


2091:Generated_Source\PSoC4/CapSense_CSD_CSHL.c ****         }
2092:Generated_Source\PSoC4/CapSense_CSD_CSHL.c **** 
2093:Generated_Source\PSoC4/CapSense_CSD_CSHL.c ****         return (position);
2094:Generated_Source\PSoC4/CapSense_CSD_CSHL.c ****     }
2095:Generated_Source\PSoC4/CapSense_CSD_CSHL.c **** #endif /* ((CapSense_CSD_TOTAL_RADIAL_SLIDERS_COUNT > 0u) || (CapSense_CSD_TOTAL_LINEAR_SLIDERS_COU
2096:Generated_Source\PSoC4/CapSense_CSD_CSHL.c **** 
2097:Generated_Source\PSoC4/CapSense_CSD_CSHL.c **** 
2098:Generated_Source\PSoC4/CapSense_CSD_CSHL.c **** #if(CapSense_CSD_TOTAL_TOUCH_PADS_BASIC_COUNT > 0u)
2099:Generated_Source\PSoC4/CapSense_CSD_CSHL.c ****     /*******************************************************************************
2100:Generated_Source\PSoC4/CapSense_CSD_CSHL.c ****     * Function Name: CapSense_CSD_GetTouchCentroidPos
2101:Generated_Source\PSoC4/CapSense_CSD_CSHL.c ****     ********************************************************************************
2102:Generated_Source\PSoC4/CapSense_CSD_CSHL.c ****     *
2103:Generated_Source\PSoC4/CapSense_CSD_CSHL.c ****     * Summary:
2104:Generated_Source\PSoC4/CapSense_CSD_CSHL.c ****     *  If a finger is present on a touchpad, this function calculates the X and Y
2105:Generated_Source\PSoC4/CapSense_CSD_CSHL.c ****     *  position of the finger by calculating the centroids within touchpad specified
2106:Generated_Source\PSoC4/CapSense_CSD_CSHL.c ****     *  range. The X and Y positions are calculated according to the API resolutions set in the
2107:Generated_Source\PSoC4/CapSense_CSD_CSHL.c ****     *  CapSense customizer. Returns 1 if a finger is on the touchpad.
2108:Generated_Source\PSoC4/CapSense_CSD_CSHL.c ****     *  The position filter is applied to the result if enabled.
2109:Generated_Source\PSoC4/CapSense_CSD_CSHL.c ****     *  This function is available only if a touch pad is defined by the CapSense
2110:Generated_Source\PSoC4/CapSense_CSD_CSHL.c ****     *  customizer.
2111:Generated_Source\PSoC4/CapSense_CSD_CSHL.c ****     *
2112:Generated_Source\PSoC4/CapSense_CSD_CSHL.c ****     * Parameters:
2113:Generated_Source\PSoC4/CapSense_CSD_CSHL.c ****     *  widget:  Widget number.
2114:Generated_Source\PSoC4/CapSense_CSD_CSHL.c ****     *  For every touchpad widget there are defines in this format:
2115:Generated_Source\PSoC4/CapSense_CSD_CSHL.c ****     *  #define CapSense_CSD_"widget_name"__TP            5
2116:Generated_Source\PSoC4/CapSense_CSD_CSHL.c ****     *
2117:Generated_Source\PSoC4/CapSense_CSD_CSHL.c ****     *  pos:     Pointer to the array of two uint16 elements, where result
2118:Generated_Source\PSoC4/CapSense_CSD_CSHL.c ****     *  result of calculation of X and Y position are stored.
2119:Generated_Source\PSoC4/CapSense_CSD_CSHL.c ****     *  pos[0u]  - position of X
2120:Generated_Source\PSoC4/CapSense_CSD_CSHL.c ****     *  pos[1u]  - position of Y
2121:Generated_Source\PSoC4/CapSense_CSD_CSHL.c ****     *
2122:Generated_Source\PSoC4/CapSense_CSD_CSHL.c ****     * Return:
2123:Generated_Source\PSoC4/CapSense_CSD_CSHL.c ****     *  Returns a 1 if a finger is on the touch pad, 0 - if not.
2124:Generated_Source\PSoC4/CapSense_CSD_CSHL.c ****     *
2125:Generated_Source\PSoC4/CapSense_CSD_CSHL.c ****     * Global Variables:
2126:Generated_Source\PSoC4/CapSense_CSD_CSHL.c ****     *  None.
2127:Generated_Source\PSoC4/CapSense_CSD_CSHL.c ****     *
2128:Generated_Source\PSoC4/CapSense_CSD_CSHL.c ****     * Side Effects:
2129:Generated_Source\PSoC4/CapSense_CSD_CSHL.c ****     *   There are no checks of the widget type argument provided to this function.
2130:Generated_Source\PSoC4/CapSense_CSD_CSHL.c ****     *   The unproper widget type provided will cause unexpected position
2131:Generated_Source\PSoC4/CapSense_CSD_CSHL.c ****     *   calculations.
2132:Generated_Source\PSoC4/CapSense_CSD_CSHL.c ****     *
2133:Generated_Source\PSoC4/CapSense_CSD_CSHL.c ****     *******************************************************************************/
2134:Generated_Source\PSoC4/CapSense_CSD_CSHL.c ****     uint32 CapSense_CSD_GetTouchCentroidPos(uint32 widget, uint16* pos)
2135:Generated_Source\PSoC4/CapSense_CSD_CSHL.c ****     {
2136:Generated_Source\PSoC4/CapSense_CSD_CSHL.c ****         #if (0u != CapSense_CSD_TOUCH_PADS_POS_FILTERS_MASK)
2137:Generated_Source\PSoC4/CapSense_CSD_CSHL.c ****             uint8 posXIndex;
2138:Generated_Source\PSoC4/CapSense_CSD_CSHL.c ****             uint8 posYIndex;
2139:Generated_Source\PSoC4/CapSense_CSD_CSHL.c ****             uint8 firstTimeIndex = CapSense_CSD_posFiltersData[widget];
2140:Generated_Source\PSoC4/CapSense_CSD_CSHL.c ****             uint8 posFiltersMask = CapSense_CSD_posFiltersMask[widget];
2141:Generated_Source\PSoC4/CapSense_CSD_CSHL.c ****         #endif /* (0u != CapSense_CSD_TOUCH_PADS_POS_FILTERS_MASK) */
2142:Generated_Source\PSoC4/CapSense_CSD_CSHL.c **** 
2143:Generated_Source\PSoC4/CapSense_CSD_CSHL.c ****         #if ((0u != (CapSense_CSD_MEDIAN_FILTER & CapSense_CSD_TOUCH_PADS_POS_FILTERS_MASK)) || \
2144:Generated_Source\PSoC4/CapSense_CSD_CSHL.c ****              (0u != (CapSense_CSD_AVERAGING_FILTER & CapSense_CSD_TOUCH_PADS_POS_FILTERS_MASK)))
2145:Generated_Source\PSoC4/CapSense_CSD_CSHL.c ****             uint16 tempPos;
2146:Generated_Source\PSoC4/CapSense_CSD_CSHL.c ****         #endif /* ((0u != (CapSense_CSD_MEDIAN_FILTER & CapSense_CSD_TOUCH_PADS_POS_FILTERS_MASK)) 
2147:Generated_Source\PSoC4/CapSense_CSD_CSHL.c ****                *   (0u != (CapSense_CSD_AVERAGING_FILTER & CapSense_CSD_TOUCH_PADS_POS_FILTERS_MASK
ARM GAS  C:\Users\ZTIPRI~1\AppData\Local\Temp\ccqOwDTe.s 			page 56


2148:Generated_Source\PSoC4/CapSense_CSD_CSHL.c ****                */
2149:Generated_Source\PSoC4/CapSense_CSD_CSHL.c **** 
2150:Generated_Source\PSoC4/CapSense_CSD_CSHL.c ****         uint8 MaxX;
2151:Generated_Source\PSoC4/CapSense_CSD_CSHL.c ****         uint8 MaxY;
2152:Generated_Source\PSoC4/CapSense_CSD_CSHL.c ****         uint8 posX;
2153:Generated_Source\PSoC4/CapSense_CSD_CSHL.c ****         uint8 posY;
2154:Generated_Source\PSoC4/CapSense_CSD_CSHL.c ****         uint32 touch = 0u;
2155:Generated_Source\PSoC4/CapSense_CSD_CSHL.c ****         uint8 offset = CapSense_CSD_rawDataIndex[widget];
2156:Generated_Source\PSoC4/CapSense_CSD_CSHL.c ****         uint8 count = CapSense_CSD_numberOfSensors[widget];
2157:Generated_Source\PSoC4/CapSense_CSD_CSHL.c **** 
2158:Generated_Source\PSoC4/CapSense_CSD_CSHL.c ****         /* Find Maximum within X centroid */
2159:Generated_Source\PSoC4/CapSense_CSD_CSHL.c ****         #if (CapSense_CSD_IS_DIPLEX_SLIDER)
2160:Generated_Source\PSoC4/CapSense_CSD_CSHL.c ****             MaxX = CapSense_CSD_FindMaximum(offset, count, CapSense_CSD_fingerThreshold[widget], 0u
2161:Generated_Source\PSoC4/CapSense_CSD_CSHL.c ****         #else
2162:Generated_Source\PSoC4/CapSense_CSD_CSHL.c ****             MaxX = CapSense_CSD_FindMaximum(offset, count, CapSense_CSD_fingerThreshold[widget]);
2163:Generated_Source\PSoC4/CapSense_CSD_CSHL.c ****         #endif /* (CapSense_CSD_IS_DIPLEX_SLIDER) */
2164:Generated_Source\PSoC4/CapSense_CSD_CSHL.c **** 
2165:Generated_Source\PSoC4/CapSense_CSD_CSHL.c ****         if (MaxX != CapSense_CSD_MAXIMUM_CENTROID)
2166:Generated_Source\PSoC4/CapSense_CSD_CSHL.c ****         {
2167:Generated_Source\PSoC4/CapSense_CSD_CSHL.c ****             offset = CapSense_CSD_rawDataIndex[widget + 1u];
2168:Generated_Source\PSoC4/CapSense_CSD_CSHL.c ****             count = CapSense_CSD_numberOfSensors[widget + 1u];
2169:Generated_Source\PSoC4/CapSense_CSD_CSHL.c **** 
2170:Generated_Source\PSoC4/CapSense_CSD_CSHL.c ****             /* Find Maximum within Y centroid */
2171:Generated_Source\PSoC4/CapSense_CSD_CSHL.c ****             #if (CapSense_CSD_IS_DIPLEX_SLIDER)
2172:Generated_Source\PSoC4/CapSense_CSD_CSHL.c ****                 MaxY = CapSense_CSD_FindMaximum(offset, count, CapSense_CSD_fingerThreshold[widget 
2173:Generated_Source\PSoC4/CapSense_CSD_CSHL.c ****             #else
2174:Generated_Source\PSoC4/CapSense_CSD_CSHL.c ****                 MaxY = CapSense_CSD_FindMaximum(offset, count, CapSense_CSD_fingerThreshold[widget 
2175:Generated_Source\PSoC4/CapSense_CSD_CSHL.c ****             #endif /* (CapSense_CSD_IS_DIPLEX_SLIDER) */
2176:Generated_Source\PSoC4/CapSense_CSD_CSHL.c **** 
2177:Generated_Source\PSoC4/CapSense_CSD_CSHL.c ****             if (MaxY != CapSense_CSD_MAXIMUM_CENTROID)
2178:Generated_Source\PSoC4/CapSense_CSD_CSHL.c ****             {
2179:Generated_Source\PSoC4/CapSense_CSD_CSHL.c ****                 /* X and Y maximums are found = true touch */
2180:Generated_Source\PSoC4/CapSense_CSD_CSHL.c ****                 touch = 1u;
2181:Generated_Source\PSoC4/CapSense_CSD_CSHL.c **** 
2182:Generated_Source\PSoC4/CapSense_CSD_CSHL.c ****                 /* Calculate Y centroid */
2183:Generated_Source\PSoC4/CapSense_CSD_CSHL.c ****                 posY = CapSense_CSD_CalcCentroid(MaxY, offset, count,
2184:Generated_Source\PSoC4/CapSense_CSD_CSHL.c ****                             CapSense_CSD_centroidMult[widget + 1u], CapSense_CSD_noiseThreshold[wid
2185:Generated_Source\PSoC4/CapSense_CSD_CSHL.c **** 
2186:Generated_Source\PSoC4/CapSense_CSD_CSHL.c ****                 /* Calculate X centroid */
2187:Generated_Source\PSoC4/CapSense_CSD_CSHL.c ****                 offset = CapSense_CSD_rawDataIndex[widget];
2188:Generated_Source\PSoC4/CapSense_CSD_CSHL.c ****                 count = CapSense_CSD_numberOfSensors[widget];
2189:Generated_Source\PSoC4/CapSense_CSD_CSHL.c **** 
2190:Generated_Source\PSoC4/CapSense_CSD_CSHL.c ****                 posX = CapSense_CSD_CalcCentroid(MaxX, offset, count,
2191:Generated_Source\PSoC4/CapSense_CSD_CSHL.c ****                             CapSense_CSD_centroidMult[widget],CapSense_CSD_noiseThreshold[widget]);
2192:Generated_Source\PSoC4/CapSense_CSD_CSHL.c **** 
2193:Generated_Source\PSoC4/CapSense_CSD_CSHL.c ****                 #if (0u != CapSense_CSD_TOUCH_PADS_POS_FILTERS_MASK)
2194:Generated_Source\PSoC4/CapSense_CSD_CSHL.c ****                     /* Check if this TP has enabled filters */
2195:Generated_Source\PSoC4/CapSense_CSD_CSHL.c ****                     if (0u != (posFiltersMask & CapSense_CSD_ANY_POS_FILTER))
2196:Generated_Source\PSoC4/CapSense_CSD_CSHL.c ****                     {
2197:Generated_Source\PSoC4/CapSense_CSD_CSHL.c ****                         /* Calculate position to store filters data */
2198:Generated_Source\PSoC4/CapSense_CSD_CSHL.c ****                         posXIndex  = firstTimeIndex + 1u;
2199:Generated_Source\PSoC4/CapSense_CSD_CSHL.c ****                         posYIndex  = CapSense_CSD_posFiltersData[widget + 1u];
2200:Generated_Source\PSoC4/CapSense_CSD_CSHL.c **** 
2201:Generated_Source\PSoC4/CapSense_CSD_CSHL.c ****                         if (0u == CapSense_CSD_posFiltersData[firstTimeIndex])
2202:Generated_Source\PSoC4/CapSense_CSD_CSHL.c ****                         {
2203:Generated_Source\PSoC4/CapSense_CSD_CSHL.c ****                             /* Init filters */
2204:Generated_Source\PSoC4/CapSense_CSD_CSHL.c ****                             CapSense_CSD_posFiltersData[posXIndex] = posX;
ARM GAS  C:\Users\ZTIPRI~1\AppData\Local\Temp\ccqOwDTe.s 			page 57


2205:Generated_Source\PSoC4/CapSense_CSD_CSHL.c ****                             CapSense_CSD_posFiltersData[posYIndex] = posY;
2206:Generated_Source\PSoC4/CapSense_CSD_CSHL.c **** 
2207:Generated_Source\PSoC4/CapSense_CSD_CSHL.c ****                             #if((0u != (CapSense_CSD_MEDIAN_FILTER & \
2208:Generated_Source\PSoC4/CapSense_CSD_CSHL.c ****                                         CapSense_CSD_TOUCH_PADS_POS_FILTERS_MASK))|| \
2209:Generated_Source\PSoC4/CapSense_CSD_CSHL.c ****                                 (0u != (CapSense_CSD_AVERAGING_FILTER & \
2210:Generated_Source\PSoC4/CapSense_CSD_CSHL.c ****                                         CapSense_CSD_TOUCH_PADS_POS_FILTERS_MASK)))
2211:Generated_Source\PSoC4/CapSense_CSD_CSHL.c **** 
2212:Generated_Source\PSoC4/CapSense_CSD_CSHL.c ****                                 if ( (0u != (posFiltersMask & CapSense_CSD_MEDIAN_FILTER)) ||
2213:Generated_Source\PSoC4/CapSense_CSD_CSHL.c ****                                      (0u != (posFiltersMask & CapSense_CSD_AVERAGING_FILTER)) )
2214:Generated_Source\PSoC4/CapSense_CSD_CSHL.c ****                                 {
2215:Generated_Source\PSoC4/CapSense_CSD_CSHL.c ****                                     CapSense_CSD_posFiltersData[posXIndex + 1u] = posX;
2216:Generated_Source\PSoC4/CapSense_CSD_CSHL.c ****                                     CapSense_CSD_posFiltersData[posYIndex + 1u] = posY;
2217:Generated_Source\PSoC4/CapSense_CSD_CSHL.c ****                                 }
2218:Generated_Source\PSoC4/CapSense_CSD_CSHL.c ****                             #endif /* ((0u != (CapSense_CSD_MEDIAN_FILTER & \
2219:Generated_Source\PSoC4/CapSense_CSD_CSHL.c ****                                    *           CapSense_CSD_TOUCH_PADS_POS_FILTERS_MASK)) || \
2220:Generated_Source\PSoC4/CapSense_CSD_CSHL.c ****                                    *    (0u != (CapSense_CSD_AVERAGING_FILTER & \
2221:Generated_Source\PSoC4/CapSense_CSD_CSHL.c ****                                    *            CapSense_CSD_TOUCH_PADS_POS_FILTERS_MASK)))
2222:Generated_Source\PSoC4/CapSense_CSD_CSHL.c ****                                    */
2223:Generated_Source\PSoC4/CapSense_CSD_CSHL.c **** 
2224:Generated_Source\PSoC4/CapSense_CSD_CSHL.c ****                             CapSense_CSD_posFiltersData[firstTimeIndex] = 1u;
2225:Generated_Source\PSoC4/CapSense_CSD_CSHL.c ****                         }
2226:Generated_Source\PSoC4/CapSense_CSD_CSHL.c ****                         else
2227:Generated_Source\PSoC4/CapSense_CSD_CSHL.c ****                         {
2228:Generated_Source\PSoC4/CapSense_CSD_CSHL.c ****                             /* Do filtering */
2229:Generated_Source\PSoC4/CapSense_CSD_CSHL.c ****                             #if (0u != (CapSense_CSD_MEDIAN_FILTER & CapSense_CSD_TOUCH_PADS_POS_FI
2230:Generated_Source\PSoC4/CapSense_CSD_CSHL.c ****                                 if (0u != (posFiltersMask & CapSense_CSD_MEDIAN_FILTER))
2231:Generated_Source\PSoC4/CapSense_CSD_CSHL.c ****                                 {
2232:Generated_Source\PSoC4/CapSense_CSD_CSHL.c ****                                     tempPos = posX;
2233:Generated_Source\PSoC4/CapSense_CSD_CSHL.c ****                                     posX = (uint8) CapSense_CSD_MedianFilter(posX,
2234:Generated_Source\PSoC4/CapSense_CSD_CSHL.c ****                                                                       CapSense_CSD_posFiltersData[p
2235:Generated_Source\PSoC4/CapSense_CSD_CSHL.c ****                                                                       CapSense_CSD_posFiltersData[p
