ARM GAS  C:\Users\ZTIPRI~1\AppData\Local\Temp\ccSOSZja.s 			page 1


   1              		.syntax unified
   2              		.cpu cortex-m0
   3              		.fpu softvfp
   4              		.eabi_attribute 20, 1
   5              		.eabi_attribute 21, 1
   6              		.eabi_attribute 23, 3
   7              		.eabi_attribute 24, 1
   8              		.eabi_attribute 25, 1
   9              		.eabi_attribute 26, 1
  10              		.eabi_attribute 30, 1
  11              		.eabi_attribute 34, 0
  12              		.eabi_attribute 18, 4
  13              		.thumb
  14              		.syntax unified
  15              		.file	"CapSense_CSD_PM.c"
  16              		.text
  17              	.Ltext0:
  18              		.cfi_sections	.debug_frame
  19              		.section	.text.CapSense_CSD_SaveConfig,"ax",%progbits
  20              		.align	2
  21              		.global	CapSense_CSD_SaveConfig
  22              		.code	16
  23              		.thumb_func
  24              		.type	CapSense_CSD_SaveConfig, %function
  25              	CapSense_CSD_SaveConfig:
  26              	.LFB32:
  27              		.file 1 "Generated_Source\\PSoC4\\CapSense_CSD_PM.c"
   1:Generated_Source\PSoC4/CapSense_CSD_PM.c **** /*******************************************************************************
   2:Generated_Source\PSoC4/CapSense_CSD_PM.c **** * File Name: CapSense_CSD_PM.c
   3:Generated_Source\PSoC4/CapSense_CSD_PM.c **** * Version 2.60
   4:Generated_Source\PSoC4/CapSense_CSD_PM.c **** *
   5:Generated_Source\PSoC4/CapSense_CSD_PM.c **** * Description:
   6:Generated_Source\PSoC4/CapSense_CSD_PM.c **** *  This file provides Sleep APIs for CapSense CSD Component.
   7:Generated_Source\PSoC4/CapSense_CSD_PM.c **** *
   8:Generated_Source\PSoC4/CapSense_CSD_PM.c **** * Note:
   9:Generated_Source\PSoC4/CapSense_CSD_PM.c **** *
  10:Generated_Source\PSoC4/CapSense_CSD_PM.c **** ********************************************************************************
  11:Generated_Source\PSoC4/CapSense_CSD_PM.c **** * Copyright 2013-2016, Cypress Semiconductor Corporation.  All rights reserved.
  12:Generated_Source\PSoC4/CapSense_CSD_PM.c **** * You may use this file only in accordance with the license, terms, conditions,
  13:Generated_Source\PSoC4/CapSense_CSD_PM.c **** * disclaimers, and limitations in the end user license agreement accompanying
  14:Generated_Source\PSoC4/CapSense_CSD_PM.c **** * the software package with which this file was provided.
  15:Generated_Source\PSoC4/CapSense_CSD_PM.c **** *******************************************************************************/
  16:Generated_Source\PSoC4/CapSense_CSD_PM.c **** 
  17:Generated_Source\PSoC4/CapSense_CSD_PM.c **** #include "CapSense_CSD.h"
  18:Generated_Source\PSoC4/CapSense_CSD_PM.c **** 
  19:Generated_Source\PSoC4/CapSense_CSD_PM.c **** static CapSense_CSD_BACKUP_STRUCT CapSense_CSD_backup =
  20:Generated_Source\PSoC4/CapSense_CSD_PM.c **** {
  21:Generated_Source\PSoC4/CapSense_CSD_PM.c ****     0x00u, /* enableState; */
  22:Generated_Source\PSoC4/CapSense_CSD_PM.c **** };
  23:Generated_Source\PSoC4/CapSense_CSD_PM.c **** 
  24:Generated_Source\PSoC4/CapSense_CSD_PM.c **** 
  25:Generated_Source\PSoC4/CapSense_CSD_PM.c **** /*******************************************************************************
  26:Generated_Source\PSoC4/CapSense_CSD_PM.c **** * Function Name: CapSense_CSD_SaveConfig
  27:Generated_Source\PSoC4/CapSense_CSD_PM.c **** ********************************************************************************
  28:Generated_Source\PSoC4/CapSense_CSD_PM.c **** *
  29:Generated_Source\PSoC4/CapSense_CSD_PM.c **** * Summary:
  30:Generated_Source\PSoC4/CapSense_CSD_PM.c **** *  Saves the customer configuration of CapSense.
ARM GAS  C:\Users\ZTIPRI~1\AppData\Local\Temp\ccSOSZja.s 			page 2


  31:Generated_Source\PSoC4/CapSense_CSD_PM.c **** *
  32:Generated_Source\PSoC4/CapSense_CSD_PM.c **** * Parameters:
  33:Generated_Source\PSoC4/CapSense_CSD_PM.c **** *  None
  34:Generated_Source\PSoC4/CapSense_CSD_PM.c **** *
  35:Generated_Source\PSoC4/CapSense_CSD_PM.c **** * Return:
  36:Generated_Source\PSoC4/CapSense_CSD_PM.c **** *  None
  37:Generated_Source\PSoC4/CapSense_CSD_PM.c **** *
  38:Generated_Source\PSoC4/CapSense_CSD_PM.c **** * Global Variables:
  39:Generated_Source\PSoC4/CapSense_CSD_PM.c **** *  CapSense_CSD_backup - used to save the component state before entering the  sleep
  40:Generated_Source\PSoC4/CapSense_CSD_PM.c **** *  mode and none-retention registers.
  41:Generated_Source\PSoC4/CapSense_CSD_PM.c **** *
  42:Generated_Source\PSoC4/CapSense_CSD_PM.c **** * Side Effects:
  43:Generated_Source\PSoC4/CapSense_CSD_PM.c **** *  None
  44:Generated_Source\PSoC4/CapSense_CSD_PM.c **** *
  45:Generated_Source\PSoC4/CapSense_CSD_PM.c **** *******************************************************************************/
  46:Generated_Source\PSoC4/CapSense_CSD_PM.c **** void CapSense_CSD_SaveConfig(void)
  47:Generated_Source\PSoC4/CapSense_CSD_PM.c **** {
  28              		.loc 1 47 0
  29              		.cfi_startproc
  30              		@ args = 0, pretend = 0, frame = 0
  31              		@ frame_needed = 0, uses_anonymous_args = 0
  32              		@ link register save eliminated.
  48:Generated_Source\PSoC4/CapSense_CSD_PM.c ****     if ((CapSense_CSD_CSD_CFG_REG & CapSense_CSD_CSD_CFG_ENABLE) != 0u)
  33              		.loc 1 48 0
  34 0000 034B     		ldr	r3, .L3
  35 0002 1B68     		ldr	r3, [r3]
  36 0004 002B     		cmp	r3, #0
  37 0006 02DA     		bge	.L1
  49:Generated_Source\PSoC4/CapSense_CSD_PM.c ****     {
  50:Generated_Source\PSoC4/CapSense_CSD_PM.c ****         CapSense_CSD_backup.enableState = 1u;
  38              		.loc 1 50 0
  39 0008 0122     		movs	r2, #1
  40 000a 024B     		ldr	r3, .L3+4
  41 000c 1A70     		strb	r2, [r3]
  42              	.L1:
  51:Generated_Source\PSoC4/CapSense_CSD_PM.c ****     }
  52:Generated_Source\PSoC4/CapSense_CSD_PM.c **** }
  43              		.loc 1 52 0
  44              		@ sp needed
  45 000e 7047     		bx	lr
  46              	.L4:
  47              		.align	2
  48              	.L3:
  49 0010 04000840 		.word	1074266116
  50 0014 00000000 		.word	.LANCHOR0
  51              		.cfi_endproc
  52              	.LFE32:
  53              		.size	CapSense_CSD_SaveConfig, .-CapSense_CSD_SaveConfig
  54              		.section	.text.CapSense_CSD_Sleep,"ax",%progbits
  55              		.align	2
  56              		.global	CapSense_CSD_Sleep
  57              		.code	16
  58              		.thumb_func
  59              		.type	CapSense_CSD_Sleep, %function
  60              	CapSense_CSD_Sleep:
  61              	.LFB33:
  53:Generated_Source\PSoC4/CapSense_CSD_PM.c **** 
ARM GAS  C:\Users\ZTIPRI~1\AppData\Local\Temp\ccSOSZja.s 			page 3


  54:Generated_Source\PSoC4/CapSense_CSD_PM.c **** 
  55:Generated_Source\PSoC4/CapSense_CSD_PM.c **** /*******************************************************************************
  56:Generated_Source\PSoC4/CapSense_CSD_PM.c **** * Function Name: CapSense_CSD_Sleep
  57:Generated_Source\PSoC4/CapSense_CSD_PM.c **** ********************************************************************************
  58:Generated_Source\PSoC4/CapSense_CSD_PM.c **** *
  59:Generated_Source\PSoC4/CapSense_CSD_PM.c **** * Summary:
  60:Generated_Source\PSoC4/CapSense_CSD_PM.c **** *  Disables the Active mode power.
  61:Generated_Source\PSoC4/CapSense_CSD_PM.c **** *
  62:Generated_Source\PSoC4/CapSense_CSD_PM.c **** * Parameters:
  63:Generated_Source\PSoC4/CapSense_CSD_PM.c **** *  None
  64:Generated_Source\PSoC4/CapSense_CSD_PM.c **** *
  65:Generated_Source\PSoC4/CapSense_CSD_PM.c **** * Return:
  66:Generated_Source\PSoC4/CapSense_CSD_PM.c **** *  None
  67:Generated_Source\PSoC4/CapSense_CSD_PM.c **** *
  68:Generated_Source\PSoC4/CapSense_CSD_PM.c **** * Global Variables:
  69:Generated_Source\PSoC4/CapSense_CSD_PM.c **** *  CapSense_CSD_backup - used to save the component state before entering the sleep
  70:Generated_Source\PSoC4/CapSense_CSD_PM.c **** *  mode.
  71:Generated_Source\PSoC4/CapSense_CSD_PM.c **** *
  72:Generated_Source\PSoC4/CapSense_CSD_PM.c **** *******************************************************************************/
  73:Generated_Source\PSoC4/CapSense_CSD_PM.c **** void CapSense_CSD_Sleep(void)
  74:Generated_Source\PSoC4/CapSense_CSD_PM.c **** {
  62              		.loc 1 74 0
  63              		.cfi_startproc
  64              		@ args = 0, pretend = 0, frame = 0
  65              		@ frame_needed = 0, uses_anonymous_args = 0
  66 0000 10B5     		push	{r4, lr}
  67              		.cfi_def_cfa_offset 8
  68              		.cfi_offset 4, -8
  69              		.cfi_offset 14, -4
  75:Generated_Source\PSoC4/CapSense_CSD_PM.c ****     CapSense_CSD_SaveConfig();
  70              		.loc 1 75 0
  71 0002 FFF7FEFF 		bl	CapSense_CSD_SaveConfig
  72              	.LVL0:
  76:Generated_Source\PSoC4/CapSense_CSD_PM.c **** 
  77:Generated_Source\PSoC4/CapSense_CSD_PM.c ****     /* Disable interrupt */
  78:Generated_Source\PSoC4/CapSense_CSD_PM.c ****     CyIntDisable(CapSense_CSD_ISR_NUMBER);
  73              		.loc 1 78 0
  74 0006 0F20     		movs	r0, #15
  75 0008 FFF7FEFF 		bl	CyIntDisable
  76              	.LVL1:
  79:Generated_Source\PSoC4/CapSense_CSD_PM.c **** 
  80:Generated_Source\PSoC4/CapSense_CSD_PM.c ****     CapSense_CSD_CSD_CFG_REG &= ~(CapSense_CSD_CSD_CFG_SENSE_COMP_EN | CapSense_CSD_CSD_CFG_SENSE_E
  77              		.loc 1 80 0
  78 000c 064A     		ldr	r2, .L6
  79 000e 1168     		ldr	r1, [r2]
  80 0010 064B     		ldr	r3, .L6+4
  81 0012 0B40     		ands	r3, r1
  82 0014 1360     		str	r3, [r2]
  81:Generated_Source\PSoC4/CapSense_CSD_PM.c **** 
  82:Generated_Source\PSoC4/CapSense_CSD_PM.c ****     #if(CapSense_CSD_IDAC_CNT == 2u)
  83:Generated_Source\PSoC4/CapSense_CSD_PM.c ****         CapSense_CSD_CSD_CFG_REG &= ~(CapSense_CSD_CSD_CFG_ENABLE);
  83              		.loc 1 83 0
  84 0016 1368     		ldr	r3, [r2]
  85 0018 5B00     		lsls	r3, r3, #1
  86 001a 5B08     		lsrs	r3, r3, #1
  87 001c 1360     		str	r3, [r2]
  84:Generated_Source\PSoC4/CapSense_CSD_PM.c ****     #endif /* (CapSense_CSD_IDAC_CNT == 2u) */
ARM GAS  C:\Users\ZTIPRI~1\AppData\Local\Temp\ccSOSZja.s 			page 4


  85:Generated_Source\PSoC4/CapSense_CSD_PM.c **** 
  86:Generated_Source\PSoC4/CapSense_CSD_PM.c ****     /* Disable Clocks */
  87:Generated_Source\PSoC4/CapSense_CSD_PM.c ****     CapSense_CSD_SenseClk_Stop();
  88              		.loc 1 87 0
  89 001e FFF7FEFF 		bl	CapSense_CSD_SenseClk_Stop
  90              	.LVL2:
  88:Generated_Source\PSoC4/CapSense_CSD_PM.c ****     CapSense_CSD_SampleClk_Stop();
  91              		.loc 1 88 0
  92 0022 FFF7FEFF 		bl	CapSense_CSD_SampleClk_Stop
  93              	.LVL3:
  89:Generated_Source\PSoC4/CapSense_CSD_PM.c **** }
  94              		.loc 1 89 0
  95              		@ sp needed
  96 0026 10BD     		pop	{r4, pc}
  97              	.L7:
  98              		.align	2
  99              	.L6:
 100 0028 04000840 		.word	1074266116
 101 002c FFEFF7FF 		.word	-528385
 102              		.cfi_endproc
 103              	.LFE33:
 104              		.size	CapSense_CSD_Sleep, .-CapSense_CSD_Sleep
 105              		.section	.text.CapSense_CSD_RestoreConfig,"ax",%progbits
 106              		.align	2
 107              		.global	CapSense_CSD_RestoreConfig
 108              		.code	16
 109              		.thumb_func
 110              		.type	CapSense_CSD_RestoreConfig, %function
 111              	CapSense_CSD_RestoreConfig:
 112              	.LFB34:
  90:Generated_Source\PSoC4/CapSense_CSD_PM.c **** 
  91:Generated_Source\PSoC4/CapSense_CSD_PM.c **** 
  92:Generated_Source\PSoC4/CapSense_CSD_PM.c **** /*******************************************************************************
  93:Generated_Source\PSoC4/CapSense_CSD_PM.c **** * Function Name: CapSense_CSD_RestoreConfig
  94:Generated_Source\PSoC4/CapSense_CSD_PM.c **** ********************************************************************************
  95:Generated_Source\PSoC4/CapSense_CSD_PM.c **** *
  96:Generated_Source\PSoC4/CapSense_CSD_PM.c **** * Summary:
  97:Generated_Source\PSoC4/CapSense_CSD_PM.c **** *  Restores the CapSense configuration.
  98:Generated_Source\PSoC4/CapSense_CSD_PM.c **** *
  99:Generated_Source\PSoC4/CapSense_CSD_PM.c **** * Parameters:
 100:Generated_Source\PSoC4/CapSense_CSD_PM.c **** *  None
 101:Generated_Source\PSoC4/CapSense_CSD_PM.c **** *
 102:Generated_Source\PSoC4/CapSense_CSD_PM.c **** * Return:
 103:Generated_Source\PSoC4/CapSense_CSD_PM.c **** *  None
 104:Generated_Source\PSoC4/CapSense_CSD_PM.c **** *
 105:Generated_Source\PSoC4/CapSense_CSD_PM.c **** * Side Effects:
 106:Generated_Source\PSoC4/CapSense_CSD_PM.c **** *  Must be called only after CapSense_CSD_SaveConfig() routine. Otherwise
 107:Generated_Source\PSoC4/CapSense_CSD_PM.c **** *  the component configuration will be overwritten with its initial setting.
 108:Generated_Source\PSoC4/CapSense_CSD_PM.c **** *
 109:Generated_Source\PSoC4/CapSense_CSD_PM.c **** * Global Variables:
 110:Generated_Source\PSoC4/CapSense_CSD_PM.c **** *  CapSense_CSD_backup - used to save the component state before entering the sleep
 111:Generated_Source\PSoC4/CapSense_CSD_PM.c **** *  mode and none-retention registers.
 112:Generated_Source\PSoC4/CapSense_CSD_PM.c **** *
 113:Generated_Source\PSoC4/CapSense_CSD_PM.c **** *******************************************************************************/
 114:Generated_Source\PSoC4/CapSense_CSD_PM.c **** void CapSense_CSD_RestoreConfig(void)
 115:Generated_Source\PSoC4/CapSense_CSD_PM.c **** {
 113              		.loc 1 115 0
ARM GAS  C:\Users\ZTIPRI~1\AppData\Local\Temp\ccSOSZja.s 			page 5


 114              		.cfi_startproc
 115              		@ args = 0, pretend = 0, frame = 0
 116              		@ frame_needed = 0, uses_anonymous_args = 0
 117              		@ link register save eliminated.
 116:Generated_Source\PSoC4/CapSense_CSD_PM.c **** 
 117:Generated_Source\PSoC4/CapSense_CSD_PM.c **** }
 118              		.loc 1 117 0
 119              		@ sp needed
 120 0000 7047     		bx	lr
 121              		.cfi_endproc
 122              	.LFE34:
 123              		.size	CapSense_CSD_RestoreConfig, .-CapSense_CSD_RestoreConfig
 124 0002 C046     		.section	.text.CapSense_CSD_Wakeup,"ax",%progbits
 125              		.align	2
 126              		.global	CapSense_CSD_Wakeup
 127              		.code	16
 128              		.thumb_func
 129              		.type	CapSense_CSD_Wakeup, %function
 130              	CapSense_CSD_Wakeup:
 131              	.LFB35:
 118:Generated_Source\PSoC4/CapSense_CSD_PM.c **** 
 119:Generated_Source\PSoC4/CapSense_CSD_PM.c **** 
 120:Generated_Source\PSoC4/CapSense_CSD_PM.c **** /*******************************************************************************
 121:Generated_Source\PSoC4/CapSense_CSD_PM.c **** * Function Name: CapSense_CSD_Wakeup
 122:Generated_Source\PSoC4/CapSense_CSD_PM.c **** ********************************************************************************
 123:Generated_Source\PSoC4/CapSense_CSD_PM.c **** *
 124:Generated_Source\PSoC4/CapSense_CSD_PM.c **** * Summary:
 125:Generated_Source\PSoC4/CapSense_CSD_PM.c **** *  Restores the CapSense configuration and non-retention register values.
 126:Generated_Source\PSoC4/CapSense_CSD_PM.c **** *  Restores the enabled state of the component by setting the Active mode power template
 127:Generated_Source\PSoC4/CapSense_CSD_PM.c **** *  bits for a number of components used within CapSense.
 128:Generated_Source\PSoC4/CapSense_CSD_PM.c **** *
 129:Generated_Source\PSoC4/CapSense_CSD_PM.c **** * Parameters:
 130:Generated_Source\PSoC4/CapSense_CSD_PM.c **** *  None
 131:Generated_Source\PSoC4/CapSense_CSD_PM.c **** *
 132:Generated_Source\PSoC4/CapSense_CSD_PM.c **** * Return:
 133:Generated_Source\PSoC4/CapSense_CSD_PM.c **** *  None
 134:Generated_Source\PSoC4/CapSense_CSD_PM.c **** *
 135:Generated_Source\PSoC4/CapSense_CSD_PM.c **** * Global Variables:
 136:Generated_Source\PSoC4/CapSense_CSD_PM.c **** *  CapSense_CSD_backup - used to save the component state before entering the sleep
 137:Generated_Source\PSoC4/CapSense_CSD_PM.c **** *  mode and none-retention registers.
 138:Generated_Source\PSoC4/CapSense_CSD_PM.c **** *
 139:Generated_Source\PSoC4/CapSense_CSD_PM.c **** *******************************************************************************/
 140:Generated_Source\PSoC4/CapSense_CSD_PM.c **** void CapSense_CSD_Wakeup(void)
 141:Generated_Source\PSoC4/CapSense_CSD_PM.c **** {
 132              		.loc 1 141 0
 133              		.cfi_startproc
 134              		@ args = 0, pretend = 0, frame = 0
 135              		@ frame_needed = 0, uses_anonymous_args = 0
 136 0000 10B5     		push	{r4, lr}
 137              		.cfi_def_cfa_offset 8
 138              		.cfi_offset 4, -8
 139              		.cfi_offset 14, -4
 142:Generated_Source\PSoC4/CapSense_CSD_PM.c ****     /* Enable the Clocks */
 143:Generated_Source\PSoC4/CapSense_CSD_PM.c ****     CapSense_CSD_SenseClk_Start();
 140              		.loc 1 143 0
 141 0002 FFF7FEFF 		bl	CapSense_CSD_SenseClk_Start
 142              	.LVL4:
ARM GAS  C:\Users\ZTIPRI~1\AppData\Local\Temp\ccSOSZja.s 			page 6


 144:Generated_Source\PSoC4/CapSense_CSD_PM.c ****     CapSense_CSD_SampleClk_Start();
 143              		.loc 1 144 0
 144 0006 FFF7FEFF 		bl	CapSense_CSD_SampleClk_Start
 145              	.LVL5:
 145:Generated_Source\PSoC4/CapSense_CSD_PM.c **** 
 146:Generated_Source\PSoC4/CapSense_CSD_PM.c ****     /* Restore CapSense Enable state */
 147:Generated_Source\PSoC4/CapSense_CSD_PM.c ****     if (CapSense_CSD_backup.enableState != 0u)
 146              		.loc 1 147 0
 147 000a 034B     		ldr	r3, .L11
 148 000c 1B78     		ldrb	r3, [r3]
 149 000e 002B     		cmp	r3, #0
 150 0010 01D0     		beq	.L9
 148:Generated_Source\PSoC4/CapSense_CSD_PM.c ****     {
 149:Generated_Source\PSoC4/CapSense_CSD_PM.c ****         CapSense_CSD_Enable();
 151              		.loc 1 149 0
 152 0012 FFF7FEFF 		bl	CapSense_CSD_Enable
 153              	.LVL6:
 154              	.L9:
 150:Generated_Source\PSoC4/CapSense_CSD_PM.c ****     }
 151:Generated_Source\PSoC4/CapSense_CSD_PM.c **** }
 155              		.loc 1 151 0
 156              		@ sp needed
 157 0016 10BD     		pop	{r4, pc}
 158              	.L12:
 159              		.align	2
 160              	.L11:
 161 0018 00000000 		.word	.LANCHOR0
 162              		.cfi_endproc
 163              	.LFE35:
 164              		.size	CapSense_CSD_Wakeup, .-CapSense_CSD_Wakeup
 165              		.bss
 166              		.align	2
 167              		.set	.LANCHOR0,. + 0
 168              		.type	CapSense_CSD_backup, %object
 169              		.size	CapSense_CSD_backup, 1
 170              	CapSense_CSD_backup:
 171 0000 00       		.space	1
 172              		.text
 173              	.Letext0:
 174              		.file 2 "Generated_Source\\PSoC4\\cytypes.h"
 175              		.file 3 "Generated_Source\\PSoC4\\CapSense_CSD.h"
 176              		.file 4 "Generated_Source\\PSoC4\\CyLib.h"
 177              		.file 5 "Generated_Source\\PSoC4\\CapSense_CSD_SenseClk.h"
 178              		.file 6 "Generated_Source\\PSoC4\\CapSense_CSD_SampleClk.h"