ARM GAS  C:\Users\ZURUSH~1\AppData\Local\Temp\ccmil0rU.s 			page 1


   1              		.syntax unified
   2              		.cpu cortex-m0
   3              		.fpu softvfp
   4              		.eabi_attribute 20, 1
   5              		.eabi_attribute 21, 1
   6              		.eabi_attribute 23, 3
   7              		.eabi_attribute 24, 1
   8              		.eabi_attribute 25, 1
   9              		.eabi_attribute 26, 1
  10              		.eabi_attribute 30, 1
  11              		.eabi_attribute 34, 0
  12              		.eabi_attribute 18, 4
  13              		.thumb
  14              		.syntax unified
  15              		.file	"CapSense_CSHL.c"
  16              		.text
  17              	.Ltext0:
  18              		.cfi_sections	.debug_frame
  19              		.section	.text.CapSense_BaseInit,"ax",%progbits
  20              		.align	2
  21              		.global	CapSense_BaseInit
  22              		.code	16
  23              		.thumb_func
  24              		.type	CapSense_BaseInit, %function
  25              	CapSense_BaseInit:
  26              	.LFB32:
  27              		.file 1 "Generated_Source\\PSoC4\\CapSense_CSHL.c"
   1:Generated_Source\PSoC4/CapSense_CSHL.c **** /*******************************************************************************
   2:Generated_Source\PSoC4/CapSense_CSHL.c **** * File Name: CapSense_CSHL.c
   3:Generated_Source\PSoC4/CapSense_CSHL.c **** * Version 2.60
   4:Generated_Source\PSoC4/CapSense_CSHL.c **** *
   5:Generated_Source\PSoC4/CapSense_CSHL.c **** * Description:
   6:Generated_Source\PSoC4/CapSense_CSHL.c **** *  This file provides the source code to the High Level APIs for the CapSesne
   7:Generated_Source\PSoC4/CapSense_CSHL.c **** *  CSD component.
   8:Generated_Source\PSoC4/CapSense_CSHL.c **** *
   9:Generated_Source\PSoC4/CapSense_CSHL.c **** * Note:
  10:Generated_Source\PSoC4/CapSense_CSHL.c **** *
  11:Generated_Source\PSoC4/CapSense_CSHL.c **** ********************************************************************************
  12:Generated_Source\PSoC4/CapSense_CSHL.c **** * Copyright 2013-2016, Cypress Semiconductor Corporation.  All rights reserved.
  13:Generated_Source\PSoC4/CapSense_CSHL.c **** * You may use this file only in accordance with the license, terms, conditions,
  14:Generated_Source\PSoC4/CapSense_CSHL.c **** * disclaimers, and limitations in the end user license agreement accompanying
  15:Generated_Source\PSoC4/CapSense_CSHL.c **** * the software package with which this file was provided.
  16:Generated_Source\PSoC4/CapSense_CSHL.c **** *******************************************************************************/
  17:Generated_Source\PSoC4/CapSense_CSHL.c **** 
  18:Generated_Source\PSoC4/CapSense_CSHL.c **** #include "CapSense_CSHL.h"
  19:Generated_Source\PSoC4/CapSense_CSHL.c **** #include "CapSense_PVT.h"
  20:Generated_Source\PSoC4/CapSense_CSHL.c **** 
  21:Generated_Source\PSoC4/CapSense_CSHL.c **** /* SmartSense functions */
  22:Generated_Source\PSoC4/CapSense_CSHL.c **** #if (CapSense_TUNING_METHOD == CapSense__TUNING_AUTO)
  23:Generated_Source\PSoC4/CapSense_CSHL.c ****     extern void CapSense_UpdateThresholds(uint32 sensor);
  24:Generated_Source\PSoC4/CapSense_CSHL.c **** #endif /* (CapSense_TUNING_METHOD == CapSense__TUNING_AUTO) */
  25:Generated_Source\PSoC4/CapSense_CSHL.c **** 
  26:Generated_Source\PSoC4/CapSense_CSHL.c **** /* Storage of filters data */
  27:Generated_Source\PSoC4/CapSense_CSHL.c **** #if ( (0u != (CapSense_RAW_FILTER_MASK & CapSense_MEDIAN_FILTER)) || \
  28:Generated_Source\PSoC4/CapSense_CSHL.c ****       (0u != (CapSense_RAW_FILTER_MASK & CapSense_AVERAGING_FILTER)) )
  29:Generated_Source\PSoC4/CapSense_CSHL.c **** 
  30:Generated_Source\PSoC4/CapSense_CSHL.c ****     uint16 CapSense_rawFilterData1[CapSense_TOTAL_SENSOR_COUNT];
ARM GAS  C:\Users\ZURUSH~1\AppData\Local\Temp\ccmil0rU.s 			page 2


  31:Generated_Source\PSoC4/CapSense_CSHL.c ****     uint16 CapSense_rawFilterData2[CapSense_TOTAL_SENSOR_COUNT];
  32:Generated_Source\PSoC4/CapSense_CSHL.c **** 
  33:Generated_Source\PSoC4/CapSense_CSHL.c **** #elif ( (0u != (CapSense_RAW_FILTER_MASK & CapSense_IIR2_FILTER))   || \
  34:Generated_Source\PSoC4/CapSense_CSHL.c ****         (0u != (CapSense_RAW_FILTER_MASK & CapSense_IIR4_FILTER))   || \
  35:Generated_Source\PSoC4/CapSense_CSHL.c ****         (0u != (CapSense_RAW_FILTER_MASK & CapSense_JITTER_FILTER)) || \
  36:Generated_Source\PSoC4/CapSense_CSHL.c ****         (0u != (CapSense_RAW_FILTER_MASK & CapSense_IIR8_FILTER))   || \
  37:Generated_Source\PSoC4/CapSense_CSHL.c ****         (0u != (CapSense_RAW_FILTER_MASK & CapSense_IIR16_FILTER)) )
  38:Generated_Source\PSoC4/CapSense_CSHL.c **** 
  39:Generated_Source\PSoC4/CapSense_CSHL.c ****     uint16 CapSense_rawFilterData1[CapSense_TOTAL_SENSOR_COUNT];
  40:Generated_Source\PSoC4/CapSense_CSHL.c **** #endif  /* ( (CapSense_RAW_FILTER_MASK & CapSense_MEDIAN_FILTER) || \
  41:Generated_Source\PSoC4/CapSense_CSHL.c ****         *    (CapSense_RAW_FILTER_MASK & CapSense_AVERAGING_FILTER) )
  42:Generated_Source\PSoC4/CapSense_CSHL.c ****         */
  43:Generated_Source\PSoC4/CapSense_CSHL.c **** 
  44:Generated_Source\PSoC4/CapSense_CSHL.c **** extern uint16 CapSense_sensorRaw[CapSense_TOTAL_SENSOR_COUNT];
  45:Generated_Source\PSoC4/CapSense_CSHL.c **** extern uint8 CapSense_sensorEnableMask[CapSense_TOTAL_SENSOR_MASK];
  46:Generated_Source\PSoC4/CapSense_CSHL.c **** extern const uint8 CapSense_widgetNumber[CapSense_TOTAL_SENSOR_COUNT];
  47:Generated_Source\PSoC4/CapSense_CSHL.c **** 
  48:Generated_Source\PSoC4/CapSense_CSHL.c **** #if (CapSense_TUNING_METHOD != CapSense__TUNING_NONE)
  49:Generated_Source\PSoC4/CapSense_CSHL.c ****     extern uint32 CapSense_widgetResolution[CapSense_RESOLUTIONS_TBL_SIZE];
  50:Generated_Source\PSoC4/CapSense_CSHL.c **** #endif /* (CapSense_TUNING_METHOD != CapSense__TUNING_NONE) */
  51:Generated_Source\PSoC4/CapSense_CSHL.c **** 
  52:Generated_Source\PSoC4/CapSense_CSHL.c **** uint16 CapSense_sensorBaseline[CapSense_TOTAL_SENSOR_COUNT] = {0u};
  53:Generated_Source\PSoC4/CapSense_CSHL.c **** uint8 CapSense_sensorBaselineLow[CapSense_TOTAL_SENSOR_COUNT] = {0u};
  54:Generated_Source\PSoC4/CapSense_CSHL.c **** uint8 CapSense_sensorSignal[CapSense_TOTAL_SENSOR_COUNT] = {0u};
  55:Generated_Source\PSoC4/CapSense_CSHL.c **** uint8 CapSense_sensorOnMask[CapSense_TOTAL_SENSOR_MASK] = {0u};
  56:Generated_Source\PSoC4/CapSense_CSHL.c **** 
  57:Generated_Source\PSoC4/CapSense_CSHL.c **** uint8 CapSense_lowBaselineResetCnt[CapSense_TOTAL_SENSOR_COUNT];
  58:Generated_Source\PSoC4/CapSense_CSHL.c **** uint8 CapSense_lowBaselineReset[CapSense_TOTAL_SENSOR_COUNT] = {
  59:Generated_Source\PSoC4/CapSense_CSHL.c ****     30u, 
  60:Generated_Source\PSoC4/CapSense_CSHL.c **** };
  61:Generated_Source\PSoC4/CapSense_CSHL.c **** 
  62:Generated_Source\PSoC4/CapSense_CSHL.c **** 
  63:Generated_Source\PSoC4/CapSense_CSHL.c **** 
  64:Generated_Source\PSoC4/CapSense_CSHL.c **** #if (CapSense_TUNING_METHOD == CapSense__TUNING_AUTO)
  65:Generated_Source\PSoC4/CapSense_CSHL.c ****     extern CapSense_CONFIG_TYPE_P4_v2_60 CapSense_config;
  66:Generated_Source\PSoC4/CapSense_CSHL.c **** #endif  /* (CapSense_TUNING_METHOD == CapSense__TUNING_AUTO) */
  67:Generated_Source\PSoC4/CapSense_CSHL.c **** 
  68:Generated_Source\PSoC4/CapSense_CSHL.c **** #if (CapSense_RAW_FILTER_MASK != 0u)
  69:Generated_Source\PSoC4/CapSense_CSHL.c **** uint8 CapSense_enableRawFilters = CapSense_RAW_FILTERS_ENABLED;
  70:Generated_Source\PSoC4/CapSense_CSHL.c **** #endif  /* (CapSense_RAW_FILTER_MASK != 0u) */
  71:Generated_Source\PSoC4/CapSense_CSHL.c **** 
  72:Generated_Source\PSoC4/CapSense_CSHL.c **** /* Generated by Customizer */
  73:Generated_Source\PSoC4/CapSense_CSHL.c **** uint8 CapSense_fingerThreshold[CapSense_THRESHOLD_TBL_SIZE];
  74:Generated_Source\PSoC4/CapSense_CSHL.c **** 
  75:Generated_Source\PSoC4/CapSense_CSHL.c **** uint8 CapSense_noiseThreshold[CapSense_THRESHOLD_TBL_SIZE];
  76:Generated_Source\PSoC4/CapSense_CSHL.c **** 
  77:Generated_Source\PSoC4/CapSense_CSHL.c **** uint8 CapSense_negativeNoiseThreshold[CapSense_THRESHOLD_TBL_SIZE];
  78:Generated_Source\PSoC4/CapSense_CSHL.c **** 
  79:Generated_Source\PSoC4/CapSense_CSHL.c **** uint8 CapSense_hysteresis[CapSense_WIDGET_PARAM_TBL_SIZE];
  80:Generated_Source\PSoC4/CapSense_CSHL.c **** 
  81:Generated_Source\PSoC4/CapSense_CSHL.c **** uint8 CapSense_debounce[] = {
  82:Generated_Source\PSoC4/CapSense_CSHL.c ****     5u, 
  83:Generated_Source\PSoC4/CapSense_CSHL.c **** };
  84:Generated_Source\PSoC4/CapSense_CSHL.c **** 
  85:Generated_Source\PSoC4/CapSense_CSHL.c **** static uint8 CapSense_debounceCounter[] = {
  86:Generated_Source\PSoC4/CapSense_CSHL.c ****     0u, 0u, 
  87:Generated_Source\PSoC4/CapSense_CSHL.c **** };
ARM GAS  C:\Users\ZURUSH~1\AppData\Local\Temp\ccmil0rU.s 			page 3


  88:Generated_Source\PSoC4/CapSense_CSHL.c **** 
  89:Generated_Source\PSoC4/CapSense_CSHL.c **** const uint8 CapSense_rawDataIndex[] = {
  90:Generated_Source\PSoC4/CapSense_CSHL.c ****     0u, /* Button0__BTN */
  91:Generated_Source\PSoC4/CapSense_CSHL.c **** };
  92:Generated_Source\PSoC4/CapSense_CSHL.c **** 
  93:Generated_Source\PSoC4/CapSense_CSHL.c **** const uint8 CapSense_numberOfSensors[] = {
  94:Generated_Source\PSoC4/CapSense_CSHL.c ****     1u, /* Button0__BTN */
  95:Generated_Source\PSoC4/CapSense_CSHL.c **** };
  96:Generated_Source\PSoC4/CapSense_CSHL.c **** 
  97:Generated_Source\PSoC4/CapSense_CSHL.c **** 
  98:Generated_Source\PSoC4/CapSense_CSHL.c **** 
  99:Generated_Source\PSoC4/CapSense_CSHL.c **** 
 100:Generated_Source\PSoC4/CapSense_CSHL.c **** /*******************************************************************************
 101:Generated_Source\PSoC4/CapSense_CSHL.c **** * Function Name: CapSense_BaseInit
 102:Generated_Source\PSoC4/CapSense_CSHL.c **** ********************************************************************************
 103:Generated_Source\PSoC4/CapSense_CSHL.c **** *
 104:Generated_Source\PSoC4/CapSense_CSHL.c **** * Summary:
 105:Generated_Source\PSoC4/CapSense_CSHL.c **** *  Loads the CapSense_sensorBaseline[sensor] array element with an
 106:Generated_Source\PSoC4/CapSense_CSHL.c **** *  initial value which is equal to the raw count value.
 107:Generated_Source\PSoC4/CapSense_CSHL.c **** *  Resets to zero CapSense_sensorBaselineLow[sensor] and
 108:Generated_Source\PSoC4/CapSense_CSHL.c **** *  CapSense_sensorSignal[sensor] array element.
 109:Generated_Source\PSoC4/CapSense_CSHL.c **** *  Loads the CapSense_rawFilterData2[sensor] and
 110:Generated_Source\PSoC4/CapSense_CSHL.c **** *  CapSense_rawFilterData2[sensor] array element with an
 111:Generated_Source\PSoC4/CapSense_CSHL.c **** *  initial value which is equal to the raw count value if the raw data filter is enabled.
 112:Generated_Source\PSoC4/CapSense_CSHL.c **** *
 113:Generated_Source\PSoC4/CapSense_CSHL.c **** * Parameters:
 114:Generated_Source\PSoC4/CapSense_CSHL.c **** *  sensor:  Sensor number.
 115:Generated_Source\PSoC4/CapSense_CSHL.c **** *
 116:Generated_Source\PSoC4/CapSense_CSHL.c **** * Return:
 117:Generated_Source\PSoC4/CapSense_CSHL.c **** *  None
 118:Generated_Source\PSoC4/CapSense_CSHL.c **** *
 119:Generated_Source\PSoC4/CapSense_CSHL.c **** * Global Variables:
 120:Generated_Source\PSoC4/CapSense_CSHL.c **** *  CapSense_sensorBaseline[]    - used to store the baseline value.
 121:Generated_Source\PSoC4/CapSense_CSHL.c **** *  CapSense_sensorBaselineLow[] - used to store the fraction byte of
 122:Generated_Source\PSoC4/CapSense_CSHL.c **** *  the baseline value.
 123:Generated_Source\PSoC4/CapSense_CSHL.c **** *  CapSense_sensorSignal[]      - used to store a difference between
 124:Generated_Source\PSoC4/CapSense_CSHL.c **** *  the current value of raw data and the previous value of the baseline.
 125:Generated_Source\PSoC4/CapSense_CSHL.c **** *  CapSense_rawFilterData1[]    - used to store a previous sample of
 126:Generated_Source\PSoC4/CapSense_CSHL.c **** *  any enabled raw data filter.
 127:Generated_Source\PSoC4/CapSense_CSHL.c **** *  CapSense_rawFilterData2[]    - used to store before a previous sample
 128:Generated_Source\PSoC4/CapSense_CSHL.c **** *  of the enabled raw data filter. Required only for median or average filters.
 129:Generated_Source\PSoC4/CapSense_CSHL.c **** *
 130:Generated_Source\PSoC4/CapSense_CSHL.c **** * Side Effects:
 131:Generated_Source\PSoC4/CapSense_CSHL.c **** *  None
 132:Generated_Source\PSoC4/CapSense_CSHL.c **** *
 133:Generated_Source\PSoC4/CapSense_CSHL.c **** *******************************************************************************/
 134:Generated_Source\PSoC4/CapSense_CSHL.c **** void CapSense_BaseInit(uint32 sensor)
 135:Generated_Source\PSoC4/CapSense_CSHL.c **** {
  28              		.loc 1 135 0
  29              		.cfi_startproc
  30              		@ args = 0, pretend = 0, frame = 0
  31              		@ frame_needed = 0, uses_anonymous_args = 0
  32              	.LVL0:
  33 0000 30B5     		push	{r4, r5, lr}
  34              		.cfi_def_cfa_offset 12
  35              		.cfi_offset 4, -12
  36              		.cfi_offset 5, -8
ARM GAS  C:\Users\ZURUSH~1\AppData\Local\Temp\ccmil0rU.s 			page 4


  37              		.cfi_offset 14, -4
 136:Generated_Source\PSoC4/CapSense_CSHL.c ****     #if ((CapSense_TOTAL_BUTTONS_COUNT) || (CapSense_TOTAL_MATRIX_BUTTONS_COUNT) || \
 137:Generated_Source\PSoC4/CapSense_CSHL.c ****          (CapSense_TOTAL_GENERICS_COUNT))
 138:Generated_Source\PSoC4/CapSense_CSHL.c ****         uint8 widget = CapSense_widgetNumber[sensor];
  38              		.loc 1 138 0
  39 0002 094B     		ldr	r3, .L2
  40 0004 1B5C     		ldrb	r3, [r3, r0]
  41              	.LVL1:
 139:Generated_Source\PSoC4/CapSense_CSHL.c ****     #endif /* ((CapSense_TOTAL_MATRIX_BUTTONS_COUNT) || (CapSense_TOTAL_MATRIX_BUTTONS_COUNT)) */
 140:Generated_Source\PSoC4/CapSense_CSHL.c **** 
 141:Generated_Source\PSoC4/CapSense_CSHL.c ****     #if (CapSense_TOTAL_MATRIX_BUTTONS_COUNT)
 142:Generated_Source\PSoC4/CapSense_CSHL.c ****         uint8 debounceIndex;
 143:Generated_Source\PSoC4/CapSense_CSHL.c ****     #endif  /* (CapSense_TOTAL_MATRIX_BUTTONS_COUNT) */
 144:Generated_Source\PSoC4/CapSense_CSHL.c **** 
 145:Generated_Source\PSoC4/CapSense_CSHL.c ****     #if (CapSense_TOTAL_GENERICS_COUNT)
 146:Generated_Source\PSoC4/CapSense_CSHL.c ****         /* Exclude generic widget */
 147:Generated_Source\PSoC4/CapSense_CSHL.c ****         if(widget < CapSense_END_OF_WIDGETS_INDEX)
 148:Generated_Source\PSoC4/CapSense_CSHL.c ****         {
 149:Generated_Source\PSoC4/CapSense_CSHL.c ****     #endif  /* CapSense_TOTAL_GENERICS_COUNT */
 150:Generated_Source\PSoC4/CapSense_CSHL.c **** 
 151:Generated_Source\PSoC4/CapSense_CSHL.c ****     /* Initialize Baseline */
 152:Generated_Source\PSoC4/CapSense_CSHL.c ****     CapSense_sensorBaseline[sensor] = CapSense_sensorRaw[sensor];
  42              		.loc 1 152 0
  43 0006 4200     		lsls	r2, r0, #1
  44 0008 0849     		ldr	r1, .L2+4
  45 000a 545A     		ldrh	r4, [r2, r1]
  46 000c 0849     		ldr	r1, .L2+8
  47 000e 5452     		strh	r4, [r2, r1]
 153:Generated_Source\PSoC4/CapSense_CSHL.c ****     CapSense_sensorBaselineLow[sensor] = 0u;
  48              		.loc 1 153 0
  49 0010 0818     		adds	r0, r1, r0
  50              	.LVL2:
  51 0012 0025     		movs	r5, #0
  52 0014 0571     		strb	r5, [r0, #4]
 154:Generated_Source\PSoC4/CapSense_CSHL.c ****     CapSense_sensorSignal[sensor] = 0u;
  53              		.loc 1 154 0
  54 0016 0572     		strb	r5, [r0, #8]
 155:Generated_Source\PSoC4/CapSense_CSHL.c **** 
 156:Generated_Source\PSoC4/CapSense_CSHL.c ****     CapSense_debounceCounter[widget] =  CapSense_debounce[widget];
  55              		.loc 1 156 0
  56 0018 0648     		ldr	r0, .L2+12
  57 001a C05C     		ldrb	r0, [r0, r3]
  58 001c CB18     		adds	r3, r1, r3
  59              	.LVL3:
  60 001e 1873     		strb	r0, [r3, #12]
 157:Generated_Source\PSoC4/CapSense_CSHL.c **** 
 158:Generated_Source\PSoC4/CapSense_CSHL.c **** 
 159:Generated_Source\PSoC4/CapSense_CSHL.c ****     #if ((0u != (CapSense_RAW_FILTER_MASK & CapSense_MEDIAN_FILTER)) ||\
 160:Generated_Source\PSoC4/CapSense_CSHL.c ****          (0u != (CapSense_RAW_FILTER_MASK & CapSense_AVERAGING_FILTER)))
 161:Generated_Source\PSoC4/CapSense_CSHL.c **** 
 162:Generated_Source\PSoC4/CapSense_CSHL.c ****         CapSense_rawFilterData1[sensor] = CapSense_sensorRaw[sensor];
 163:Generated_Source\PSoC4/CapSense_CSHL.c ****         CapSense_rawFilterData2[sensor] = CapSense_sensorRaw[sensor];
 164:Generated_Source\PSoC4/CapSense_CSHL.c **** 
 165:Generated_Source\PSoC4/CapSense_CSHL.c ****     #elif ((CapSense_RAW_FILTER_MASK & CapSense_IIR2_FILTER) ||\
 166:Generated_Source\PSoC4/CapSense_CSHL.c ****            (CapSense_RAW_FILTER_MASK & CapSense_IIR4_FILTER) ||\
 167:Generated_Source\PSoC4/CapSense_CSHL.c ****            (CapSense_RAW_FILTER_MASK & CapSense_JITTER_FILTER) ||\
 168:Generated_Source\PSoC4/CapSense_CSHL.c ****            (CapSense_RAW_FILTER_MASK & CapSense_IIR8_FILTER) ||\
ARM GAS  C:\Users\ZURUSH~1\AppData\Local\Temp\ccmil0rU.s 			page 5


 169:Generated_Source\PSoC4/CapSense_CSHL.c ****            (CapSense_RAW_FILTER_MASK & CapSense_IIR16_FILTER))
 170:Generated_Source\PSoC4/CapSense_CSHL.c **** 
 171:Generated_Source\PSoC4/CapSense_CSHL.c ****         CapSense_rawFilterData1[sensor] = CapSense_sensorRaw[sensor];
  61              		.loc 1 171 0
  62 0020 054B     		ldr	r3, .L2+16
  63 0022 D452     		strh	r4, [r2, r3]
 172:Generated_Source\PSoC4/CapSense_CSHL.c **** 
 173:Generated_Source\PSoC4/CapSense_CSHL.c ****     #else
 174:Generated_Source\PSoC4/CapSense_CSHL.c ****         /* No Raw filters */
 175:Generated_Source\PSoC4/CapSense_CSHL.c ****     #endif  /* ((CapSense_RAW_FILTER_MASK & CapSense_MEDIAN_FILTER) || \
 176:Generated_Source\PSoC4/CapSense_CSHL.c ****             *   (CapSense_RAW_FILTER_MASK & CapSense_AVERAGING_FILTER))
 177:Generated_Source\PSoC4/CapSense_CSHL.c ****             */
 178:Generated_Source\PSoC4/CapSense_CSHL.c **** 
 179:Generated_Source\PSoC4/CapSense_CSHL.c ****     #if (CapSense_TOTAL_GENERICS_COUNT)
 180:Generated_Source\PSoC4/CapSense_CSHL.c ****         /* Exclude generic widget */
 181:Generated_Source\PSoC4/CapSense_CSHL.c ****         }
 182:Generated_Source\PSoC4/CapSense_CSHL.c ****     #endif  /* CapSense_TOTAL_GENERICS_COUNT */
 183:Generated_Source\PSoC4/CapSense_CSHL.c **** }
  64              		.loc 1 183 0
  65              		@ sp needed
  66 0024 30BD     		pop	{r4, r5, pc}
  67              	.L3:
  68 0026 C046     		.align	2
  69              	.L2:
  70 0028 00000000 		.word	CapSense_widgetNumber
  71 002c 00000000 		.word	CapSense_sensorRaw
  72 0030 00000000 		.word	.LANCHOR0
  73 0034 00000000 		.word	.LANCHOR1
  74 0038 00000000 		.word	CapSense_rawFilterData1
  75              		.cfi_endproc
  76              	.LFE32:
  77              		.size	CapSense_BaseInit, .-CapSense_BaseInit
  78              		.section	.text.CapSense_InitializeSensorBaseline,"ax",%progbits
  79              		.align	2
  80              		.global	CapSense_InitializeSensorBaseline
  81              		.code	16
  82              		.thumb_func
  83              		.type	CapSense_InitializeSensorBaseline, %function
  84              	CapSense_InitializeSensorBaseline:
  85              	.LFB33:
 184:Generated_Source\PSoC4/CapSense_CSHL.c **** 
 185:Generated_Source\PSoC4/CapSense_CSHL.c **** 
 186:Generated_Source\PSoC4/CapSense_CSHL.c **** /*******************************************************************************
 187:Generated_Source\PSoC4/CapSense_CSHL.c **** * Function Name: CapSense_InitializeSensorBaseline
 188:Generated_Source\PSoC4/CapSense_CSHL.c **** ********************************************************************************
 189:Generated_Source\PSoC4/CapSense_CSHL.c **** *
 190:Generated_Source\PSoC4/CapSense_CSHL.c **** * Summary:
 191:Generated_Source\PSoC4/CapSense_CSHL.c **** *  Loads the CapSense_sensorBaseline[sensor] array element with an
 192:Generated_Source\PSoC4/CapSense_CSHL.c **** *  initial value by scanning the selected sensor (one channel design) or a pair
 193:Generated_Source\PSoC4/CapSense_CSHL.c **** *  of sensors (two channels designs). The raw count value is copied into the
 194:Generated_Source\PSoC4/CapSense_CSHL.c **** *  baseline array for each sensor. The raw data filters are initialized if
 195:Generated_Source\PSoC4/CapSense_CSHL.c **** *  enabled.
 196:Generated_Source\PSoC4/CapSense_CSHL.c **** *
 197:Generated_Source\PSoC4/CapSense_CSHL.c **** * Parameters:
 198:Generated_Source\PSoC4/CapSense_CSHL.c **** *  sensor:  Sensor number.
 199:Generated_Source\PSoC4/CapSense_CSHL.c **** *
 200:Generated_Source\PSoC4/CapSense_CSHL.c **** * Return:
ARM GAS  C:\Users\ZURUSH~1\AppData\Local\Temp\ccmil0rU.s 			page 6


 201:Generated_Source\PSoC4/CapSense_CSHL.c **** *  None
 202:Generated_Source\PSoC4/CapSense_CSHL.c **** *
 203:Generated_Source\PSoC4/CapSense_CSHL.c **** * Global Variables:
 204:Generated_Source\PSoC4/CapSense_CSHL.c **** *  None
 205:Generated_Source\PSoC4/CapSense_CSHL.c **** *
 206:Generated_Source\PSoC4/CapSense_CSHL.c **** * Side Effects:
 207:Generated_Source\PSoC4/CapSense_CSHL.c **** *  None
 208:Generated_Source\PSoC4/CapSense_CSHL.c **** *
 209:Generated_Source\PSoC4/CapSense_CSHL.c **** *******************************************************************************/
 210:Generated_Source\PSoC4/CapSense_CSHL.c **** void CapSense_InitializeSensorBaseline(uint32 sensor)
 211:Generated_Source\PSoC4/CapSense_CSHL.c **** {
  86              		.loc 1 211 0
  87              		.cfi_startproc
  88              		@ args = 0, pretend = 0, frame = 0
  89              		@ frame_needed = 0, uses_anonymous_args = 0
  90              	.LVL4:
  91 0000 10B5     		push	{r4, lr}
  92              		.cfi_def_cfa_offset 8
  93              		.cfi_offset 4, -8
  94              		.cfi_offset 14, -4
  95 0002 0400     		movs	r4, r0
 212:Generated_Source\PSoC4/CapSense_CSHL.c ****     /* Scan sensor */
 213:Generated_Source\PSoC4/CapSense_CSHL.c ****     CapSense_ScanSensor(sensor);
  96              		.loc 1 213 0
  97 0004 FFF7FEFF 		bl	CapSense_ScanSensor
  98              	.LVL5:
  99              	.L5:
 214:Generated_Source\PSoC4/CapSense_CSHL.c ****     while(CapSense_IsBusy() != 0u)
 100              		.loc 1 214 0 discriminator 1
 101 0008 FFF7FEFF 		bl	CapSense_IsBusy
 102              	.LVL6:
 103 000c 0028     		cmp	r0, #0
 104 000e FBD1     		bne	.L5
 215:Generated_Source\PSoC4/CapSense_CSHL.c ****     {
 216:Generated_Source\PSoC4/CapSense_CSHL.c ****         /* Wait while sensor is busy */
 217:Generated_Source\PSoC4/CapSense_CSHL.c ****     }
 218:Generated_Source\PSoC4/CapSense_CSHL.c **** 
 219:Generated_Source\PSoC4/CapSense_CSHL.c ****     /* Initialize Baseline, Signal and debounce counters */
 220:Generated_Source\PSoC4/CapSense_CSHL.c ****     CapSense_BaseInit(sensor);
 105              		.loc 1 220 0
 106 0010 2000     		movs	r0, r4
 107 0012 FFF7FEFF 		bl	CapSense_BaseInit
 108              	.LVL7:
 221:Generated_Source\PSoC4/CapSense_CSHL.c **** }
 109              		.loc 1 221 0
 110              		@ sp needed
 111              	.LVL8:
 112 0016 10BD     		pop	{r4, pc}
 113              		.cfi_endproc
 114              	.LFE33:
 115              		.size	CapSense_InitializeSensorBaseline, .-CapSense_InitializeSensorBaseline
 116              		.section	.text.CapSense_InitializeAllBaselines,"ax",%progbits
 117              		.align	2
 118              		.global	CapSense_InitializeAllBaselines
 119              		.code	16
 120              		.thumb_func
 121              		.type	CapSense_InitializeAllBaselines, %function
ARM GAS  C:\Users\ZURUSH~1\AppData\Local\Temp\ccmil0rU.s 			page 7


 122              	CapSense_InitializeAllBaselines:
 123              	.LFB34:
 222:Generated_Source\PSoC4/CapSense_CSHL.c **** 
 223:Generated_Source\PSoC4/CapSense_CSHL.c **** 
 224:Generated_Source\PSoC4/CapSense_CSHL.c **** /*******************************************************************************
 225:Generated_Source\PSoC4/CapSense_CSHL.c **** * Function Name: CapSense_InitializeAllBaselines
 226:Generated_Source\PSoC4/CapSense_CSHL.c **** ********************************************************************************
 227:Generated_Source\PSoC4/CapSense_CSHL.c **** *
 228:Generated_Source\PSoC4/CapSense_CSHL.c **** * Summary:
 229:Generated_Source\PSoC4/CapSense_CSHL.c **** *  Uses the CapSense_InitializeSensorBaseline function to load the
 230:Generated_Source\PSoC4/CapSense_CSHL.c **** *  CapSense_sensorBaseline[] array with an initial values by scanning
 231:Generated_Source\PSoC4/CapSense_CSHL.c **** *  all the sensors. The raw count values are copied into the baseline array for
 232:Generated_Source\PSoC4/CapSense_CSHL.c **** *  all the sensors. The raw data filters are initialized if enabled.
 233:Generated_Source\PSoC4/CapSense_CSHL.c **** *
 234:Generated_Source\PSoC4/CapSense_CSHL.c **** * Parameters:
 235:Generated_Source\PSoC4/CapSense_CSHL.c **** *  None
 236:Generated_Source\PSoC4/CapSense_CSHL.c **** *
 237:Generated_Source\PSoC4/CapSense_CSHL.c **** * Return:
 238:Generated_Source\PSoC4/CapSense_CSHL.c **** *  None
 239:Generated_Source\PSoC4/CapSense_CSHL.c **** *
 240:Generated_Source\PSoC4/CapSense_CSHL.c **** * Global Variables:
 241:Generated_Source\PSoC4/CapSense_CSHL.c **** *  None
 242:Generated_Source\PSoC4/CapSense_CSHL.c **** *
 243:Generated_Source\PSoC4/CapSense_CSHL.c **** * Side Effects:
 244:Generated_Source\PSoC4/CapSense_CSHL.c **** *  None
 245:Generated_Source\PSoC4/CapSense_CSHL.c **** *
 246:Generated_Source\PSoC4/CapSense_CSHL.c **** *******************************************************************************/
 247:Generated_Source\PSoC4/CapSense_CSHL.c **** void CapSense_InitializeAllBaselines(void)
 248:Generated_Source\PSoC4/CapSense_CSHL.c **** {
 124              		.loc 1 248 0
 125              		.cfi_startproc
 126              		@ args = 0, pretend = 0, frame = 0
 127              		@ frame_needed = 0, uses_anonymous_args = 0
 128 0000 10B5     		push	{r4, lr}
 129              		.cfi_def_cfa_offset 8
 130              		.cfi_offset 4, -8
 131              		.cfi_offset 14, -4
 132              	.LVL9:
 249:Generated_Source\PSoC4/CapSense_CSHL.c ****     uint32 i;
 250:Generated_Source\PSoC4/CapSense_CSHL.c **** 
 251:Generated_Source\PSoC4/CapSense_CSHL.c ****     for(i = 0u; i < CapSense_TOTAL_SCANSLOT_COUNT; i++)
 133              		.loc 1 251 0
 134 0002 0024     		movs	r4, #0
 135 0004 03E0     		b	.L7
 136              	.LVL10:
 137              	.L8:
 252:Generated_Source\PSoC4/CapSense_CSHL.c ****     {
 253:Generated_Source\PSoC4/CapSense_CSHL.c ****         CapSense_InitializeSensorBaseline(i);
 138              		.loc 1 253 0 discriminator 3
 139 0006 2000     		movs	r0, r4
 140 0008 FFF7FEFF 		bl	CapSense_InitializeSensorBaseline
 141              	.LVL11:
 251:Generated_Source\PSoC4/CapSense_CSHL.c ****     {
 142              		.loc 1 251 0 discriminator 3
 143 000c 0134     		adds	r4, r4, #1
 144              	.LVL12:
 145              	.L7:
ARM GAS  C:\Users\ZURUSH~1\AppData\Local\Temp\ccmil0rU.s 			page 8


 251:Generated_Source\PSoC4/CapSense_CSHL.c ****     {
 146              		.loc 1 251 0 is_stmt 0 discriminator 1
 147 000e 002C     		cmp	r4, #0
 148 0010 F9D0     		beq	.L8
 254:Generated_Source\PSoC4/CapSense_CSHL.c ****     }
 255:Generated_Source\PSoC4/CapSense_CSHL.c **** }
 149              		.loc 1 255 0 is_stmt 1
 150              		@ sp needed
 151              	.LVL13:
 152 0012 10BD     		pop	{r4, pc}
 153              		.cfi_endproc
 154              	.LFE34:
 155              		.size	CapSense_InitializeAllBaselines, .-CapSense_InitializeAllBaselines
 156              		.section	.text.CapSense_InitializeEnabledBaselines,"ax",%progbits
 157              		.align	2
 158              		.global	CapSense_InitializeEnabledBaselines
 159              		.code	16
 160              		.thumb_func
 161              		.type	CapSense_InitializeEnabledBaselines, %function
 162              	CapSense_InitializeEnabledBaselines:
 163              	.LFB35:
 256:Generated_Source\PSoC4/CapSense_CSHL.c **** 
 257:Generated_Source\PSoC4/CapSense_CSHL.c **** 
 258:Generated_Source\PSoC4/CapSense_CSHL.c **** /*******************************************************************************
 259:Generated_Source\PSoC4/CapSense_CSHL.c **** * Function Name: CapSense_InitializeEnabledBaselines
 260:Generated_Source\PSoC4/CapSense_CSHL.c **** ********************************************************************************
 261:Generated_Source\PSoC4/CapSense_CSHL.c **** *
 262:Generated_Source\PSoC4/CapSense_CSHL.c **** * Summary:
 263:Generated_Source\PSoC4/CapSense_CSHL.c **** *  Scans all the enabled widgets and the raw count values are copied into the
 264:Generated_Source\PSoC4/CapSense_CSHL.c **** *  baseline array for all the sensors enabled in the scanning process. The baselines
 265:Generated_Source\PSoC4/CapSense_CSHL.c **** *  are initialized with zero values for sensors disabled from the scanning process.
 266:Generated_Source\PSoC4/CapSense_CSHL.c **** *  The raw data filters are initialized if enabled.
 267:Generated_Source\PSoC4/CapSense_CSHL.c **** *
 268:Generated_Source\PSoC4/CapSense_CSHL.c **** * Parameters:
 269:Generated_Source\PSoC4/CapSense_CSHL.c **** *  None
 270:Generated_Source\PSoC4/CapSense_CSHL.c **** *
 271:Generated_Source\PSoC4/CapSense_CSHL.c **** * Return:
 272:Generated_Source\PSoC4/CapSense_CSHL.c **** *  None
 273:Generated_Source\PSoC4/CapSense_CSHL.c **** *
 274:Generated_Source\PSoC4/CapSense_CSHL.c **** * Global Variables:
 275:Generated_Source\PSoC4/CapSense_CSHL.c **** *  CapSense_sensorRaw[] - used to store the sensors raw data.
 276:Generated_Source\PSoC4/CapSense_CSHL.c **** *  CapSense_sensorEnableMask[ ] - used to store bit masks of the enabled sensors.
 277:Generated_Source\PSoC4/CapSense_CSHL.c **** *
 278:Generated_Source\PSoC4/CapSense_CSHL.c **** * Side Effects:
 279:Generated_Source\PSoC4/CapSense_CSHL.c **** *  None
 280:Generated_Source\PSoC4/CapSense_CSHL.c **** *
 281:Generated_Source\PSoC4/CapSense_CSHL.c **** *******************************************************************************/
 282:Generated_Source\PSoC4/CapSense_CSHL.c **** void CapSense_InitializeEnabledBaselines(void)
 283:Generated_Source\PSoC4/CapSense_CSHL.c **** {
 164              		.loc 1 283 0
 165              		.cfi_startproc
 166              		@ args = 0, pretend = 0, frame = 0
 167              		@ frame_needed = 0, uses_anonymous_args = 0
 168 0000 10B5     		push	{r4, lr}
 169              		.cfi_def_cfa_offset 8
 170              		.cfi_offset 4, -8
 171              		.cfi_offset 14, -4
ARM GAS  C:\Users\ZURUSH~1\AppData\Local\Temp\ccmil0rU.s 			page 9


 284:Generated_Source\PSoC4/CapSense_CSHL.c ****     uint32 i;
 285:Generated_Source\PSoC4/CapSense_CSHL.c ****     uint32 isSensorEnabled;
 286:Generated_Source\PSoC4/CapSense_CSHL.c **** 
 287:Generated_Source\PSoC4/CapSense_CSHL.c ****     CapSense_ScanEnabledWidgets();
 172              		.loc 1 287 0
 173 0002 FFF7FEFF 		bl	CapSense_ScanEnabledWidgets
 174              	.LVL14:
 175              	.L10:
 288:Generated_Source\PSoC4/CapSense_CSHL.c ****     while(CapSense_IsBusy() != 0u)
 176              		.loc 1 288 0 discriminator 1
 177 0006 FFF7FEFF 		bl	CapSense_IsBusy
 178              	.LVL15:
 179 000a 0028     		cmp	r0, #0
 180 000c FBD1     		bne	.L10
 181 000e 0024     		movs	r4, #0
 182 0010 09E0     		b	.L11
 183              	.LVL16:
 184              	.L13:
 289:Generated_Source\PSoC4/CapSense_CSHL.c ****     {
 290:Generated_Source\PSoC4/CapSense_CSHL.c ****         /* Wait while sensor is busy */
 291:Generated_Source\PSoC4/CapSense_CSHL.c ****     }
 292:Generated_Source\PSoC4/CapSense_CSHL.c **** 
 293:Generated_Source\PSoC4/CapSense_CSHL.c ****     for(i = 0u; i < CapSense_TOTAL_SENSOR_COUNT; i++)
 294:Generated_Source\PSoC4/CapSense_CSHL.c ****     {
 295:Generated_Source\PSoC4/CapSense_CSHL.c ****         isSensorEnabled = CapSense_GetBitValue(CapSense_sensorEnableMask, i);
 185              		.loc 1 295 0
 186 0012 2100     		movs	r1, r4
 187 0014 0548     		ldr	r0, .L14
 188 0016 FFF7FEFF 		bl	CapSense_GetBitValue
 189              	.LVL17:
 296:Generated_Source\PSoC4/CapSense_CSHL.c **** 
 297:Generated_Source\PSoC4/CapSense_CSHL.c ****         /* Clear raw data if sensor is disabled from scanning process */
 298:Generated_Source\PSoC4/CapSense_CSHL.c ****         if(isSensorEnabled != 0u)
 190              		.loc 1 298 0
 191 001a 0028     		cmp	r0, #0
 192 001c 02D0     		beq	.L12
 299:Generated_Source\PSoC4/CapSense_CSHL.c ****         {
 300:Generated_Source\PSoC4/CapSense_CSHL.c ****             /* Initialize baselines */
 301:Generated_Source\PSoC4/CapSense_CSHL.c ****             CapSense_BaseInit(i);
 193              		.loc 1 301 0
 194 001e 2000     		movs	r0, r4
 195              	.LVL18:
 196 0020 FFF7FEFF 		bl	CapSense_BaseInit
 197              	.LVL19:
 198              	.L12:
 293:Generated_Source\PSoC4/CapSense_CSHL.c ****     {
 199              		.loc 1 293 0 discriminator 2
 200 0024 0134     		adds	r4, r4, #1
 201              	.LVL20:
 202              	.L11:
 293:Generated_Source\PSoC4/CapSense_CSHL.c ****     {
 203              		.loc 1 293 0 is_stmt 0 discriminator 1
 204 0026 002C     		cmp	r4, #0
 205 0028 F3D0     		beq	.L13
 302:Generated_Source\PSoC4/CapSense_CSHL.c ****         }
 303:Generated_Source\PSoC4/CapSense_CSHL.c ****     }
 304:Generated_Source\PSoC4/CapSense_CSHL.c **** }
ARM GAS  C:\Users\ZURUSH~1\AppData\Local\Temp\ccmil0rU.s 			page 10


 206              		.loc 1 304 0 is_stmt 1
 207              		@ sp needed
 208              	.LVL21:
 209 002a 10BD     		pop	{r4, pc}
 210              	.L15:
 211              		.align	2
 212              	.L14:
 213 002c 00000000 		.word	CapSense_sensorEnableMask
 214              		.cfi_endproc
 215              	.LFE35:
 216              		.size	CapSense_InitializeEnabledBaselines, .-CapSense_InitializeEnabledBaselines
 217              		.section	.text.CapSense_GetBaselineData,"ax",%progbits
 218              		.align	2
 219              		.global	CapSense_GetBaselineData
 220              		.code	16
 221              		.thumb_func
 222              		.type	CapSense_GetBaselineData, %function
 223              	CapSense_GetBaselineData:
 224              	.LFB40:
 305:Generated_Source\PSoC4/CapSense_CSHL.c **** 
 306:Generated_Source\PSoC4/CapSense_CSHL.c **** 
 307:Generated_Source\PSoC4/CapSense_CSHL.c **** /*******************************************************************************
 308:Generated_Source\PSoC4/CapSense_CSHL.c **** * Function Name: CapSense_UpdateBaselineNoThreshold
 309:Generated_Source\PSoC4/CapSense_CSHL.c **** ********************************************************************************
 310:Generated_Source\PSoC4/CapSense_CSHL.c **** *
 311:Generated_Source\PSoC4/CapSense_CSHL.c **** * Summary:
 312:Generated_Source\PSoC4/CapSense_CSHL.c **** *  Updates the CapSense_sensorBaseline[sensor] array element using the
 313:Generated_Source\PSoC4/CapSense_CSHL.c **** *  LP filter with k = 256. The signal calculates the difference of count by
 314:Generated_Source\PSoC4/CapSense_CSHL.c **** *  subtracting the previous baseline from the current raw count value and stores
 315:Generated_Source\PSoC4/CapSense_CSHL.c **** *  it in CapSense_sensorSignal[sensor].
 316:Generated_Source\PSoC4/CapSense_CSHL.c **** *  If the auto reset option is enabled, the baseline updated regards the noise threshold.
 317:Generated_Source\PSoC4/CapSense_CSHL.c **** *  If the auto reset option is disabled, the baseline stops updating; baseline is loaded
 318:Generated_Source\PSoC4/CapSense_CSHL.c **** *  with a raw count value if a signal is greater than zero and if signal is less
 319:Generated_Source\PSoC4/CapSense_CSHL.c **** *  than noise threshold.
 320:Generated_Source\PSoC4/CapSense_CSHL.c **** *  Raw data filters are applied to the values if enabled before baseline
 321:Generated_Source\PSoC4/CapSense_CSHL.c **** *  calculation.
 322:Generated_Source\PSoC4/CapSense_CSHL.c **** *
 323:Generated_Source\PSoC4/CapSense_CSHL.c **** *  This API does not update the thresholds in the Smartsense Mode.
 324:Generated_Source\PSoC4/CapSense_CSHL.c **** *
 325:Generated_Source\PSoC4/CapSense_CSHL.c **** * Parameters:
 326:Generated_Source\PSoC4/CapSense_CSHL.c **** *  sensor:  Sensor number.
 327:Generated_Source\PSoC4/CapSense_CSHL.c **** *
 328:Generated_Source\PSoC4/CapSense_CSHL.c **** * Return:
 329:Generated_Source\PSoC4/CapSense_CSHL.c **** *  None
 330:Generated_Source\PSoC4/CapSense_CSHL.c **** *
 331:Generated_Source\PSoC4/CapSense_CSHL.c **** * Global Variables:
 332:Generated_Source\PSoC4/CapSense_CSHL.c **** *  CapSense_widgetNumber[]  - stores widget numbers.
 333:Generated_Source\PSoC4/CapSense_CSHL.c **** *  CapSense_sensorBaseline[]    - used to store baseline value.
 334:Generated_Source\PSoC4/CapSense_CSHL.c **** *  CapSense_sensorBaselineLow[] - used to store fraction byte of
 335:Generated_Source\PSoC4/CapSense_CSHL.c **** *  baseline value.
 336:Generated_Source\PSoC4/CapSense_CSHL.c **** *  CapSense_sensorSignal[]      - used to store difference between
 337:Generated_Source\PSoC4/CapSense_CSHL.c **** *  current value of raw data and previous value of baseline.
 338:Generated_Source\PSoC4/CapSense_CSHL.c **** *  CapSense_rawFilterData1[]    - used to store previous sample of
 339:Generated_Source\PSoC4/CapSense_CSHL.c **** *  any enabled raw data filter.
 340:Generated_Source\PSoC4/CapSense_CSHL.c **** *  CapSense_rawFilterData2[]    - used to store before previous sample
 341:Generated_Source\PSoC4/CapSense_CSHL.c **** *  of enabled raw data filter. Only required for median or average filters.
 342:Generated_Source\PSoC4/CapSense_CSHL.c **** *
ARM GAS  C:\Users\ZURUSH~1\AppData\Local\Temp\ccmil0rU.s 			page 11


 343:Generated_Source\PSoC4/CapSense_CSHL.c **** * Side Effects:
 344:Generated_Source\PSoC4/CapSense_CSHL.c **** *  None
 345:Generated_Source\PSoC4/CapSense_CSHL.c **** *
 346:Generated_Source\PSoC4/CapSense_CSHL.c **** *******************************************************************************/
 347:Generated_Source\PSoC4/CapSense_CSHL.c **** void CapSense_UpdateBaselineNoThreshold(uint32 sensor)
 348:Generated_Source\PSoC4/CapSense_CSHL.c **** {
 349:Generated_Source\PSoC4/CapSense_CSHL.c ****     uint32 calc;
 350:Generated_Source\PSoC4/CapSense_CSHL.c ****     uint32 sign;
 351:Generated_Source\PSoC4/CapSense_CSHL.c ****     uint16 tempRaw;
 352:Generated_Source\PSoC4/CapSense_CSHL.c ****     uint16 filteredRawData;
 353:Generated_Source\PSoC4/CapSense_CSHL.c ****     uint8 widget = CapSense_widgetNumber[sensor];
 354:Generated_Source\PSoC4/CapSense_CSHL.c ****     uint8 noiseThreshold;
 355:Generated_Source\PSoC4/CapSense_CSHL.c **** 
 356:Generated_Source\PSoC4/CapSense_CSHL.c ****     #if (CapSense_TOTAL_GENERICS_COUNT)
 357:Generated_Source\PSoC4/CapSense_CSHL.c ****         /* Exclude generic widget */
 358:Generated_Source\PSoC4/CapSense_CSHL.c ****         if(widget < CapSense_END_OF_WIDGETS_INDEX)
 359:Generated_Source\PSoC4/CapSense_CSHL.c ****         {
 360:Generated_Source\PSoC4/CapSense_CSHL.c ****     #endif  /* CapSense_TOTAL_GENERICS_COUNT */
 361:Generated_Source\PSoC4/CapSense_CSHL.c **** 
 362:Generated_Source\PSoC4/CapSense_CSHL.c ****     noiseThreshold = CapSense_noiseThreshold[widget];
 363:Generated_Source\PSoC4/CapSense_CSHL.c ****     filteredRawData = CapSense_sensorRaw[sensor];
 364:Generated_Source\PSoC4/CapSense_CSHL.c **** 
 365:Generated_Source\PSoC4/CapSense_CSHL.c ****     #if (CapSense_RAW_FILTER_MASK != 0u)
 366:Generated_Source\PSoC4/CapSense_CSHL.c ****     if(CapSense_enableRawFilters != 0u)
 367:Generated_Source\PSoC4/CapSense_CSHL.c ****     {
 368:Generated_Source\PSoC4/CapSense_CSHL.c ****         #if (CapSense_RAW_FILTER_MASK & CapSense_MEDIAN_FILTER)
 369:Generated_Source\PSoC4/CapSense_CSHL.c ****             tempRaw = filteredRawData;
 370:Generated_Source\PSoC4/CapSense_CSHL.c ****             filteredRawData = CapSense_MedianFilter(filteredRawData, CapSense_rawFilterData1[sensor
 371:Generated_Source\PSoC4/CapSense_CSHL.c ****                                                             CapSense_rawFilterData2[sensor]);
 372:Generated_Source\PSoC4/CapSense_CSHL.c ****             CapSense_rawFilterData2[sensor] = CapSense_rawFilterData1[sensor];
 373:Generated_Source\PSoC4/CapSense_CSHL.c ****             CapSense_rawFilterData1[sensor] = tempRaw;
 374:Generated_Source\PSoC4/CapSense_CSHL.c **** 
 375:Generated_Source\PSoC4/CapSense_CSHL.c ****         #elif (CapSense_RAW_FILTER_MASK & CapSense_AVERAGING_FILTER)
 376:Generated_Source\PSoC4/CapSense_CSHL.c ****             tempRaw = filteredRawData;
 377:Generated_Source\PSoC4/CapSense_CSHL.c ****             filteredRawData = CapSense_AveragingFilter(filteredRawData, CapSense_rawFilterData1[sen
 378:Generated_Source\PSoC4/CapSense_CSHL.c ****                                                                CapSense_rawFilterData2[sensor]);
 379:Generated_Source\PSoC4/CapSense_CSHL.c ****             CapSense_rawFilterData2[sensor] = CapSense_rawFilterData1[sensor];
 380:Generated_Source\PSoC4/CapSense_CSHL.c ****             CapSense_rawFilterData1[sensor] = tempRaw;
 381:Generated_Source\PSoC4/CapSense_CSHL.c **** 
 382:Generated_Source\PSoC4/CapSense_CSHL.c ****         #elif (CapSense_RAW_FILTER_MASK & CapSense_IIR2_FILTER)
 383:Generated_Source\PSoC4/CapSense_CSHL.c ****             filteredRawData = CapSense_IIR2Filter(filteredRawData, CapSense_rawFilterData1[sensor])
 384:Generated_Source\PSoC4/CapSense_CSHL.c ****             CapSense_rawFilterData1[sensor] = filteredRawData;
 385:Generated_Source\PSoC4/CapSense_CSHL.c **** 
 386:Generated_Source\PSoC4/CapSense_CSHL.c ****         #elif (CapSense_RAW_FILTER_MASK & CapSense_IIR4_FILTER)
 387:Generated_Source\PSoC4/CapSense_CSHL.c ****             filteredRawData = CapSense_IIR4Filter(filteredRawData, CapSense_rawFilterData1[sensor])
 388:Generated_Source\PSoC4/CapSense_CSHL.c ****             CapSense_rawFilterData1[sensor] = filteredRawData;
 389:Generated_Source\PSoC4/CapSense_CSHL.c **** 
 390:Generated_Source\PSoC4/CapSense_CSHL.c ****         #elif (CapSense_RAW_FILTER_MASK & CapSense_JITTER_FILTER)
 391:Generated_Source\PSoC4/CapSense_CSHL.c ****             filteredRawData = CapSense_JitterFilter(filteredRawData, CapSense_rawFilterData1[sensor
 392:Generated_Source\PSoC4/CapSense_CSHL.c ****             CapSense_rawFilterData1[sensor] = filteredRawData;
 393:Generated_Source\PSoC4/CapSense_CSHL.c **** 
 394:Generated_Source\PSoC4/CapSense_CSHL.c ****         #elif (CapSense_RAW_FILTER_MASK & CapSense_IIR8_FILTER)
 395:Generated_Source\PSoC4/CapSense_CSHL.c ****             filteredRawData = CapSense_IIR8Filter(filteredRawData, CapSense_rawFilterData1[sensor])
 396:Generated_Source\PSoC4/CapSense_CSHL.c ****             CapSense_rawFilterData1[sensor] = filteredRawData;
 397:Generated_Source\PSoC4/CapSense_CSHL.c **** 
 398:Generated_Source\PSoC4/CapSense_CSHL.c ****         #elif (CapSense_RAW_FILTER_MASK & CapSense_IIR16_FILTER)
 399:Generated_Source\PSoC4/CapSense_CSHL.c ****             filteredRawData = CapSense_IIR16Filter(filteredRawData, CapSense_rawFilterData1[sensor]
ARM GAS  C:\Users\ZURUSH~1\AppData\Local\Temp\ccmil0rU.s 			page 12


 400:Generated_Source\PSoC4/CapSense_CSHL.c ****             CapSense_rawFilterData1[sensor] = filteredRawData;
 401:Generated_Source\PSoC4/CapSense_CSHL.c **** 
 402:Generated_Source\PSoC4/CapSense_CSHL.c ****         #else
 403:Generated_Source\PSoC4/CapSense_CSHL.c ****             /* No Raw filters */
 404:Generated_Source\PSoC4/CapSense_CSHL.c ****         #endif  /* (CapSense_RAW_FILTER_MASK & CapSense_MEDIAN_FILTER) */
 405:Generated_Source\PSoC4/CapSense_CSHL.c ****     }
 406:Generated_Source\PSoC4/CapSense_CSHL.c ****     #endif  /* (CapSense_RAW_FILTER_MASK != 0u) */
 407:Generated_Source\PSoC4/CapSense_CSHL.c **** 
 408:Generated_Source\PSoC4/CapSense_CSHL.c ****     #if (CapSense_TUNING_METHOD == CapSense__TUNING_AUTO)
 409:Generated_Source\PSoC4/CapSense_CSHL.c ****         MeasureNoiseEnvelope_P4_v2_60(&CapSense_config, (uint8)sensor, CapSense_sensorRaw);
 410:Generated_Source\PSoC4/CapSense_CSHL.c ****     #endif /* (CapSense_TUNING_METHOD == CapSense__TUNING_AUTO) */
 411:Generated_Source\PSoC4/CapSense_CSHL.c **** 
 412:Generated_Source\PSoC4/CapSense_CSHL.c ****     /* Baseline calculation */
 413:Generated_Source\PSoC4/CapSense_CSHL.c ****     /* Calculate difference RawData[cur] - Baseline[prev] */
 414:Generated_Source\PSoC4/CapSense_CSHL.c ****     if(filteredRawData >= CapSense_sensorBaseline[sensor])
 415:Generated_Source\PSoC4/CapSense_CSHL.c ****     {
 416:Generated_Source\PSoC4/CapSense_CSHL.c ****         CapSense_lowBaselineResetCnt[sensor] = 0u;
 417:Generated_Source\PSoC4/CapSense_CSHL.c ****         tempRaw = filteredRawData - CapSense_sensorBaseline[sensor];
 418:Generated_Source\PSoC4/CapSense_CSHL.c ****         sign = 1u;    /* Positive difference - Calculate the Signal */
 419:Generated_Source\PSoC4/CapSense_CSHL.c ****     }
 420:Generated_Source\PSoC4/CapSense_CSHL.c ****     else
 421:Generated_Source\PSoC4/CapSense_CSHL.c ****     {
 422:Generated_Source\PSoC4/CapSense_CSHL.c ****         tempRaw = CapSense_sensorBaseline[sensor] - filteredRawData;
 423:Generated_Source\PSoC4/CapSense_CSHL.c ****         sign = 0u;    /* Negative difference - Do NOT calculate the Signal */
 424:Generated_Source\PSoC4/CapSense_CSHL.c ****     }
 425:Generated_Source\PSoC4/CapSense_CSHL.c **** 
 426:Generated_Source\PSoC4/CapSense_CSHL.c ****     #if (CapSense_TUNING_METHOD != CapSense__TUNING_NONE)
 427:Generated_Source\PSoC4/CapSense_CSHL.c ****     if((sign == 0u) && (tempRaw > (uint16) CapSense_negativeNoiseThreshold[widget]))
 428:Generated_Source\PSoC4/CapSense_CSHL.c ****     #else
 429:Generated_Source\PSoC4/CapSense_CSHL.c ****     if((sign == 0u) && (tempRaw > (uint16) CapSense_NEGATIVE_NOISE_THRESHOLD))
 430:Generated_Source\PSoC4/CapSense_CSHL.c ****     #endif /* (CapSense_TUNING_METHOD != CapSense__TUNING_NONE) */
 431:Generated_Source\PSoC4/CapSense_CSHL.c ****     {
 432:Generated_Source\PSoC4/CapSense_CSHL.c ****         if(CapSense_lowBaselineResetCnt[sensor] >= CapSense_lowBaselineReset[sensor])
 433:Generated_Source\PSoC4/CapSense_CSHL.c ****         {
 434:Generated_Source\PSoC4/CapSense_CSHL.c ****             CapSense_BaseInit(sensor);
 435:Generated_Source\PSoC4/CapSense_CSHL.c ****             CapSense_lowBaselineResetCnt[sensor] = 0u;
 436:Generated_Source\PSoC4/CapSense_CSHL.c ****         }
 437:Generated_Source\PSoC4/CapSense_CSHL.c ****         else
 438:Generated_Source\PSoC4/CapSense_CSHL.c ****         {
 439:Generated_Source\PSoC4/CapSense_CSHL.c ****             CapSense_lowBaselineResetCnt[sensor]++;
 440:Generated_Source\PSoC4/CapSense_CSHL.c ****         }
 441:Generated_Source\PSoC4/CapSense_CSHL.c ****     }
 442:Generated_Source\PSoC4/CapSense_CSHL.c ****     else
 443:Generated_Source\PSoC4/CapSense_CSHL.c ****     {
 444:Generated_Source\PSoC4/CapSense_CSHL.c ****         #if (CapSense_AUTO_RESET == CapSense_AUTO_RESET_DISABLE)
 445:Generated_Source\PSoC4/CapSense_CSHL.c ****         #if (CapSense_TUNING_METHOD != CapSense__TUNING_NONE)
 446:Generated_Source\PSoC4/CapSense_CSHL.c ****             /* Update Baseline if lower than noiseThreshold */
 447:Generated_Source\PSoC4/CapSense_CSHL.c ****             if ( (tempRaw <= noiseThreshold) ||
 448:Generated_Source\PSoC4/CapSense_CSHL.c ****              ((tempRaw < (uint16) CapSense_negativeNoiseThreshold[widget])
 449:Generated_Source\PSoC4/CapSense_CSHL.c ****                && (sign == 0u)))
 450:Generated_Source\PSoC4/CapSense_CSHL.c ****             {
 451:Generated_Source\PSoC4/CapSense_CSHL.c ****         #else
 452:Generated_Source\PSoC4/CapSense_CSHL.c ****             /* Update Baseline if lower than noiseThreshold */
 453:Generated_Source\PSoC4/CapSense_CSHL.c ****             if ( (tempRaw <= noiseThreshold) ||
 454:Generated_Source\PSoC4/CapSense_CSHL.c ****                  ((tempRaw < (uint16) CapSense_NEGATIVE_NOISE_THRESHOLD)
 455:Generated_Source\PSoC4/CapSense_CSHL.c ****                    && (sign == 0u)))
 456:Generated_Source\PSoC4/CapSense_CSHL.c ****             {
ARM GAS  C:\Users\ZURUSH~1\AppData\Local\Temp\ccmil0rU.s 			page 13


 457:Generated_Source\PSoC4/CapSense_CSHL.c ****         #endif /* (CapSense_TUNING_METHOD != CapSense__TUNING_NONE) */
 458:Generated_Source\PSoC4/CapSense_CSHL.c ****         #endif /* (CapSense_AUTO_RESET == CapSense_AUTO_RESET_DISABLE) */
 459:Generated_Source\PSoC4/CapSense_CSHL.c ****                 /* Make full Baseline 23 bits */
 460:Generated_Source\PSoC4/CapSense_CSHL.c ****                 calc = (uint32) CapSense_sensorBaseline[sensor] << 8u;
 461:Generated_Source\PSoC4/CapSense_CSHL.c ****                 calc |= (uint32) CapSense_sensorBaselineLow[sensor];
 462:Generated_Source\PSoC4/CapSense_CSHL.c **** 
 463:Generated_Source\PSoC4/CapSense_CSHL.c ****                 /* Add Raw Data to Baseline */
 464:Generated_Source\PSoC4/CapSense_CSHL.c ****                 calc += filteredRawData;
 465:Generated_Source\PSoC4/CapSense_CSHL.c **** 
 466:Generated_Source\PSoC4/CapSense_CSHL.c ****                 /* Sub the high Baseline */
 467:Generated_Source\PSoC4/CapSense_CSHL.c ****                 calc -= CapSense_sensorBaseline[sensor];
 468:Generated_Source\PSoC4/CapSense_CSHL.c **** 
 469:Generated_Source\PSoC4/CapSense_CSHL.c ****                 /* Put Baseline and BaselineLow */
 470:Generated_Source\PSoC4/CapSense_CSHL.c ****                 CapSense_sensorBaseline[sensor] = ((uint16) (calc >> 8u));
 471:Generated_Source\PSoC4/CapSense_CSHL.c ****                 CapSense_sensorBaselineLow[sensor] = ((uint8) calc);
 472:Generated_Source\PSoC4/CapSense_CSHL.c **** 
 473:Generated_Source\PSoC4/CapSense_CSHL.c ****                 CapSense_lowBaselineResetCnt[sensor] = 0u;
 474:Generated_Source\PSoC4/CapSense_CSHL.c ****         #if (CapSense_AUTO_RESET == CapSense_AUTO_RESET_DISABLE)
 475:Generated_Source\PSoC4/CapSense_CSHL.c ****             }
 476:Generated_Source\PSoC4/CapSense_CSHL.c ****         #endif /* (CapSense_AUTO_RESET == CapSense_AUTO_RESET_DISABLE) */
 477:Generated_Source\PSoC4/CapSense_CSHL.c ****     }
 478:Generated_Source\PSoC4/CapSense_CSHL.c **** 
 479:Generated_Source\PSoC4/CapSense_CSHL.c ****     /* Calculate Signal if positive difference > noiseThreshold */
 480:Generated_Source\PSoC4/CapSense_CSHL.c ****     if((tempRaw > (uint16) noiseThreshold) && (sign != 0u))
 481:Generated_Source\PSoC4/CapSense_CSHL.c ****     {
 482:Generated_Source\PSoC4/CapSense_CSHL.c ****         #if (CapSense_SIGNAL_SIZE == CapSense_SIGNAL_SIZE_UINT8)
 483:Generated_Source\PSoC4/CapSense_CSHL.c ****             /* Over flow defence for uint8 */
 484:Generated_Source\PSoC4/CapSense_CSHL.c ****             if (tempRaw > 0xFFu)
 485:Generated_Source\PSoC4/CapSense_CSHL.c ****             {
 486:Generated_Source\PSoC4/CapSense_CSHL.c ****                 CapSense_sensorSignal[sensor] = 0xFFu;
 487:Generated_Source\PSoC4/CapSense_CSHL.c ****             }
 488:Generated_Source\PSoC4/CapSense_CSHL.c ****             else
 489:Generated_Source\PSoC4/CapSense_CSHL.c ****             {
 490:Generated_Source\PSoC4/CapSense_CSHL.c ****                 CapSense_sensorSignal[sensor] = ((uint8) tempRaw);
 491:Generated_Source\PSoC4/CapSense_CSHL.c ****             }
 492:Generated_Source\PSoC4/CapSense_CSHL.c ****         #else
 493:Generated_Source\PSoC4/CapSense_CSHL.c ****             CapSense_sensorSignal[sensor] = ((uint16) tempRaw);
 494:Generated_Source\PSoC4/CapSense_CSHL.c ****         #endif  /* (CapSense_SIGNAL_SIZE == CapSense_SIGNAL_SIZE_UINT8) */
 495:Generated_Source\PSoC4/CapSense_CSHL.c ****     }
 496:Generated_Source\PSoC4/CapSense_CSHL.c ****     else
 497:Generated_Source\PSoC4/CapSense_CSHL.c ****     {
 498:Generated_Source\PSoC4/CapSense_CSHL.c ****         /* Signal is zero */
 499:Generated_Source\PSoC4/CapSense_CSHL.c ****         CapSense_sensorSignal[sensor] = 0u;
 500:Generated_Source\PSoC4/CapSense_CSHL.c ****     }
 501:Generated_Source\PSoC4/CapSense_CSHL.c **** 
 502:Generated_Source\PSoC4/CapSense_CSHL.c ****     #if (CapSense_TOTAL_GENERICS_COUNT)
 503:Generated_Source\PSoC4/CapSense_CSHL.c ****         /* Exclude generic widget */
 504:Generated_Source\PSoC4/CapSense_CSHL.c ****         }
 505:Generated_Source\PSoC4/CapSense_CSHL.c ****     #endif  /* CapSense_TOTAL_GENERICS_COUNT */
 506:Generated_Source\PSoC4/CapSense_CSHL.c **** }
 507:Generated_Source\PSoC4/CapSense_CSHL.c **** 
 508:Generated_Source\PSoC4/CapSense_CSHL.c **** 
 509:Generated_Source\PSoC4/CapSense_CSHL.c **** /*******************************************************************************
 510:Generated_Source\PSoC4/CapSense_CSHL.c **** * Function Name: CapSense_UpdateSensorBaseline
 511:Generated_Source\PSoC4/CapSense_CSHL.c **** ********************************************************************************
 512:Generated_Source\PSoC4/CapSense_CSHL.c **** *
 513:Generated_Source\PSoC4/CapSense_CSHL.c **** * Summary:
ARM GAS  C:\Users\ZURUSH~1\AppData\Local\Temp\ccmil0rU.s 			page 14


 514:Generated_Source\PSoC4/CapSense_CSHL.c **** *  Updates the CapSense_sensorBaseline[sensor] array element using the
 515:Generated_Source\PSoC4/CapSense_CSHL.c **** *  LP filter with k = 256. The signal calculates the difference of count by
 516:Generated_Source\PSoC4/CapSense_CSHL.c **** *  subtracting the previous baseline from the current raw count value and stores
 517:Generated_Source\PSoC4/CapSense_CSHL.c **** *  it in CapSense_sensorSignal[sensor].
 518:Generated_Source\PSoC4/CapSense_CSHL.c **** *  If the auto reset option is enabled, the baseline updated regards the noise threshold.
 519:Generated_Source\PSoC4/CapSense_CSHL.c **** *  If the auto reset option is disabled, the baseline stops updating.
 520:Generated_Source\PSoC4/CapSense_CSHL.c **** *  Baseline is loaded with raw count value if a signal is greater than zero and
 521:Generated_Source\PSoC4/CapSense_CSHL.c **** *  if signal is less than noise threshold.
 522:Generated_Source\PSoC4/CapSense_CSHL.c **** *  Raw data filters are applied to the values if enabled before baseline
 523:Generated_Source\PSoC4/CapSense_CSHL.c **** *  calculation.
 524:Generated_Source\PSoC4/CapSense_CSHL.c **** *  This API updates the thresholds in the Smartsense Mode.
 525:Generated_Source\PSoC4/CapSense_CSHL.c **** *
 526:Generated_Source\PSoC4/CapSense_CSHL.c **** * Parameters:
 527:Generated_Source\PSoC4/CapSense_CSHL.c **** *  sensor:  Sensor number.
 528:Generated_Source\PSoC4/CapSense_CSHL.c **** *
 529:Generated_Source\PSoC4/CapSense_CSHL.c **** * Return:
 530:Generated_Source\PSoC4/CapSense_CSHL.c **** *  None
 531:Generated_Source\PSoC4/CapSense_CSHL.c **** *
 532:Generated_Source\PSoC4/CapSense_CSHL.c **** * Global Variables:
 533:Generated_Source\PSoC4/CapSense_CSHL.c **** *  CapSense_widgetNumber[]  - stores widget numbers.
 534:Generated_Source\PSoC4/CapSense_CSHL.c **** *
 535:Generated_Source\PSoC4/CapSense_CSHL.c **** * Side Effects:
 536:Generated_Source\PSoC4/CapSense_CSHL.c **** *  None
 537:Generated_Source\PSoC4/CapSense_CSHL.c **** *
 538:Generated_Source\PSoC4/CapSense_CSHL.c **** *******************************************************************************/
 539:Generated_Source\PSoC4/CapSense_CSHL.c ****  void CapSense_UpdateSensorBaseline(uint32 sensor)
 540:Generated_Source\PSoC4/CapSense_CSHL.c **** {
 541:Generated_Source\PSoC4/CapSense_CSHL.c ****     #if (CapSense_TOTAL_GENERICS_COUNT)
 542:Generated_Source\PSoC4/CapSense_CSHL.c ****         uint32 widget;
 543:Generated_Source\PSoC4/CapSense_CSHL.c **** 
 544:Generated_Source\PSoC4/CapSense_CSHL.c ****         widget = CapSense_widgetNumber[sensor];
 545:Generated_Source\PSoC4/CapSense_CSHL.c **** 
 546:Generated_Source\PSoC4/CapSense_CSHL.c ****         /* Exclude generic widget */
 547:Generated_Source\PSoC4/CapSense_CSHL.c ****         if(widget < CapSense_END_OF_WIDGETS_INDEX)
 548:Generated_Source\PSoC4/CapSense_CSHL.c ****         {
 549:Generated_Source\PSoC4/CapSense_CSHL.c ****     #endif  /* CapSense_TOTAL_GENERICS_COUNT */
 550:Generated_Source\PSoC4/CapSense_CSHL.c **** 
 551:Generated_Source\PSoC4/CapSense_CSHL.c ****     #if (CapSense_TUNING_METHOD == CapSense__TUNING_AUTO)
 552:Generated_Source\PSoC4/CapSense_CSHL.c ****         CapSense_UpdateThresholds(sensor);
 553:Generated_Source\PSoC4/CapSense_CSHL.c ****     #endif /* (CapSense_TUNING_METHOD == CapSense__TUNING_AUTO) */
 554:Generated_Source\PSoC4/CapSense_CSHL.c **** 
 555:Generated_Source\PSoC4/CapSense_CSHL.c ****     CapSense_UpdateBaselineNoThreshold(sensor);
 556:Generated_Source\PSoC4/CapSense_CSHL.c **** 
 557:Generated_Source\PSoC4/CapSense_CSHL.c ****     #if (CapSense_TOTAL_GENERICS_COUNT)
 558:Generated_Source\PSoC4/CapSense_CSHL.c ****         /* Exclude generic widget */
 559:Generated_Source\PSoC4/CapSense_CSHL.c ****         }
 560:Generated_Source\PSoC4/CapSense_CSHL.c ****     #endif  /* CapSense_TOTAL_GENERICS_COUNT */
 561:Generated_Source\PSoC4/CapSense_CSHL.c **** }
 562:Generated_Source\PSoC4/CapSense_CSHL.c **** 
 563:Generated_Source\PSoC4/CapSense_CSHL.c **** 
 564:Generated_Source\PSoC4/CapSense_CSHL.c **** /*******************************************************************************
 565:Generated_Source\PSoC4/CapSense_CSHL.c **** * Function Name: CapSense_UpdateEnabledBaselines
 566:Generated_Source\PSoC4/CapSense_CSHL.c **** ********************************************************************************
 567:Generated_Source\PSoC4/CapSense_CSHL.c **** *
 568:Generated_Source\PSoC4/CapSense_CSHL.c **** * Summary:
 569:Generated_Source\PSoC4/CapSense_CSHL.c **** *  Checks CapSense_sensorEnableMask[] array and calls the
 570:Generated_Source\PSoC4/CapSense_CSHL.c **** *  CapSense_UpdateSensorBaseline function to update the baselines
ARM GAS  C:\Users\ZURUSH~1\AppData\Local\Temp\ccmil0rU.s 			page 15


 571:Generated_Source\PSoC4/CapSense_CSHL.c **** *  for the enabled sensors.
 572:Generated_Source\PSoC4/CapSense_CSHL.c **** *
 573:Generated_Source\PSoC4/CapSense_CSHL.c **** * Parameters:
 574:Generated_Source\PSoC4/CapSense_CSHL.c **** *  None
 575:Generated_Source\PSoC4/CapSense_CSHL.c **** *
 576:Generated_Source\PSoC4/CapSense_CSHL.c **** * Return:
 577:Generated_Source\PSoC4/CapSense_CSHL.c **** *  None
 578:Generated_Source\PSoC4/CapSense_CSHL.c **** *
 579:Generated_Source\PSoC4/CapSense_CSHL.c **** * Global Variables:
 580:Generated_Source\PSoC4/CapSense_CSHL.c **** *  CapSense_sensorEnableMask[] - used to store the sensor scanning
 581:Generated_Source\PSoC4/CapSense_CSHL.c **** *  state.
 582:Generated_Source\PSoC4/CapSense_CSHL.c **** *  CapSense_sensorEnableMask[0] contains the masked bits for sensors
 583:Generated_Source\PSoC4/CapSense_CSHL.c **** *   0 through 7 (sensor 0 is bit 0, sensor 1 is bit 1).
 584:Generated_Source\PSoC4/CapSense_CSHL.c **** *  CapSense_sensorEnableMask[1] contains the masked bits for
 585:Generated_Source\PSoC4/CapSense_CSHL.c **** *  sensors 8 through 15 (if needed), and so on.
 586:Generated_Source\PSoC4/CapSense_CSHL.c **** *  0 - sensor doesn't scan by CapSense_ScanEnabledWidgets().
 587:Generated_Source\PSoC4/CapSense_CSHL.c **** *  1 - sensor scans by CapSense_ScanEnabledWidgets().
 588:Generated_Source\PSoC4/CapSense_CSHL.c **** *
 589:Generated_Source\PSoC4/CapSense_CSHL.c **** * Side Effects:
 590:Generated_Source\PSoC4/CapSense_CSHL.c **** *  None
 591:Generated_Source\PSoC4/CapSense_CSHL.c **** *
 592:Generated_Source\PSoC4/CapSense_CSHL.c **** *******************************************************************************/
 593:Generated_Source\PSoC4/CapSense_CSHL.c ****  void CapSense_UpdateEnabledBaselines(void)
 594:Generated_Source\PSoC4/CapSense_CSHL.c **** {
 595:Generated_Source\PSoC4/CapSense_CSHL.c ****     uint32 i;
 596:Generated_Source\PSoC4/CapSense_CSHL.c ****     uint32 isSensorEnabled;
 597:Generated_Source\PSoC4/CapSense_CSHL.c **** 
 598:Generated_Source\PSoC4/CapSense_CSHL.c ****     for(i = 0u; i < CapSense_TOTAL_SENSOR_COUNT; i++)
 599:Generated_Source\PSoC4/CapSense_CSHL.c ****     {
 600:Generated_Source\PSoC4/CapSense_CSHL.c ****         isSensorEnabled = CapSense_GetBitValue(CapSense_sensorEnableMask, i);
 601:Generated_Source\PSoC4/CapSense_CSHL.c **** 
 602:Generated_Source\PSoC4/CapSense_CSHL.c ****         if(0u != isSensorEnabled)
 603:Generated_Source\PSoC4/CapSense_CSHL.c ****         {
 604:Generated_Source\PSoC4/CapSense_CSHL.c ****             CapSense_UpdateSensorBaseline(i);
 605:Generated_Source\PSoC4/CapSense_CSHL.c ****         }
 606:Generated_Source\PSoC4/CapSense_CSHL.c ****     }
 607:Generated_Source\PSoC4/CapSense_CSHL.c **** }
 608:Generated_Source\PSoC4/CapSense_CSHL.c **** 
 609:Generated_Source\PSoC4/CapSense_CSHL.c **** /*******************************************************************************
 610:Generated_Source\PSoC4/CapSense_CSHL.c **** * Function Name: CapSense_UpdateWidgetBaseline
 611:Generated_Source\PSoC4/CapSense_CSHL.c **** ********************************************************************************
 612:Generated_Source\PSoC4/CapSense_CSHL.c **** *
 613:Generated_Source\PSoC4/CapSense_CSHL.c **** * Summary:
 614:Generated_Source\PSoC4/CapSense_CSHL.c **** *  Checks CapSense_sensorEnableMask[] array and calls the
 615:Generated_Source\PSoC4/CapSense_CSHL.c **** *  CapSense_UpdateSensorBaseline function to update the baselines
 616:Generated_Source\PSoC4/CapSense_CSHL.c **** *  for the enabled sensors that belong to widget.
 617:Generated_Source\PSoC4/CapSense_CSHL.c **** *
 618:Generated_Source\PSoC4/CapSense_CSHL.c **** * Parameters:
 619:Generated_Source\PSoC4/CapSense_CSHL.c **** *  widget:  Widget number.
 620:Generated_Source\PSoC4/CapSense_CSHL.c **** *
 621:Generated_Source\PSoC4/CapSense_CSHL.c **** * Return:
 622:Generated_Source\PSoC4/CapSense_CSHL.c **** *  None
 623:Generated_Source\PSoC4/CapSense_CSHL.c **** *
 624:Generated_Source\PSoC4/CapSense_CSHL.c **** * Global Variables:
 625:Generated_Source\PSoC4/CapSense_CSHL.c **** *  CapSense_sensorEnableMask[] - used to store the sensor scanning
 626:Generated_Source\PSoC4/CapSense_CSHL.c **** *  state.
 627:Generated_Source\PSoC4/CapSense_CSHL.c **** *  CapSense_sensorEnableMask[0] contains the masked bits for sensors
ARM GAS  C:\Users\ZURUSH~1\AppData\Local\Temp\ccmil0rU.s 			page 16


 628:Generated_Source\PSoC4/CapSense_CSHL.c **** *   0 through 7 (sensor 0 is bit 0, sensor 1 is bit 1).
 629:Generated_Source\PSoC4/CapSense_CSHL.c **** *  CapSense_sensorEnableMask[1] contains the masked bits for
 630:Generated_Source\PSoC4/CapSense_CSHL.c **** *  sensors 8 through 15 (if needed), and so on.
 631:Generated_Source\PSoC4/CapSense_CSHL.c **** *  0 - sensor doesn't scan by CapSense_ScanEnabledWidgets().
 632:Generated_Source\PSoC4/CapSense_CSHL.c **** *  1 - sensor scans by CapSense_ScanEnabledWidgets().
 633:Generated_Source\PSoC4/CapSense_CSHL.c **** *
 634:Generated_Source\PSoC4/CapSense_CSHL.c **** * Side Effects:
 635:Generated_Source\PSoC4/CapSense_CSHL.c **** *  None
 636:Generated_Source\PSoC4/CapSense_CSHL.c **** *
 637:Generated_Source\PSoC4/CapSense_CSHL.c **** *******************************************************************************/
 638:Generated_Source\PSoC4/CapSense_CSHL.c **** void CapSense_UpdateWidgetBaseline(uint32 widget)
 639:Generated_Source\PSoC4/CapSense_CSHL.c **** {
 640:Generated_Source\PSoC4/CapSense_CSHL.c ****     uint32 sensorsPerWidget;
 641:Generated_Source\PSoC4/CapSense_CSHL.c ****     uint32 firstSensor;
 642:Generated_Source\PSoC4/CapSense_CSHL.c ****     uint32 lastSensor;
 643:Generated_Source\PSoC4/CapSense_CSHL.c ****     uint32 i;
 644:Generated_Source\PSoC4/CapSense_CSHL.c ****     uint32 isSensorEnabled;
 645:Generated_Source\PSoC4/CapSense_CSHL.c **** 
 646:Generated_Source\PSoC4/CapSense_CSHL.c ****     /* Get number of sensors in widget */
 647:Generated_Source\PSoC4/CapSense_CSHL.c ****     sensorsPerWidget = CapSense_numberOfSensors[widget];
 648:Generated_Source\PSoC4/CapSense_CSHL.c **** 
 649:Generated_Source\PSoC4/CapSense_CSHL.c ****     /* Get first sensor in widget */
 650:Generated_Source\PSoC4/CapSense_CSHL.c ****     firstSensor = CapSense_rawDataIndex[widget];
 651:Generated_Source\PSoC4/CapSense_CSHL.c **** 
 652:Generated_Source\PSoC4/CapSense_CSHL.c ****     /* Get last sensor in widget */
 653:Generated_Source\PSoC4/CapSense_CSHL.c ****     lastSensor = (CapSense_rawDataIndex[widget] + sensorsPerWidget);
 654:Generated_Source\PSoC4/CapSense_CSHL.c **** 
 655:Generated_Source\PSoC4/CapSense_CSHL.c ****     for(i = firstSensor; i < lastSensor; i++)
 656:Generated_Source\PSoC4/CapSense_CSHL.c ****     {
 657:Generated_Source\PSoC4/CapSense_CSHL.c ****         isSensorEnabled = CapSense_GetBitValue(CapSense_sensorEnableMask, i);
 658:Generated_Source\PSoC4/CapSense_CSHL.c **** 
 659:Generated_Source\PSoC4/CapSense_CSHL.c ****         if(0u != isSensorEnabled)
 660:Generated_Source\PSoC4/CapSense_CSHL.c ****         {
 661:Generated_Source\PSoC4/CapSense_CSHL.c ****             CapSense_UpdateSensorBaseline(i);
 662:Generated_Source\PSoC4/CapSense_CSHL.c ****         }
 663:Generated_Source\PSoC4/CapSense_CSHL.c ****     }
 664:Generated_Source\PSoC4/CapSense_CSHL.c **** }
 665:Generated_Source\PSoC4/CapSense_CSHL.c **** 
 666:Generated_Source\PSoC4/CapSense_CSHL.c **** 
 667:Generated_Source\PSoC4/CapSense_CSHL.c **** /*******************************************************************************
 668:Generated_Source\PSoC4/CapSense_CSHL.c **** * Function Name: CapSense_GetBaselineData
 669:Generated_Source\PSoC4/CapSense_CSHL.c **** ********************************************************************************
 670:Generated_Source\PSoC4/CapSense_CSHL.c **** *
 671:Generated_Source\PSoC4/CapSense_CSHL.c **** * Summary:
 672:Generated_Source\PSoC4/CapSense_CSHL.c **** *  This function reads the sensor baseline from the component.
 673:Generated_Source\PSoC4/CapSense_CSHL.c **** *
 674:Generated_Source\PSoC4/CapSense_CSHL.c **** * Parameters:
 675:Generated_Source\PSoC4/CapSense_CSHL.c **** *  sensor:  Sensor number.
 676:Generated_Source\PSoC4/CapSense_CSHL.c **** *
 677:Generated_Source\PSoC4/CapSense_CSHL.c **** * Return:
 678:Generated_Source\PSoC4/CapSense_CSHL.c **** *  This API returns the baseline value of the sensor indicated by an argument.
 679:Generated_Source\PSoC4/CapSense_CSHL.c **** *
 680:Generated_Source\PSoC4/CapSense_CSHL.c **** * Global Variables:
 681:Generated_Source\PSoC4/CapSense_CSHL.c **** *  CapSense_sensorBaseline[] - the array with an initial values by scanning
 682:Generated_Source\PSoC4/CapSense_CSHL.c **** *
 683:Generated_Source\PSoC4/CapSense_CSHL.c **** * Side Effects:
 684:Generated_Source\PSoC4/CapSense_CSHL.c **** *  None
ARM GAS  C:\Users\ZURUSH~1\AppData\Local\Temp\ccmil0rU.s 			page 17


 685:Generated_Source\PSoC4/CapSense_CSHL.c **** *
 686:Generated_Source\PSoC4/CapSense_CSHL.c **** *******************************************************************************/
 687:Generated_Source\PSoC4/CapSense_CSHL.c **** uint16 CapSense_GetBaselineData(uint32 sensor)
 688:Generated_Source\PSoC4/CapSense_CSHL.c **** {
 225              		.loc 1 688 0
 226              		.cfi_startproc
 227              		@ args = 0, pretend = 0, frame = 0
 228              		@ frame_needed = 0, uses_anonymous_args = 0
 229              		@ link register save eliminated.
 230              	.LVL22:
 689:Generated_Source\PSoC4/CapSense_CSHL.c ****     return (CapSense_sensorBaseline[sensor]);
 231              		.loc 1 689 0
 232 0000 4000     		lsls	r0, r0, #1
 233              	.LVL23:
 234 0002 014B     		ldr	r3, .L17
 235 0004 185A     		ldrh	r0, [r3, r0]
 690:Generated_Source\PSoC4/CapSense_CSHL.c **** }
 236              		.loc 1 690 0
 237              		@ sp needed
 238 0006 7047     		bx	lr
 239              	.L18:
 240              		.align	2
 241              	.L17:
 242 0008 00000000 		.word	.LANCHOR0
 243              		.cfi_endproc
 244              	.LFE40:
 245              		.size	CapSense_GetBaselineData, .-CapSense_GetBaselineData
 246              		.section	.text.CapSense_SetBaselineData,"ax",%progbits
 247              		.align	2
 248              		.global	CapSense_SetBaselineData
 249              		.code	16
 250              		.thumb_func
 251              		.type	CapSense_SetBaselineData, %function
 252              	CapSense_SetBaselineData:
 253              	.LFB41:
 691:Generated_Source\PSoC4/CapSense_CSHL.c **** 
 692:Generated_Source\PSoC4/CapSense_CSHL.c **** 
 693:Generated_Source\PSoC4/CapSense_CSHL.c **** /*******************************************************************************
 694:Generated_Source\PSoC4/CapSense_CSHL.c **** * Function Name: CapSense_SetBaselineData
 695:Generated_Source\PSoC4/CapSense_CSHL.c **** ********************************************************************************
 696:Generated_Source\PSoC4/CapSense_CSHL.c **** *
 697:Generated_Source\PSoC4/CapSense_CSHL.c **** * Summary:
 698:Generated_Source\PSoC4/CapSense_CSHL.c **** *  This API writes the data value passed as an argument to the sensor baseline array.
 699:Generated_Source\PSoC4/CapSense_CSHL.c **** *
 700:Generated_Source\PSoC4/CapSense_CSHL.c **** * Parameters:
 701:Generated_Source\PSoC4/CapSense_CSHL.c **** *  sensor:  Sensor number.
 702:Generated_Source\PSoC4/CapSense_CSHL.c **** *  data:    Sensor baseline.
 703:Generated_Source\PSoC4/CapSense_CSHL.c **** *
 704:Generated_Source\PSoC4/CapSense_CSHL.c **** * Return:
 705:Generated_Source\PSoC4/CapSense_CSHL.c **** *  None.
 706:Generated_Source\PSoC4/CapSense_CSHL.c **** *
 707:Generated_Source\PSoC4/CapSense_CSHL.c **** * Global Variables:
 708:Generated_Source\PSoC4/CapSense_CSHL.c **** *  CapSense_sensorBaseline[] - the array with initial values by scanning
 709:Generated_Source\PSoC4/CapSense_CSHL.c **** *
 710:Generated_Source\PSoC4/CapSense_CSHL.c **** * Side Effects:
 711:Generated_Source\PSoC4/CapSense_CSHL.c **** *  None
 712:Generated_Source\PSoC4/CapSense_CSHL.c **** *
ARM GAS  C:\Users\ZURUSH~1\AppData\Local\Temp\ccmil0rU.s 			page 18


 713:Generated_Source\PSoC4/CapSense_CSHL.c **** *******************************************************************************/
 714:Generated_Source\PSoC4/CapSense_CSHL.c **** void CapSense_SetBaselineData(uint32 sensor, uint16 data)
 715:Generated_Source\PSoC4/CapSense_CSHL.c **** {
 254              		.loc 1 715 0
 255              		.cfi_startproc
 256              		@ args = 0, pretend = 0, frame = 0
 257              		@ frame_needed = 0, uses_anonymous_args = 0
 258              		@ link register save eliminated.
 259              	.LVL24:
 716:Generated_Source\PSoC4/CapSense_CSHL.c ****     CapSense_sensorBaseline[sensor] = data;
 260              		.loc 1 716 0
 261 0000 4000     		lsls	r0, r0, #1
 262              	.LVL25:
 263 0002 014B     		ldr	r3, .L20
 264 0004 C152     		strh	r1, [r0, r3]
 717:Generated_Source\PSoC4/CapSense_CSHL.c **** }
 265              		.loc 1 717 0
 266              		@ sp needed
 267 0006 7047     		bx	lr
 268              	.L21:
 269              		.align	2
 270              	.L20:
 271 0008 00000000 		.word	.LANCHOR0
 272              		.cfi_endproc
 273              	.LFE41:
 274              		.size	CapSense_SetBaselineData, .-CapSense_SetBaselineData
 275              		.section	.text.CapSense_GetDiffCountData,"ax",%progbits
 276              		.align	2
 277              		.global	CapSense_GetDiffCountData
 278              		.code	16
 279              		.thumb_func
 280              		.type	CapSense_GetDiffCountData, %function
 281              	CapSense_GetDiffCountData:
 282              	.LFB42:
 718:Generated_Source\PSoC4/CapSense_CSHL.c **** 
 719:Generated_Source\PSoC4/CapSense_CSHL.c **** 
 720:Generated_Source\PSoC4/CapSense_CSHL.c **** /*******************************************************************************
 721:Generated_Source\PSoC4/CapSense_CSHL.c **** * Function Name: CapSense_GetDiffCountData
 722:Generated_Source\PSoC4/CapSense_CSHL.c **** ********************************************************************************
 723:Generated_Source\PSoC4/CapSense_CSHL.c **** *
 724:Generated_Source\PSoC4/CapSense_CSHL.c **** * Summary:
 725:Generated_Source\PSoC4/CapSense_CSHL.c **** *  This function returns the Sensor Signal from the component.
 726:Generated_Source\PSoC4/CapSense_CSHL.c **** *
 727:Generated_Source\PSoC4/CapSense_CSHL.c **** * Parameters:
 728:Generated_Source\PSoC4/CapSense_CSHL.c **** *  sensor:  Sensor number.
 729:Generated_Source\PSoC4/CapSense_CSHL.c **** *
 730:Generated_Source\PSoC4/CapSense_CSHL.c **** * Return:
 731:Generated_Source\PSoC4/CapSense_CSHL.c **** *  This API returns the difference count value of the sensor indicated by the
 732:Generated_Source\PSoC4/CapSense_CSHL.c **** *  argument.
 733:Generated_Source\PSoC4/CapSense_CSHL.c **** *
 734:Generated_Source\PSoC4/CapSense_CSHL.c **** * Global Variables:
 735:Generated_Source\PSoC4/CapSense_CSHL.c **** *  CapSense_sensorSignal[] - the array with difference counts for sensors
 736:Generated_Source\PSoC4/CapSense_CSHL.c **** *
 737:Generated_Source\PSoC4/CapSense_CSHL.c **** * Side Effects:
 738:Generated_Source\PSoC4/CapSense_CSHL.c **** *  None
 739:Generated_Source\PSoC4/CapSense_CSHL.c **** *
 740:Generated_Source\PSoC4/CapSense_CSHL.c **** *******************************************************************************/
ARM GAS  C:\Users\ZURUSH~1\AppData\Local\Temp\ccmil0rU.s 			page 19


 741:Generated_Source\PSoC4/CapSense_CSHL.c **** uint8 CapSense_GetDiffCountData(uint32 sensor)
 742:Generated_Source\PSoC4/CapSense_CSHL.c **** {
 283              		.loc 1 742 0
 284              		.cfi_startproc
 285              		@ args = 0, pretend = 0, frame = 0
 286              		@ frame_needed = 0, uses_anonymous_args = 0
 287              		@ link register save eliminated.
 288              	.LVL26:
 743:Generated_Source\PSoC4/CapSense_CSHL.c ****     return (CapSense_sensorSignal[sensor]);
 289              		.loc 1 743 0
 290 0000 014B     		ldr	r3, .L23
 291 0002 1818     		adds	r0, r3, r0
 292              	.LVL27:
 293 0004 007A     		ldrb	r0, [r0, #8]
 744:Generated_Source\PSoC4/CapSense_CSHL.c **** }
 294              		.loc 1 744 0
 295              		@ sp needed
 296 0006 7047     		bx	lr
 297              	.L24:
 298              		.align	2
 299              	.L23:
 300 0008 00000000 		.word	.LANCHOR0
 301              		.cfi_endproc
 302              	.LFE42:
 303              		.size	CapSense_GetDiffCountData, .-CapSense_GetDiffCountData
 304              		.section	.text.CapSense_SetDiffCountData,"ax",%progbits
 305              		.align	2
 306              		.global	CapSense_SetDiffCountData
 307              		.code	16
 308              		.thumb_func
 309              		.type	CapSense_SetDiffCountData, %function
 310              	CapSense_SetDiffCountData:
 311              	.LFB43:
 745:Generated_Source\PSoC4/CapSense_CSHL.c **** 
 746:Generated_Source\PSoC4/CapSense_CSHL.c **** 
 747:Generated_Source\PSoC4/CapSense_CSHL.c **** /*******************************************************************************
 748:Generated_Source\PSoC4/CapSense_CSHL.c **** * Function Name: CapSense_SetDiffCountData
 749:Generated_Source\PSoC4/CapSense_CSHL.c **** ********************************************************************************
 750:Generated_Source\PSoC4/CapSense_CSHL.c **** *
 751:Generated_Source\PSoC4/CapSense_CSHL.c **** * Summary:
 752:Generated_Source\PSoC4/CapSense_CSHL.c **** *  This API writes the data value passed as an argument to the sensor signal array.
 753:Generated_Source\PSoC4/CapSense_CSHL.c **** *
 754:Generated_Source\PSoC4/CapSense_CSHL.c **** * Parameters:
 755:Generated_Source\PSoC4/CapSense_CSHL.c **** *  sensor:  Sensor number.
 756:Generated_Source\PSoC4/CapSense_CSHL.c **** *  value:   Sensor signal.
 757:Generated_Source\PSoC4/CapSense_CSHL.c **** *
 758:Generated_Source\PSoC4/CapSense_CSHL.c **** * Return:
 759:Generated_Source\PSoC4/CapSense_CSHL.c **** *  None.
 760:Generated_Source\PSoC4/CapSense_CSHL.c **** *
 761:Generated_Source\PSoC4/CapSense_CSHL.c **** * Global Variables:
 762:Generated_Source\PSoC4/CapSense_CSHL.c **** *  CapSense_sensorSignal[] - the array with difference counts for sensors
 763:Generated_Source\PSoC4/CapSense_CSHL.c **** *
 764:Generated_Source\PSoC4/CapSense_CSHL.c **** * Side Effects:
 765:Generated_Source\PSoC4/CapSense_CSHL.c **** *  None
 766:Generated_Source\PSoC4/CapSense_CSHL.c **** *
 767:Generated_Source\PSoC4/CapSense_CSHL.c **** *******************************************************************************/
 768:Generated_Source\PSoC4/CapSense_CSHL.c **** void CapSense_SetDiffCountData(uint32 sensor, uint8 value)
ARM GAS  C:\Users\ZURUSH~1\AppData\Local\Temp\ccmil0rU.s 			page 20


 769:Generated_Source\PSoC4/CapSense_CSHL.c **** {
 312              		.loc 1 769 0
 313              		.cfi_startproc
 314              		@ args = 0, pretend = 0, frame = 0
 315              		@ frame_needed = 0, uses_anonymous_args = 0
 316              		@ link register save eliminated.
 317              	.LVL28:
 770:Generated_Source\PSoC4/CapSense_CSHL.c ****     CapSense_sensorSignal[sensor] = value;
 318              		.loc 1 770 0
 319 0000 014B     		ldr	r3, .L26
 320 0002 1818     		adds	r0, r3, r0
 321              	.LVL29:
 322 0004 0172     		strb	r1, [r0, #8]
 771:Generated_Source\PSoC4/CapSense_CSHL.c **** }
 323              		.loc 1 771 0
 324              		@ sp needed
 325 0006 7047     		bx	lr
 326              	.L27:
 327              		.align	2
 328              	.L26:
 329 0008 00000000 		.word	.LANCHOR0
 330              		.cfi_endproc
 331              	.LFE43:
 332              		.size	CapSense_SetDiffCountData, .-CapSense_SetDiffCountData
 333              		.section	.text.CapSense_GetFingerThreshold,"ax",%progbits
 334              		.align	2
 335              		.global	CapSense_GetFingerThreshold
 336              		.code	16
 337              		.thumb_func
 338              		.type	CapSense_GetFingerThreshold, %function
 339              	CapSense_GetFingerThreshold:
 340              	.LFB44:
 772:Generated_Source\PSoC4/CapSense_CSHL.c **** 
 773:Generated_Source\PSoC4/CapSense_CSHL.c **** 
 774:Generated_Source\PSoC4/CapSense_CSHL.c **** /*******************************************************************************
 775:Generated_Source\PSoC4/CapSense_CSHL.c **** * Function Name: CapSense_GetFingerThreshold
 776:Generated_Source\PSoC4/CapSense_CSHL.c **** ********************************************************************************
 777:Generated_Source\PSoC4/CapSense_CSHL.c **** *
 778:Generated_Source\PSoC4/CapSense_CSHL.c **** * Summary:
 779:Generated_Source\PSoC4/CapSense_CSHL.c **** *  This function reads the finger threshold from the component.
 780:Generated_Source\PSoC4/CapSense_CSHL.c **** *
 781:Generated_Source\PSoC4/CapSense_CSHL.c **** * Parameters:
 782:Generated_Source\PSoC4/CapSense_CSHL.c **** *  widget:  widget number.
 783:Generated_Source\PSoC4/CapSense_CSHL.c **** *
 784:Generated_Source\PSoC4/CapSense_CSHL.c **** * Return:
 785:Generated_Source\PSoC4/CapSense_CSHL.c **** *  This API returns the finger threshold of the widget indicated by the argument.
 786:Generated_Source\PSoC4/CapSense_CSHL.c **** *
 787:Generated_Source\PSoC4/CapSense_CSHL.c **** * Global Variables:
 788:Generated_Source\PSoC4/CapSense_CSHL.c **** *  CapSense_fingerThreshold[] - This array contains the level of signal
 789:Generated_Source\PSoC4/CapSense_CSHL.c **** *  for each widget that is determined if a finger is present on the widget.
 790:Generated_Source\PSoC4/CapSense_CSHL.c **** *
 791:Generated_Source\PSoC4/CapSense_CSHL.c **** * Side Effects:
 792:Generated_Source\PSoC4/CapSense_CSHL.c **** *  None
 793:Generated_Source\PSoC4/CapSense_CSHL.c **** *
 794:Generated_Source\PSoC4/CapSense_CSHL.c **** *******************************************************************************/
 795:Generated_Source\PSoC4/CapSense_CSHL.c **** uint8 CapSense_GetFingerThreshold(uint32 widget)
 796:Generated_Source\PSoC4/CapSense_CSHL.c **** {
ARM GAS  C:\Users\ZURUSH~1\AppData\Local\Temp\ccmil0rU.s 			page 21


 341              		.loc 1 796 0
 342              		.cfi_startproc
 343              		@ args = 0, pretend = 0, frame = 0
 344              		@ frame_needed = 0, uses_anonymous_args = 0
 345              		@ link register save eliminated.
 346              	.LVL30:
 797:Generated_Source\PSoC4/CapSense_CSHL.c ****     return(CapSense_fingerThreshold[widget]);
 347              		.loc 1 797 0
 348 0000 014B     		ldr	r3, .L29
 349 0002 185C     		ldrb	r0, [r3, r0]
 350              	.LVL31:
 798:Generated_Source\PSoC4/CapSense_CSHL.c **** }
 351              		.loc 1 798 0
 352              		@ sp needed
 353 0004 7047     		bx	lr
 354              	.L30:
 355 0006 C046     		.align	2
 356              	.L29:
 357 0008 00000000 		.word	CapSense_fingerThreshold
 358              		.cfi_endproc
 359              	.LFE44:
 360              		.size	CapSense_GetFingerThreshold, .-CapSense_GetFingerThreshold
 361              		.section	.text.CapSense_GetNoiseThreshold,"ax",%progbits
 362              		.align	2
 363              		.global	CapSense_GetNoiseThreshold
 364              		.code	16
 365              		.thumb_func
 366              		.type	CapSense_GetNoiseThreshold, %function
 367              	CapSense_GetNoiseThreshold:
 368              	.LFB45:
 799:Generated_Source\PSoC4/CapSense_CSHL.c **** 
 800:Generated_Source\PSoC4/CapSense_CSHL.c **** 
 801:Generated_Source\PSoC4/CapSense_CSHL.c **** /*******************************************************************************
 802:Generated_Source\PSoC4/CapSense_CSHL.c **** * Function Name: CapSense_GetNoiseThreshold
 803:Generated_Source\PSoC4/CapSense_CSHL.c **** ********************************************************************************
 804:Generated_Source\PSoC4/CapSense_CSHL.c **** *
 805:Generated_Source\PSoC4/CapSense_CSHL.c **** * Summary:
 806:Generated_Source\PSoC4/CapSense_CSHL.c **** *  This function reads the noise threshold from the component.
 807:Generated_Source\PSoC4/CapSense_CSHL.c **** *
 808:Generated_Source\PSoC4/CapSense_CSHL.c **** * Parameters:
 809:Generated_Source\PSoC4/CapSense_CSHL.c **** *  widget:  widget number.
 810:Generated_Source\PSoC4/CapSense_CSHL.c **** *
 811:Generated_Source\PSoC4/CapSense_CSHL.c **** * Return:
 812:Generated_Source\PSoC4/CapSense_CSHL.c **** *  This API returns the noise threshold of the widget indicated by the argument.
 813:Generated_Source\PSoC4/CapSense_CSHL.c **** *
 814:Generated_Source\PSoC4/CapSense_CSHL.c **** * Global Variables:
 815:Generated_Source\PSoC4/CapSense_CSHL.c **** *  CapSense_noiseThreshold[] - This array contains the level of signal
 816:Generated_Source\PSoC4/CapSense_CSHL.c **** *  for each widget that determines the level of noise in the capacitive scan.
 817:Generated_Source\PSoC4/CapSense_CSHL.c **** *
 818:Generated_Source\PSoC4/CapSense_CSHL.c **** * Side Effects:
 819:Generated_Source\PSoC4/CapSense_CSHL.c **** *  None
 820:Generated_Source\PSoC4/CapSense_CSHL.c **** *
 821:Generated_Source\PSoC4/CapSense_CSHL.c **** *******************************************************************************/
 822:Generated_Source\PSoC4/CapSense_CSHL.c **** uint8 CapSense_GetNoiseThreshold(uint32 widget)
 823:Generated_Source\PSoC4/CapSense_CSHL.c **** {
 369              		.loc 1 823 0
 370              		.cfi_startproc
ARM GAS  C:\Users\ZURUSH~1\AppData\Local\Temp\ccmil0rU.s 			page 22


 371              		@ args = 0, pretend = 0, frame = 0
 372              		@ frame_needed = 0, uses_anonymous_args = 0
 373              		@ link register save eliminated.
 374              	.LVL32:
 824:Generated_Source\PSoC4/CapSense_CSHL.c ****     return (CapSense_noiseThreshold[widget]);
 375              		.loc 1 824 0
 376 0000 014B     		ldr	r3, .L32
 377 0002 185C     		ldrb	r0, [r3, r0]
 378              	.LVL33:
 825:Generated_Source\PSoC4/CapSense_CSHL.c **** }
 379              		.loc 1 825 0
 380              		@ sp needed
 381 0004 7047     		bx	lr
 382              	.L33:
 383 0006 C046     		.align	2
 384              	.L32:
 385 0008 00000000 		.word	CapSense_noiseThreshold
 386              		.cfi_endproc
 387              	.LFE45:
 388              		.size	CapSense_GetNoiseThreshold, .-CapSense_GetNoiseThreshold
 389              		.section	.text.CapSense_GetFingerHysteresis,"ax",%progbits
 390              		.align	2
 391              		.global	CapSense_GetFingerHysteresis
 392              		.code	16
 393              		.thumb_func
 394              		.type	CapSense_GetFingerHysteresis, %function
 395              	CapSense_GetFingerHysteresis:
 396              	.LFB46:
 826:Generated_Source\PSoC4/CapSense_CSHL.c **** 
 827:Generated_Source\PSoC4/CapSense_CSHL.c **** 
 828:Generated_Source\PSoC4/CapSense_CSHL.c **** /*******************************************************************************
 829:Generated_Source\PSoC4/CapSense_CSHL.c **** * Function Name: CapSense_GetFingerHysteresis
 830:Generated_Source\PSoC4/CapSense_CSHL.c **** ********************************************************************************
 831:Generated_Source\PSoC4/CapSense_CSHL.c **** *
 832:Generated_Source\PSoC4/CapSense_CSHL.c **** * Summary:
 833:Generated_Source\PSoC4/CapSense_CSHL.c **** *  This function reads the Hysteresis value from the component.
 834:Generated_Source\PSoC4/CapSense_CSHL.c **** *
 835:Generated_Source\PSoC4/CapSense_CSHL.c **** * Parameters:
 836:Generated_Source\PSoC4/CapSense_CSHL.c **** *  widget:  widget number.
 837:Generated_Source\PSoC4/CapSense_CSHL.c **** *
 838:Generated_Source\PSoC4/CapSense_CSHL.c **** * Return:
 839:Generated_Source\PSoC4/CapSense_CSHL.c **** *  This API returns the Hysteresis of the widget indicated by the argument.
 840:Generated_Source\PSoC4/CapSense_CSHL.c **** *
 841:Generated_Source\PSoC4/CapSense_CSHL.c **** * Global Variables:
 842:Generated_Source\PSoC4/CapSense_CSHL.c **** *  CapSense_hysteresis[] - This array contains the hysteresis value
 843:Generated_Source\PSoC4/CapSense_CSHL.c **** *   for each widget.
 844:Generated_Source\PSoC4/CapSense_CSHL.c **** *  CapSense_widgetNumberSld - structure with dynamic sliders' parameters.
 845:Generated_Source\PSoC4/CapSense_CSHL.c **** *
 846:Generated_Source\PSoC4/CapSense_CSHL.c **** * Side Effects:
 847:Generated_Source\PSoC4/CapSense_CSHL.c **** *  None
 848:Generated_Source\PSoC4/CapSense_CSHL.c **** *
 849:Generated_Source\PSoC4/CapSense_CSHL.c **** *******************************************************************************/
 850:Generated_Source\PSoC4/CapSense_CSHL.c **** uint8 CapSense_GetFingerHysteresis(uint32 widget)
 851:Generated_Source\PSoC4/CapSense_CSHL.c **** {
 397              		.loc 1 851 0
 398              		.cfi_startproc
 399              		@ args = 0, pretend = 0, frame = 0
ARM GAS  C:\Users\ZURUSH~1\AppData\Local\Temp\ccmil0rU.s 			page 23


 400              		@ frame_needed = 0, uses_anonymous_args = 0
 401              		@ link register save eliminated.
 402              	.LVL34:
 852:Generated_Source\PSoC4/CapSense_CSHL.c ****     return(CapSense_hysteresis[widget]);
 403              		.loc 1 852 0
 404 0000 014B     		ldr	r3, .L35
 405 0002 185C     		ldrb	r0, [r3, r0]
 406              	.LVL35:
 853:Generated_Source\PSoC4/CapSense_CSHL.c **** }
 407              		.loc 1 853 0
 408              		@ sp needed
 409 0004 7047     		bx	lr
 410              	.L36:
 411 0006 C046     		.align	2
 412              	.L35:
 413 0008 00000000 		.word	CapSense_hysteresis
 414              		.cfi_endproc
 415              	.LFE46:
 416              		.size	CapSense_GetFingerHysteresis, .-CapSense_GetFingerHysteresis
 417              		.section	.text.CapSense_GetNegativeNoiseThreshold,"ax",%progbits
 418              		.align	2
 419              		.global	CapSense_GetNegativeNoiseThreshold
 420              		.code	16
 421              		.thumb_func
 422              		.type	CapSense_GetNegativeNoiseThreshold, %function
 423              	CapSense_GetNegativeNoiseThreshold:
 424              	.LFB47:
 854:Generated_Source\PSoC4/CapSense_CSHL.c **** 
 855:Generated_Source\PSoC4/CapSense_CSHL.c **** 
 856:Generated_Source\PSoC4/CapSense_CSHL.c **** /*******************************************************************************
 857:Generated_Source\PSoC4/CapSense_CSHL.c **** * Function Name: CapSense_GetNegativeNoiseThreshold
 858:Generated_Source\PSoC4/CapSense_CSHL.c **** ********************************************************************************
 859:Generated_Source\PSoC4/CapSense_CSHL.c **** *
 860:Generated_Source\PSoC4/CapSense_CSHL.c **** * Summary:
 861:Generated_Source\PSoC4/CapSense_CSHL.c **** *  This function reads the negative noise threshold from the component.
 862:Generated_Source\PSoC4/CapSense_CSHL.c **** *
 863:Generated_Source\PSoC4/CapSense_CSHL.c **** * Parameters:
 864:Generated_Source\PSoC4/CapSense_CSHL.c **** *  None.
 865:Generated_Source\PSoC4/CapSense_CSHL.c **** *
 866:Generated_Source\PSoC4/CapSense_CSHL.c **** * Return Value:
 867:Generated_Source\PSoC4/CapSense_CSHL.c **** *  This API returns the negative noise threshold
 868:Generated_Source\PSoC4/CapSense_CSHL.c **** *
 869:Generated_Source\PSoC4/CapSense_CSHL.c **** * Global Variables:
 870:Generated_Source\PSoC4/CapSense_CSHL.c **** *  CapSense_negativeNoiseThreshold - This variable specifies the negative
 871:Generated_Source\PSoC4/CapSense_CSHL.c **** *   difference between the raw count and baseline levels for Baseline resetting
 872:Generated_Source\PSoC4/CapSense_CSHL.c **** *   to the raw count level.
 873:Generated_Source\PSoC4/CapSense_CSHL.c **** *
 874:Generated_Source\PSoC4/CapSense_CSHL.c **** * Side Effects:
 875:Generated_Source\PSoC4/CapSense_CSHL.c **** *  None
 876:Generated_Source\PSoC4/CapSense_CSHL.c **** *
 877:Generated_Source\PSoC4/CapSense_CSHL.c **** *******************************************************************************/
 878:Generated_Source\PSoC4/CapSense_CSHL.c **** uint8 CapSense_GetNegativeNoiseThreshold(uint32 widget)
 879:Generated_Source\PSoC4/CapSense_CSHL.c **** {
 425              		.loc 1 879 0
 426              		.cfi_startproc
 427              		@ args = 0, pretend = 0, frame = 0
 428              		@ frame_needed = 0, uses_anonymous_args = 0
ARM GAS  C:\Users\ZURUSH~1\AppData\Local\Temp\ccmil0rU.s 			page 24


 429              		@ link register save eliminated.
 430              	.LVL36:
 880:Generated_Source\PSoC4/CapSense_CSHL.c **** #if (CapSense_TUNING_METHOD != CapSense__TUNING_NONE)
 881:Generated_Source\PSoC4/CapSense_CSHL.c ****     return(CapSense_negativeNoiseThreshold[widget]);
 431              		.loc 1 881 0
 432 0000 014B     		ldr	r3, .L38
 433 0002 185C     		ldrb	r0, [r3, r0]
 434              	.LVL37:
 882:Generated_Source\PSoC4/CapSense_CSHL.c **** #else
 883:Generated_Source\PSoC4/CapSense_CSHL.c ****     return(CapSense_NEGATIVE_NOISE_THRESHOLD);
 884:Generated_Source\PSoC4/CapSense_CSHL.c **** #endif /* (CapSense_TUNING_METHOD != CapSense__TUNING_NONE) */
 885:Generated_Source\PSoC4/CapSense_CSHL.c **** }
 435              		.loc 1 885 0
 436              		@ sp needed
 437 0004 7047     		bx	lr
 438              	.L39:
 439 0006 C046     		.align	2
 440              	.L38:
 441 0008 00000000 		.word	CapSense_negativeNoiseThreshold
 442              		.cfi_endproc
 443              	.LFE47:
 444              		.size	CapSense_GetNegativeNoiseThreshold, .-CapSense_GetNegativeNoiseThreshold
 445              		.section	.text.CapSense_SetFingerThreshold,"ax",%progbits
 446              		.align	2
 447              		.global	CapSense_SetFingerThreshold
 448              		.code	16
 449              		.thumb_func
 450              		.type	CapSense_SetFingerThreshold, %function
 451              	CapSense_SetFingerThreshold:
 452              	.LFB48:
 886:Generated_Source\PSoC4/CapSense_CSHL.c **** 
 887:Generated_Source\PSoC4/CapSense_CSHL.c **** 
 888:Generated_Source\PSoC4/CapSense_CSHL.c **** #if(CapSense_TUNING_METHOD != CapSense__TUNING_NONE)
 889:Generated_Source\PSoC4/CapSense_CSHL.c ****     /*******************************************************************************
 890:Generated_Source\PSoC4/CapSense_CSHL.c ****     * Function Name: CapSense_SetFingerThreshold
 891:Generated_Source\PSoC4/CapSense_CSHL.c ****     ********************************************************************************
 892:Generated_Source\PSoC4/CapSense_CSHL.c ****     *
 893:Generated_Source\PSoC4/CapSense_CSHL.c ****     * Summary:
 894:Generated_Source\PSoC4/CapSense_CSHL.c ****     *  This API sets the finger threshold value for a widget.
 895:Generated_Source\PSoC4/CapSense_CSHL.c ****     *
 896:Generated_Source\PSoC4/CapSense_CSHL.c ****     * Parameters:
 897:Generated_Source\PSoC4/CapSense_CSHL.c ****     *  sensorNumber:  widget index.
 898:Generated_Source\PSoC4/CapSense_CSHL.c ****     *  value:  Finger threshold value for the widget.
 899:Generated_Source\PSoC4/CapSense_CSHL.c ****     *
 900:Generated_Source\PSoC4/CapSense_CSHL.c ****     * Return Value:
 901:Generated_Source\PSoC4/CapSense_CSHL.c ****     *  None
 902:Generated_Source\PSoC4/CapSense_CSHL.c ****     *
 903:Generated_Source\PSoC4/CapSense_CSHL.c ****     * Global Variables:
 904:Generated_Source\PSoC4/CapSense_CSHL.c ****     *  CapSense_fingerThreshold[] - This array contains the level of signal
 905:Generated_Source\PSoC4/CapSense_CSHL.c ****     *   for each widget that determines if a finger is present on the widget.
 906:Generated_Source\PSoC4/CapSense_CSHL.c ****     *
 907:Generated_Source\PSoC4/CapSense_CSHL.c ****     * Side Effects:
 908:Generated_Source\PSoC4/CapSense_CSHL.c ****     *  None
 909:Generated_Source\PSoC4/CapSense_CSHL.c ****     *
 910:Generated_Source\PSoC4/CapSense_CSHL.c ****     *******************************************************************************/
 911:Generated_Source\PSoC4/CapSense_CSHL.c ****     void CapSense_SetFingerThreshold(uint32 widget, uint8 value)
 912:Generated_Source\PSoC4/CapSense_CSHL.c ****     {
ARM GAS  C:\Users\ZURUSH~1\AppData\Local\Temp\ccmil0rU.s 			page 25


 453              		.loc 1 912 0
 454              		.cfi_startproc
 455              		@ args = 0, pretend = 0, frame = 0
 456              		@ frame_needed = 0, uses_anonymous_args = 0
 457              		@ link register save eliminated.
 458              	.LVL38:
 913:Generated_Source\PSoC4/CapSense_CSHL.c ****         CapSense_fingerThreshold[widget] = value;
 459              		.loc 1 913 0
 460 0000 014B     		ldr	r3, .L41
 461 0002 1954     		strb	r1, [r3, r0]
 914:Generated_Source\PSoC4/CapSense_CSHL.c ****     }
 462              		.loc 1 914 0
 463              		@ sp needed
 464 0004 7047     		bx	lr
 465              	.L42:
 466 0006 C046     		.align	2
 467              	.L41:
 468 0008 00000000 		.word	CapSense_fingerThreshold
 469              		.cfi_endproc
 470              	.LFE48:
 471              		.size	CapSense_SetFingerThreshold, .-CapSense_SetFingerThreshold
 472              		.section	.text.CapSense_SetNoiseThreshold,"ax",%progbits
 473              		.align	2
 474              		.global	CapSense_SetNoiseThreshold
 475              		.code	16
 476              		.thumb_func
 477              		.type	CapSense_SetNoiseThreshold, %function
 478              	CapSense_SetNoiseThreshold:
 479              	.LFB49:
 915:Generated_Source\PSoC4/CapSense_CSHL.c **** 
 916:Generated_Source\PSoC4/CapSense_CSHL.c **** 
 917:Generated_Source\PSoC4/CapSense_CSHL.c ****     /*******************************************************************************
 918:Generated_Source\PSoC4/CapSense_CSHL.c ****     * Function Name: CapSense_SetNoiseThreshold
 919:Generated_Source\PSoC4/CapSense_CSHL.c ****     ********************************************************************************
 920:Generated_Source\PSoC4/CapSense_CSHL.c ****     *
 921:Generated_Source\PSoC4/CapSense_CSHL.c ****     * Summary:
 922:Generated_Source\PSoC4/CapSense_CSHL.c ****     *  This API sets the Noise Threshold value for each widget.
 923:Generated_Source\PSoC4/CapSense_CSHL.c ****     *
 924:Generated_Source\PSoC4/CapSense_CSHL.c ****     * Parameters:
 925:Generated_Source\PSoC4/CapSense_CSHL.c ****     *  widget:  Sensor index number.
 926:Generated_Source\PSoC4/CapSense_CSHL.c ****     *  value:   Noise Threshold value for widget.
 927:Generated_Source\PSoC4/CapSense_CSHL.c ****     *
 928:Generated_Source\PSoC4/CapSense_CSHL.c ****     * Return Value:
 929:Generated_Source\PSoC4/CapSense_CSHL.c ****     *  None
 930:Generated_Source\PSoC4/CapSense_CSHL.c ****     *
 931:Generated_Source\PSoC4/CapSense_CSHL.c ****     * Global Variables:
 932:Generated_Source\PSoC4/CapSense_CSHL.c ****     *  CapSense_noiseThreshold[] - This array contains the level of signal
 933:Generated_Source\PSoC4/CapSense_CSHL.c ****     *   for each widget that determines the level of noise in the capacitive scan.
 934:Generated_Source\PSoC4/CapSense_CSHL.c ****     *
 935:Generated_Source\PSoC4/CapSense_CSHL.c ****     * Side Effects:
 936:Generated_Source\PSoC4/CapSense_CSHL.c ****     *  None
 937:Generated_Source\PSoC4/CapSense_CSHL.c ****     *
 938:Generated_Source\PSoC4/CapSense_CSHL.c ****     *******************************************************************************/
 939:Generated_Source\PSoC4/CapSense_CSHL.c ****     void CapSense_SetNoiseThreshold(uint32 widget, uint8 value)
 940:Generated_Source\PSoC4/CapSense_CSHL.c ****     {
 480              		.loc 1 940 0
 481              		.cfi_startproc
ARM GAS  C:\Users\ZURUSH~1\AppData\Local\Temp\ccmil0rU.s 			page 26


 482              		@ args = 0, pretend = 0, frame = 0
 483              		@ frame_needed = 0, uses_anonymous_args = 0
 484              		@ link register save eliminated.
 485              	.LVL39:
 941:Generated_Source\PSoC4/CapSense_CSHL.c ****         CapSense_noiseThreshold[widget] = value;
 486              		.loc 1 941 0
 487 0000 014B     		ldr	r3, .L44
 488 0002 1954     		strb	r1, [r3, r0]
 942:Generated_Source\PSoC4/CapSense_CSHL.c ****     }
 489              		.loc 1 942 0
 490              		@ sp needed
 491 0004 7047     		bx	lr
 492              	.L45:
 493 0006 C046     		.align	2
 494              	.L44:
 495 0008 00000000 		.word	CapSense_noiseThreshold
 496              		.cfi_endproc
 497              	.LFE49:
 498              		.size	CapSense_SetNoiseThreshold, .-CapSense_SetNoiseThreshold
 499              		.section	.text.CapSense_SetFingerHysteresis,"ax",%progbits
 500              		.align	2
 501              		.global	CapSense_SetFingerHysteresis
 502              		.code	16
 503              		.thumb_func
 504              		.type	CapSense_SetFingerHysteresis, %function
 505              	CapSense_SetFingerHysteresis:
 506              	.LFB50:
 943:Generated_Source\PSoC4/CapSense_CSHL.c **** 
 944:Generated_Source\PSoC4/CapSense_CSHL.c **** 
 945:Generated_Source\PSoC4/CapSense_CSHL.c ****     /*******************************************************************************
 946:Generated_Source\PSoC4/CapSense_CSHL.c ****     * Function Name: CapSense_SetFingerHysteresis
 947:Generated_Source\PSoC4/CapSense_CSHL.c ****     ********************************************************************************
 948:Generated_Source\PSoC4/CapSense_CSHL.c ****     *
 949:Generated_Source\PSoC4/CapSense_CSHL.c ****     * Summary:
 950:Generated_Source\PSoC4/CapSense_CSHL.c ****     *  This API sets the Hysteresis value of a widget
 951:Generated_Source\PSoC4/CapSense_CSHL.c ****     *
 952:Generated_Source\PSoC4/CapSense_CSHL.c ****     * Parameters:
 953:Generated_Source\PSoC4/CapSense_CSHL.c ****     *  value:  Hysteresis value for widgets.
 954:Generated_Source\PSoC4/CapSense_CSHL.c ****     *  widget:  widget number
 955:Generated_Source\PSoC4/CapSense_CSHL.c ****     *
 956:Generated_Source\PSoC4/CapSense_CSHL.c ****     * Return Value:
 957:Generated_Source\PSoC4/CapSense_CSHL.c ****     *  None
 958:Generated_Source\PSoC4/CapSense_CSHL.c ****     *
 959:Generated_Source\PSoC4/CapSense_CSHL.c ****     * Global Variables:
 960:Generated_Source\PSoC4/CapSense_CSHL.c ****     *  CapSense_hysteresis[] - This array contains the hysteresis value for each widget.
 961:Generated_Source\PSoC4/CapSense_CSHL.c ****     *  CapSense_widgetNumberSld - structure with dynamic sliders' parameters.
 962:Generated_Source\PSoC4/CapSense_CSHL.c ****     *
 963:Generated_Source\PSoC4/CapSense_CSHL.c ****     * Side Effects:
 964:Generated_Source\PSoC4/CapSense_CSHL.c ****     *  None
 965:Generated_Source\PSoC4/CapSense_CSHL.c ****     *
 966:Generated_Source\PSoC4/CapSense_CSHL.c ****     *******************************************************************************/
 967:Generated_Source\PSoC4/CapSense_CSHL.c ****     void CapSense_SetFingerHysteresis(uint32 widget, uint8 value)
 968:Generated_Source\PSoC4/CapSense_CSHL.c ****     {
 507              		.loc 1 968 0
 508              		.cfi_startproc
 509              		@ args = 0, pretend = 0, frame = 0
 510              		@ frame_needed = 0, uses_anonymous_args = 0
ARM GAS  C:\Users\ZURUSH~1\AppData\Local\Temp\ccmil0rU.s 			page 27


 511              		@ link register save eliminated.
 512              	.LVL40:
 969:Generated_Source\PSoC4/CapSense_CSHL.c ****         CapSense_hysteresis[widget] = value;
 513              		.loc 1 969 0
 514 0000 014B     		ldr	r3, .L47
 515 0002 1954     		strb	r1, [r3, r0]
 970:Generated_Source\PSoC4/CapSense_CSHL.c ****     }
 516              		.loc 1 970 0
 517              		@ sp needed
 518 0004 7047     		bx	lr
 519              	.L48:
 520 0006 C046     		.align	2
 521              	.L47:
 522 0008 00000000 		.word	CapSense_hysteresis
 523              		.cfi_endproc
 524              	.LFE50:
 525              		.size	CapSense_SetFingerHysteresis, .-CapSense_SetFingerHysteresis
 526              		.section	.text.CapSense_SetNegativeNoiseThreshold,"ax",%progbits
 527              		.align	2
 528              		.global	CapSense_SetNegativeNoiseThreshold
 529              		.code	16
 530              		.thumb_func
 531              		.type	CapSense_SetNegativeNoiseThreshold, %function
 532              	CapSense_SetNegativeNoiseThreshold:
 533              	.LFB51:
 971:Generated_Source\PSoC4/CapSense_CSHL.c **** 
 972:Generated_Source\PSoC4/CapSense_CSHL.c **** 
 973:Generated_Source\PSoC4/CapSense_CSHL.c ****     /*******************************************************************************
 974:Generated_Source\PSoC4/CapSense_CSHL.c ****     * Function Name: CapSense_SetNegativeNoiseThreshold
 975:Generated_Source\PSoC4/CapSense_CSHL.c ****     ********************************************************************************
 976:Generated_Source\PSoC4/CapSense_CSHL.c ****     *
 977:Generated_Source\PSoC4/CapSense_CSHL.c ****     * Summary:
 978:Generated_Source\PSoC4/CapSense_CSHL.c ****     *  This API sets the Negative Noise Threshold value of a widget
 979:Generated_Source\PSoC4/CapSense_CSHL.c ****     *
 980:Generated_Source\PSoC4/CapSense_CSHL.c ****     * Parameters:
 981:Generated_Source\PSoC4/CapSense_CSHL.c ****     *  value:  Negative Noise Threshold value for widgets.
 982:Generated_Source\PSoC4/CapSense_CSHL.c ****     *  widget: widget number
 983:Generated_Source\PSoC4/CapSense_CSHL.c ****     *
 984:Generated_Source\PSoC4/CapSense_CSHL.c ****     * Return Value:
 985:Generated_Source\PSoC4/CapSense_CSHL.c ****     *  None
 986:Generated_Source\PSoC4/CapSense_CSHL.c ****     *
 987:Generated_Source\PSoC4/CapSense_CSHL.c ****     * Global Variables:
 988:Generated_Source\PSoC4/CapSense_CSHL.c ****     *  CapSense_negativeNoiseThreshold  - This parameter specifies the negative
 989:Generated_Source\PSoC4/CapSense_CSHL.c ****     *   difference between the raw count and baseline levels for Baseline resetting to
 990:Generated_Source\PSoC4/CapSense_CSHL.c ****     *   the raw count level.
 991:Generated_Source\PSoC4/CapSense_CSHL.c ****     *
 992:Generated_Source\PSoC4/CapSense_CSHL.c ****     * Side Effects:
 993:Generated_Source\PSoC4/CapSense_CSHL.c ****     *  None
 994:Generated_Source\PSoC4/CapSense_CSHL.c ****     *
 995:Generated_Source\PSoC4/CapSense_CSHL.c ****     *******************************************************************************/
 996:Generated_Source\PSoC4/CapSense_CSHL.c ****     void CapSense_SetNegativeNoiseThreshold(uint32 widget, uint8 value)
 997:Generated_Source\PSoC4/CapSense_CSHL.c ****     {
 534              		.loc 1 997 0
 535              		.cfi_startproc
 536              		@ args = 0, pretend = 0, frame = 0
 537              		@ frame_needed = 0, uses_anonymous_args = 0
 538              		@ link register save eliminated.
ARM GAS  C:\Users\ZURUSH~1\AppData\Local\Temp\ccmil0rU.s 			page 28


 539              	.LVL41:
 998:Generated_Source\PSoC4/CapSense_CSHL.c ****         CapSense_negativeNoiseThreshold[widget] = value;
 540              		.loc 1 998 0
 541 0000 014B     		ldr	r3, .L50
 542 0002 1954     		strb	r1, [r3, r0]
 999:Generated_Source\PSoC4/CapSense_CSHL.c ****     }
 543              		.loc 1 999 0
 544              		@ sp needed
 545 0004 7047     		bx	lr
 546              	.L51:
 547 0006 C046     		.align	2
 548              	.L50:
 549 0008 00000000 		.word	CapSense_negativeNoiseThreshold
 550              		.cfi_endproc
 551              	.LFE51:
 552              		.size	CapSense_SetNegativeNoiseThreshold, .-CapSense_SetNegativeNoiseThreshold
 553              		.section	.text.CapSense_SetDebounce,"ax",%progbits
 554              		.align	2
 555              		.global	CapSense_SetDebounce
 556              		.code	16
 557              		.thumb_func
 558              		.type	CapSense_SetDebounce, %function
 559              	CapSense_SetDebounce:
 560              	.LFB52:
1000:Generated_Source\PSoC4/CapSense_CSHL.c **** 
1001:Generated_Source\PSoC4/CapSense_CSHL.c **** 
1002:Generated_Source\PSoC4/CapSense_CSHL.c ****     /*******************************************************************************
1003:Generated_Source\PSoC4/CapSense_CSHL.c ****     * Function Name: CapSense_SetDebounce
1004:Generated_Source\PSoC4/CapSense_CSHL.c ****     ********************************************************************************
1005:Generated_Source\PSoC4/CapSense_CSHL.c ****     *
1006:Generated_Source\PSoC4/CapSense_CSHL.c ****     * Summary:
1007:Generated_Source\PSoC4/CapSense_CSHL.c ****     *  This API sets the debounce value for a widget.
1008:Generated_Source\PSoC4/CapSense_CSHL.c ****     *
1009:Generated_Source\PSoC4/CapSense_CSHL.c ****     * Parameters:
1010:Generated_Source\PSoC4/CapSense_CSHL.c ****     *  value:  Debounce value for widget.
1011:Generated_Source\PSoC4/CapSense_CSHL.c ****     *  widget: widget index.
1012:Generated_Source\PSoC4/CapSense_CSHL.c ****     *
1013:Generated_Source\PSoC4/CapSense_CSHL.c ****     * Return Value:
1014:Generated_Source\PSoC4/CapSense_CSHL.c ****     *  None
1015:Generated_Source\PSoC4/CapSense_CSHL.c ****     *
1016:Generated_Source\PSoC4/CapSense_CSHL.c ****     * Global Variables:
1017:Generated_Source\PSoC4/CapSense_CSHL.c ****     *  CapSense_debounce[] - This array contains the debounce value for each widget.
1018:Generated_Source\PSoC4/CapSense_CSHL.c ****     *  CapSense_widgetNumberSld - structure with dynamic sliders' parameters.
1019:Generated_Source\PSoC4/CapSense_CSHL.c ****     *
1020:Generated_Source\PSoC4/CapSense_CSHL.c ****     * Side Effects:
1021:Generated_Source\PSoC4/CapSense_CSHL.c ****     *  None
1022:Generated_Source\PSoC4/CapSense_CSHL.c ****     *
1023:Generated_Source\PSoC4/CapSense_CSHL.c ****     *******************************************************************************/
1024:Generated_Source\PSoC4/CapSense_CSHL.c ****     void CapSense_SetDebounce(uint32 widget, uint8 value)
1025:Generated_Source\PSoC4/CapSense_CSHL.c ****     {
 561              		.loc 1 1025 0
 562              		.cfi_startproc
 563              		@ args = 0, pretend = 0, frame = 0
 564              		@ frame_needed = 0, uses_anonymous_args = 0
 565              		@ link register save eliminated.
 566              	.LVL42:
1026:Generated_Source\PSoC4/CapSense_CSHL.c ****         CapSense_debounce[widget] = value;
ARM GAS  C:\Users\ZURUSH~1\AppData\Local\Temp\ccmil0rU.s 			page 29


 567              		.loc 1 1026 0
 568 0000 014B     		ldr	r3, .L53
 569 0002 1954     		strb	r1, [r3, r0]
1027:Generated_Source\PSoC4/CapSense_CSHL.c ****     }
 570              		.loc 1 1027 0
 571              		@ sp needed
 572 0004 7047     		bx	lr
 573              	.L54:
 574 0006 C046     		.align	2
 575              	.L53:
 576 0008 00000000 		.word	.LANCHOR1
 577              		.cfi_endproc
 578              	.LFE52:
 579              		.size	CapSense_SetDebounce, .-CapSense_SetDebounce
 580              		.section	.text.CapSense_SetLowBaselineReset,"ax",%progbits
 581              		.align	2
 582              		.global	CapSense_SetLowBaselineReset
 583              		.code	16
 584              		.thumb_func
 585              		.type	CapSense_SetLowBaselineReset, %function
 586              	CapSense_SetLowBaselineReset:
 587              	.LFB53:
1028:Generated_Source\PSoC4/CapSense_CSHL.c **** 
1029:Generated_Source\PSoC4/CapSense_CSHL.c **** 
1030:Generated_Source\PSoC4/CapSense_CSHL.c ****     /*******************************************************************************
1031:Generated_Source\PSoC4/CapSense_CSHL.c ****     * Function Name: CapSense_SetLowBaselineReset
1032:Generated_Source\PSoC4/CapSense_CSHL.c ****     ********************************************************************************
1033:Generated_Source\PSoC4/CapSense_CSHL.c ****     *
1034:Generated_Source\PSoC4/CapSense_CSHL.c ****     * Summary:
1035:Generated_Source\PSoC4/CapSense_CSHL.c ****     *  This API sets the low baseline reset threshold value for the sensor.
1036:Generated_Source\PSoC4/CapSense_CSHL.c ****     *
1037:Generated_Source\PSoC4/CapSense_CSHL.c ****     * Parameters:
1038:Generated_Source\PSoC4/CapSense_CSHL.c ****     *  value: low baseline reset threshold value.
1039:Generated_Source\PSoC4/CapSense_CSHL.c ****     *  sensor: Sensor index.
1040:Generated_Source\PSoC4/CapSense_CSHL.c ****     *
1041:Generated_Source\PSoC4/CapSense_CSHL.c ****     * Return Value:
1042:Generated_Source\PSoC4/CapSense_CSHL.c ****     *  None
1043:Generated_Source\PSoC4/CapSense_CSHL.c ****     *
1044:Generated_Source\PSoC4/CapSense_CSHL.c ****     * Global Variables:
1045:Generated_Source\PSoC4/CapSense_CSHL.c ****     *  CapSense_lowBaselineReset[] - This array contains the Baseline update
1046:Generated_Source\PSoC4/CapSense_CSHL.c ****     *  threshold value for each sensor.
1047:Generated_Source\PSoC4/CapSense_CSHL.c ****     *
1048:Generated_Source\PSoC4/CapSense_CSHL.c ****     * Side Effects:
1049:Generated_Source\PSoC4/CapSense_CSHL.c ****     *  None
1050:Generated_Source\PSoC4/CapSense_CSHL.c ****     *
1051:Generated_Source\PSoC4/CapSense_CSHL.c ****     *******************************************************************************/
1052:Generated_Source\PSoC4/CapSense_CSHL.c ****     void CapSense_SetLowBaselineReset(uint32 sensor, uint8 value)
1053:Generated_Source\PSoC4/CapSense_CSHL.c ****     {
 588              		.loc 1 1053 0
 589              		.cfi_startproc
 590              		@ args = 0, pretend = 0, frame = 0
 591              		@ frame_needed = 0, uses_anonymous_args = 0
 592              		@ link register save eliminated.
 593              	.LVL43:
1054:Generated_Source\PSoC4/CapSense_CSHL.c ****         CapSense_lowBaselineReset[sensor] = value;
 594              		.loc 1 1054 0
 595 0000 014B     		ldr	r3, .L56
ARM GAS  C:\Users\ZURUSH~1\AppData\Local\Temp\ccmil0rU.s 			page 30


 596 0002 1818     		adds	r0, r3, r0
 597              	.LVL44:
 598 0004 0171     		strb	r1, [r0, #4]
1055:Generated_Source\PSoC4/CapSense_CSHL.c ****     }
 599              		.loc 1 1055 0
 600              		@ sp needed
 601 0006 7047     		bx	lr
 602              	.L57:
 603              		.align	2
 604              	.L56:
 605 0008 00000000 		.word	.LANCHOR1
 606              		.cfi_endproc
 607              	.LFE53:
 608              		.size	CapSense_SetLowBaselineReset, .-CapSense_SetLowBaselineReset
 609              		.section	.text.CapSense_CheckIsSensorActive,"ax",%progbits
 610              		.align	2
 611              		.global	CapSense_CheckIsSensorActive
 612              		.code	16
 613              		.thumb_func
 614              		.type	CapSense_CheckIsSensorActive, %function
 615              	CapSense_CheckIsSensorActive:
 616              	.LFB54:
1056:Generated_Source\PSoC4/CapSense_CSHL.c **** #endif /* (CapSense_TUNING_METHOD != CapSense__TUNING_NONE) */
1057:Generated_Source\PSoC4/CapSense_CSHL.c **** 
1058:Generated_Source\PSoC4/CapSense_CSHL.c **** 
1059:Generated_Source\PSoC4/CapSense_CSHL.c **** /*******************************************************************************
1060:Generated_Source\PSoC4/CapSense_CSHL.c **** * Function Name: CapSense_CheckIsSensorActive
1061:Generated_Source\PSoC4/CapSense_CSHL.c **** ********************************************************************************
1062:Generated_Source\PSoC4/CapSense_CSHL.c **** *
1063:Generated_Source\PSoC4/CapSense_CSHL.c **** * Summary:
1064:Generated_Source\PSoC4/CapSense_CSHL.c **** *  Compares the CapSense_sensorSignal[sensor] array element to the finger
1065:Generated_Source\PSoC4/CapSense_CSHL.c **** *  threshold of the widget it belongs to. The hysteresis and debounce are taken into
1066:Generated_Source\PSoC4/CapSense_CSHL.c **** *  account. The hysteresis is added or subtracted from the finger threshold
1067:Generated_Source\PSoC4/CapSense_CSHL.c **** *  based on whether the sensor is currently active.
1068:Generated_Source\PSoC4/CapSense_CSHL.c **** *  If the sensor is active, the threshold is lowered by the hysteresis amount.
1069:Generated_Source\PSoC4/CapSense_CSHL.c **** *  If the sensor is inactive, the threshold is raised by the hysteresis amount.
1070:Generated_Source\PSoC4/CapSense_CSHL.c **** *  The debounce counter is added to the sensor active transition.
1071:Generated_Source\PSoC4/CapSense_CSHL.c **** *  This function updates the CapSense_sensorOnMask[] array element.
1072:Generated_Source\PSoC4/CapSense_CSHL.c **** *
1073:Generated_Source\PSoC4/CapSense_CSHL.c **** * Parameters:
1074:Generated_Source\PSoC4/CapSense_CSHL.c **** *  sensor:  Sensor number.
1075:Generated_Source\PSoC4/CapSense_CSHL.c **** *
1076:Generated_Source\PSoC4/CapSense_CSHL.c **** * Return:
1077:Generated_Source\PSoC4/CapSense_CSHL.c **** *  Returns sensor state 1 if active, 0 if not active.
1078:Generated_Source\PSoC4/CapSense_CSHL.c **** *
1079:Generated_Source\PSoC4/CapSense_CSHL.c **** * Global Variables:
1080:Generated_Source\PSoC4/CapSense_CSHL.c **** *  CapSense_sensorSignal[] - used to store the difference between
1081:Generated_Source\PSoC4/CapSense_CSHL.c **** *  the current value of raw data and a previous value of the baseline.
1082:Generated_Source\PSoC4/CapSense_CSHL.c **** *  CapSense_debounceCounter[]   - used to store the current debounce
1083:Generated_Source\PSoC4/CapSense_CSHL.c **** *  counter of the sensor. the widget which have this parameter are buttons, matrix
1084:Generated_Source\PSoC4/CapSense_CSHL.c **** *  buttons, proximity, and guard. All other widgets don't have the  debounce parameter
1085:Generated_Source\PSoC4/CapSense_CSHL.c **** *  and use the last element of this array with value 0 (it means no debounce).
1086:Generated_Source\PSoC4/CapSense_CSHL.c **** *  CapSense_sensorOnMask[] - used to store the sensors on/off state.
1087:Generated_Source\PSoC4/CapSense_CSHL.c **** *  CapSense_sensorOnMask[0] contains the masked bits for sensors
1088:Generated_Source\PSoC4/CapSense_CSHL.c **** *   0 through 7 (sensor 0 is bit 0, sensor 1 is bit 1).
1089:Generated_Source\PSoC4/CapSense_CSHL.c **** *  CapSense_sensorEnableMask[1] contains the masked bits for
1090:Generated_Source\PSoC4/CapSense_CSHL.c **** *  sensors 8 through 15 (if needed), and so on.
ARM GAS  C:\Users\ZURUSH~1\AppData\Local\Temp\ccmil0rU.s 			page 31


1091:Generated_Source\PSoC4/CapSense_CSHL.c **** *  0 - sensor is inactive.
1092:Generated_Source\PSoC4/CapSense_CSHL.c **** *  1 - sensor is active.
1093:Generated_Source\PSoC4/CapSense_CSHL.c **** *
1094:Generated_Source\PSoC4/CapSense_CSHL.c **** * Side Effects:
1095:Generated_Source\PSoC4/CapSense_CSHL.c **** *  None
1096:Generated_Source\PSoC4/CapSense_CSHL.c **** *
1097:Generated_Source\PSoC4/CapSense_CSHL.c **** *******************************************************************************/
1098:Generated_Source\PSoC4/CapSense_CSHL.c **** uint32 CapSense_CheckIsSensorActive(uint32 sensor)
1099:Generated_Source\PSoC4/CapSense_CSHL.c **** {
 617              		.loc 1 1099 0
 618              		.cfi_startproc
 619              		@ args = 0, pretend = 0, frame = 0
 620              		@ frame_needed = 0, uses_anonymous_args = 0
 621              	.LVL45:
 622 0000 F0B5     		push	{r4, r5, r6, r7, lr}
 623              		.cfi_def_cfa_offset 20
 624              		.cfi_offset 4, -20
 625              		.cfi_offset 5, -16
 626              		.cfi_offset 6, -12
 627              		.cfi_offset 7, -8
 628              		.cfi_offset 14, -4
 629 0002 4746     		mov	r7, r8
 630 0004 80B4     		push	{r7}
 631              		.cfi_def_cfa_offset 24
 632              		.cfi_offset 8, -24
 633 0006 0400     		movs	r4, r0
1100:Generated_Source\PSoC4/CapSense_CSHL.c ****     uint8 widget;
1101:Generated_Source\PSoC4/CapSense_CSHL.c ****     uint8 debounce;
1102:Generated_Source\PSoC4/CapSense_CSHL.c ****     uint8 debounceIndex;
1103:Generated_Source\PSoC4/CapSense_CSHL.c **** 
1104:Generated_Source\PSoC4/CapSense_CSHL.c ****     uint8 fingerThreshold;
1105:Generated_Source\PSoC4/CapSense_CSHL.c ****     uint8 hysteresis;
1106:Generated_Source\PSoC4/CapSense_CSHL.c ****     
1107:Generated_Source\PSoC4/CapSense_CSHL.c **** 
1108:Generated_Source\PSoC4/CapSense_CSHL.c ****     /* Prepare to find debounce counter index */
1109:Generated_Source\PSoC4/CapSense_CSHL.c ****     widget = CapSense_widgetNumber[sensor];
 634              		.loc 1 1109 0
 635 0008 224B     		ldr	r3, .L63
 636 000a 1D5C     		ldrb	r5, [r3, r0]
1110:Generated_Source\PSoC4/CapSense_CSHL.c **** 
1111:Generated_Source\PSoC4/CapSense_CSHL.c ****     fingerThreshold = CapSense_fingerThreshold[widget];
 637              		.loc 1 1111 0
 638 000c 224B     		ldr	r3, .L63+4
 639 000e 5F5D     		ldrb	r7, [r3, r5]
 640              	.LVL46:
1112:Generated_Source\PSoC4/CapSense_CSHL.c ****     hysteresis = CapSense_hysteresis[widget];
 641              		.loc 1 1112 0
 642 0010 224B     		ldr	r3, .L63+8
 643 0012 5E5D     		ldrb	r6, [r3, r5]
 644              	.LVL47:
1113:Generated_Source\PSoC4/CapSense_CSHL.c ****     debounce = CapSense_debounce[widget];
 645              		.loc 1 1113 0
 646 0014 224B     		ldr	r3, .L63+12
 647 0016 5B5D     		ldrb	r3, [r3, r5]
 648 0018 9846     		mov	r8, r3
 649              	.LVL48:
1114:Generated_Source\PSoC4/CapSense_CSHL.c **** 
ARM GAS  C:\Users\ZURUSH~1\AppData\Local\Temp\ccmil0rU.s 			page 32


1115:Generated_Source\PSoC4/CapSense_CSHL.c ****         debounceIndex = widget;
1116:Generated_Source\PSoC4/CapSense_CSHL.c **** 
1117:Generated_Source\PSoC4/CapSense_CSHL.c **** 
1118:Generated_Source\PSoC4/CapSense_CSHL.c ****     /* Was on */
1119:Generated_Source\PSoC4/CapSense_CSHL.c ****     if (0u != CapSense_GetBitValue(CapSense_sensorOnMask, sensor))
 650              		.loc 1 1119 0
 651 001a 0100     		movs	r1, r0
 652 001c 2148     		ldr	r0, .L63+16
 653              	.LVL49:
 654 001e 1030     		adds	r0, r0, #16
 655 0020 FFF7FEFF 		bl	CapSense_GetBitValue
 656              	.LVL50:
 657 0024 0028     		cmp	r0, #0
 658 0026 10D0     		beq	.L59
1120:Generated_Source\PSoC4/CapSense_CSHL.c ****     {
1121:Generated_Source\PSoC4/CapSense_CSHL.c ****         /* Hysteresis minus */
1122:Generated_Source\PSoC4/CapSense_CSHL.c ****         if (CapSense_sensorSignal[sensor] < (fingerThreshold - hysteresis))
 659              		.loc 1 1122 0
 660 0028 1E4B     		ldr	r3, .L63+16
 661 002a 1B19     		adds	r3, r3, r4
 662 002c 1B7A     		ldrb	r3, [r3, #8]
 663 002e BE1B     		subs	r6, r7, r6
 664              	.LVL51:
 665 0030 B342     		cmp	r3, r6
 666 0032 23DA     		bge	.L60
1123:Generated_Source\PSoC4/CapSense_CSHL.c ****         {
1124:Generated_Source\PSoC4/CapSense_CSHL.c ****             CapSense_SetBitValue(CapSense_sensorOnMask, sensor, 0u);
 667              		.loc 1 1124 0
 668 0034 1B4E     		ldr	r6, .L63+16
 669 0036 3000     		movs	r0, r6
 670 0038 1030     		adds	r0, r0, #16
 671 003a 0022     		movs	r2, #0
 672 003c 2100     		movs	r1, r4
 673 003e FFF7FEFF 		bl	CapSense_SetBitValue
 674              	.LVL52:
1125:Generated_Source\PSoC4/CapSense_CSHL.c ****             /* Sensor inactive - reset Debounce counter */
1126:Generated_Source\PSoC4/CapSense_CSHL.c ****             CapSense_debounceCounter[debounceIndex] = debounce;
 675              		.loc 1 1126 0
 676 0042 7519     		adds	r5, r6, r5
 677 0044 4346     		mov	r3, r8
 678 0046 2B73     		strb	r3, [r5, #12]
 679 0048 18E0     		b	.L60
 680              	.LVL53:
 681              	.L59:
1127:Generated_Source\PSoC4/CapSense_CSHL.c ****         }
1128:Generated_Source\PSoC4/CapSense_CSHL.c ****     }
1129:Generated_Source\PSoC4/CapSense_CSHL.c ****     else    /* Was off */
1130:Generated_Source\PSoC4/CapSense_CSHL.c ****     {
1131:Generated_Source\PSoC4/CapSense_CSHL.c ****         /* Hysteresis plus */
1132:Generated_Source\PSoC4/CapSense_CSHL.c ****         if (CapSense_sensorSignal[sensor] >= (fingerThreshold + hysteresis))
 682              		.loc 1 1132 0
 683 004a 164B     		ldr	r3, .L63+16
 684 004c 1B19     		adds	r3, r3, r4
 685 004e 1B7A     		ldrb	r3, [r3, #8]
 686 0050 BE19     		adds	r6, r7, r6
 687              	.LVL54:
 688 0052 B342     		cmp	r3, r6
ARM GAS  C:\Users\ZURUSH~1\AppData\Local\Temp\ccmil0rU.s 			page 33


 689 0054 0EDB     		blt	.L61
1133:Generated_Source\PSoC4/CapSense_CSHL.c ****         {
1134:Generated_Source\PSoC4/CapSense_CSHL.c ****             CapSense_debounceCounter[debounceIndex]--;
 690              		.loc 1 1134 0
 691 0056 134B     		ldr	r3, .L63+16
 692 0058 5D19     		adds	r5, r3, r5
 693 005a 2B7B     		ldrb	r3, [r5, #12]
 694 005c 013B     		subs	r3, r3, #1
 695 005e DBB2     		uxtb	r3, r3
 696 0060 2B73     		strb	r3, [r5, #12]
1135:Generated_Source\PSoC4/CapSense_CSHL.c ****             /* Sensor active, decrement debounce counter */
1136:Generated_Source\PSoC4/CapSense_CSHL.c ****             if(CapSense_debounceCounter[debounceIndex] == 0u)
 697              		.loc 1 1136 0
 698 0062 002B     		cmp	r3, #0
 699 0064 0AD1     		bne	.L60
1137:Generated_Source\PSoC4/CapSense_CSHL.c ****             {
1138:Generated_Source\PSoC4/CapSense_CSHL.c ****                 CapSense_SetBitValue(CapSense_sensorOnMask, sensor, 1u);
 700              		.loc 1 1138 0
 701 0066 0122     		movs	r2, #1
 702 0068 2100     		movs	r1, r4
 703 006a 0E48     		ldr	r0, .L63+16
 704 006c 1030     		adds	r0, r0, #16
 705 006e FFF7FEFF 		bl	CapSense_SetBitValue
 706              	.LVL55:
 707 0072 03E0     		b	.L60
 708              	.L61:
1139:Generated_Source\PSoC4/CapSense_CSHL.c ****             }
1140:Generated_Source\PSoC4/CapSense_CSHL.c ****         }
1141:Generated_Source\PSoC4/CapSense_CSHL.c ****         else
1142:Generated_Source\PSoC4/CapSense_CSHL.c ****         {
1143:Generated_Source\PSoC4/CapSense_CSHL.c ****             /* Sensor inactive - reset Debounce counter */
1144:Generated_Source\PSoC4/CapSense_CSHL.c ****             CapSense_debounceCounter[debounceIndex] = debounce;
 709              		.loc 1 1144 0
 710 0074 0B4B     		ldr	r3, .L63+16
 711 0076 5D19     		adds	r5, r3, r5
 712 0078 4346     		mov	r3, r8
 713 007a 2B73     		strb	r3, [r5, #12]
 714              	.L60:
1145:Generated_Source\PSoC4/CapSense_CSHL.c ****         }
1146:Generated_Source\PSoC4/CapSense_CSHL.c ****     }
1147:Generated_Source\PSoC4/CapSense_CSHL.c **** 
1148:Generated_Source\PSoC4/CapSense_CSHL.c ****     return ((uint32)((0u != CapSense_GetBitValue(CapSense_sensorOnMask, sensor)) ? 1u : 0u));
 715              		.loc 1 1148 0
 716 007c 2100     		movs	r1, r4
 717 007e 0948     		ldr	r0, .L63+16
 718 0080 1030     		adds	r0, r0, #16
 719 0082 FFF7FEFF 		bl	CapSense_GetBitValue
 720              	.LVL56:
 721 0086 0028     		cmp	r0, #0
 722 0088 00D0     		beq	.L62
 723 008a 0120     		movs	r0, #1
 724              	.L62:
1149:Generated_Source\PSoC4/CapSense_CSHL.c **** }
 725              		.loc 1 1149 0 discriminator 4
 726              		@ sp needed
 727              	.LVL57:
 728              	.LVL58:
ARM GAS  C:\Users\ZURUSH~1\AppData\Local\Temp\ccmil0rU.s 			page 34


 729              	.LVL59:
 730 008c 04BC     		pop	{r2}
 731 008e 9046     		mov	r8, r2
 732 0090 F0BD     		pop	{r4, r5, r6, r7, pc}
 733              	.L64:
 734 0092 C046     		.align	2
 735              	.L63:
 736 0094 00000000 		.word	CapSense_widgetNumber
 737 0098 00000000 		.word	CapSense_fingerThreshold
 738 009c 00000000 		.word	CapSense_hysteresis
 739 00a0 00000000 		.word	.LANCHOR1
 740 00a4 00000000 		.word	.LANCHOR0
 741              		.cfi_endproc
 742              	.LFE54:
 743              		.size	CapSense_CheckIsSensorActive, .-CapSense_CheckIsSensorActive
 744              		.section	.text.CapSense_CheckIsWidgetActive,"ax",%progbits
 745              		.align	2
 746              		.global	CapSense_CheckIsWidgetActive
 747              		.code	16
 748              		.thumb_func
 749              		.type	CapSense_CheckIsWidgetActive, %function
 750              	CapSense_CheckIsWidgetActive:
 751              	.LFB55:
1150:Generated_Source\PSoC4/CapSense_CSHL.c **** 
1151:Generated_Source\PSoC4/CapSense_CSHL.c **** 
1152:Generated_Source\PSoC4/CapSense_CSHL.c **** /*******************************************************************************
1153:Generated_Source\PSoC4/CapSense_CSHL.c **** * Function Name: CapSense_CheckIsWidgetActive
1154:Generated_Source\PSoC4/CapSense_CSHL.c **** ********************************************************************************
1155:Generated_Source\PSoC4/CapSense_CSHL.c **** *
1156:Generated_Source\PSoC4/CapSense_CSHL.c **** * Summary:
1157:Generated_Source\PSoC4/CapSense_CSHL.c **** *  Compares the CapSense_sensorSignal[] array element to the finger threshold of
1158:Generated_Source\PSoC4/CapSense_CSHL.c **** * the widget it belongs to. The hysteresis and debounce are taken into account.
1159:Generated_Source\PSoC4/CapSense_CSHL.c **** * The hysteresis is added or subtracted from the finger threshold based on whether
1160:Generated_Source\PSoC4/CapSense_CSHL.c **** *  the sensor is currently active. If the sensor is active, the threshold is
1161:Generated_Source\PSoC4/CapSense_CSHL.c **** *  lowered by the hysteresis amount. If the sensor is inactive, the threshold
1162:Generated_Source\PSoC4/CapSense_CSHL.c **** *  is raised by the hysteresis amount.
1163:Generated_Source\PSoC4/CapSense_CSHL.c **** * The debounce counter added to the sensor active transition.
1164:Generated_Source\PSoC4/CapSense_CSHL.c **** * This function updates CapSense_sensorOnMask[] array element
1165:Generated_Source\PSoC4/CapSense_CSHL.c **** *
1166:Generated_Source\PSoC4/CapSense_CSHL.c **** * Parameters:
1167:Generated_Source\PSoC4/CapSense_CSHL.c **** *  widget:  widget number.
1168:Generated_Source\PSoC4/CapSense_CSHL.c **** *
1169:Generated_Source\PSoC4/CapSense_CSHL.c **** * Return:
1170:Generated_Source\PSoC4/CapSense_CSHL.c **** *  Returns widget sensor state 1 if one or more sensors within widget is/are
1171:Generated_Source\PSoC4/CapSense_CSHL.c **** *  active, 0 if all sensors within widget are inactive.
1172:Generated_Source\PSoC4/CapSense_CSHL.c **** *
1173:Generated_Source\PSoC4/CapSense_CSHL.c **** * Global Variables:
1174:Generated_Source\PSoC4/CapSense_CSHL.c **** *  rawDataIndex[]: Contains the  1st sensor position in the widget
1175:Generated_Source\PSoC4/CapSense_CSHL.c **** *
1176:Generated_Source\PSoC4/CapSense_CSHL.c **** * Side Effects:
1177:Generated_Source\PSoC4/CapSense_CSHL.c **** *  None
1178:Generated_Source\PSoC4/CapSense_CSHL.c **** *
1179:Generated_Source\PSoC4/CapSense_CSHL.c **** *******************************************************************************/
1180:Generated_Source\PSoC4/CapSense_CSHL.c **** uint32 CapSense_CheckIsWidgetActive(uint32 widget)
1181:Generated_Source\PSoC4/CapSense_CSHL.c **** {
 752              		.loc 1 1181 0
 753              		.cfi_startproc
ARM GAS  C:\Users\ZURUSH~1\AppData\Local\Temp\ccmil0rU.s 			page 35


 754              		@ args = 0, pretend = 0, frame = 0
 755              		@ frame_needed = 0, uses_anonymous_args = 0
 756              	.LVL60:
 757 0000 10B5     		push	{r4, lr}
 758              		.cfi_def_cfa_offset 8
 759              		.cfi_offset 4, -8
 760              		.cfi_offset 14, -4
 761              	.LVL61:
1182:Generated_Source\PSoC4/CapSense_CSHL.c ****     uint32 rawIndex = (uint32)CapSense_rawDataIndex[widget];
1183:Generated_Source\PSoC4/CapSense_CSHL.c ****     uint32 numOfSensors = (uint32)CapSense_numberOfSensors[widget] + rawIndex;
1184:Generated_Source\PSoC4/CapSense_CSHL.c ****     uint32 state = 0u;
1185:Generated_Source\PSoC4/CapSense_CSHL.c **** 
1186:Generated_Source\PSoC4/CapSense_CSHL.c ****     /* Check all sensors of widget */
1187:Generated_Source\PSoC4/CapSense_CSHL.c ****     do
1188:Generated_Source\PSoC4/CapSense_CSHL.c ****     {
1189:Generated_Source\PSoC4/CapSense_CSHL.c ****         if(CapSense_CheckIsSensorActive((uint32)rawIndex) != 0u)
 762              		.loc 1 1189 0
 763 0002 0020     		movs	r0, #0
 764              	.LVL62:
 765 0004 FFF7FEFF 		bl	CapSense_CheckIsSensorActive
 766              	.LVL63:
 767 0008 0028     		cmp	r0, #0
 768 000a 00D0     		beq	.L66
1190:Generated_Source\PSoC4/CapSense_CSHL.c ****         {
1191:Generated_Source\PSoC4/CapSense_CSHL.c ****             state = CapSense_SENSOR_IS_ACTIVE;
 769              		.loc 1 1191 0
 770 000c 0120     		movs	r0, #1
 771              	.L66:
 772              	.LVL64:
1192:Generated_Source\PSoC4/CapSense_CSHL.c ****         }
1193:Generated_Source\PSoC4/CapSense_CSHL.c ****         rawIndex++;
1194:Generated_Source\PSoC4/CapSense_CSHL.c ****     }
1195:Generated_Source\PSoC4/CapSense_CSHL.c ****     while(rawIndex < numOfSensors);
1196:Generated_Source\PSoC4/CapSense_CSHL.c **** 
1197:Generated_Source\PSoC4/CapSense_CSHL.c **** 
1198:Generated_Source\PSoC4/CapSense_CSHL.c **** 
1199:Generated_Source\PSoC4/CapSense_CSHL.c ****     return state;
1200:Generated_Source\PSoC4/CapSense_CSHL.c **** }
 773              		.loc 1 1200 0
 774              		@ sp needed
 775 000e 10BD     		pop	{r4, pc}
 776              		.cfi_endproc
 777              	.LFE55:
 778              		.size	CapSense_CheckIsWidgetActive, .-CapSense_CheckIsWidgetActive
 779              		.section	.text.CapSense_CheckIsAnyWidgetActive,"ax",%progbits
 780              		.align	2
 781              		.global	CapSense_CheckIsAnyWidgetActive
 782              		.code	16
 783              		.thumb_func
 784              		.type	CapSense_CheckIsAnyWidgetActive, %function
 785              	CapSense_CheckIsAnyWidgetActive:
 786              	.LFB56:
1201:Generated_Source\PSoC4/CapSense_CSHL.c **** 
1202:Generated_Source\PSoC4/CapSense_CSHL.c **** 
1203:Generated_Source\PSoC4/CapSense_CSHL.c **** /*******************************************************************************
1204:Generated_Source\PSoC4/CapSense_CSHL.c **** * Function Name: CapSense_CheckIsAnyWidgetActive
1205:Generated_Source\PSoC4/CapSense_CSHL.c **** ********************************************************************************
ARM GAS  C:\Users\ZURUSH~1\AppData\Local\Temp\ccmil0rU.s 			page 36


1206:Generated_Source\PSoC4/CapSense_CSHL.c **** *
1207:Generated_Source\PSoC4/CapSense_CSHL.c **** * Summary:
1208:Generated_Source\PSoC4/CapSense_CSHL.c **** *  Compares all the sensors of the CapSense_Signal[] array to their finger
1209:Generated_Source\PSoC4/CapSense_CSHL.c **** *  threshold. Calls CapSense_CheckIsWidgetActive() for each widget so
1210:Generated_Source\PSoC4/CapSense_CSHL.c **** *  the CapSense_sensorOnMask[] array is up to date after calling this
1211:Generated_Source\PSoC4/CapSense_CSHL.c **** *  function.
1212:Generated_Source\PSoC4/CapSense_CSHL.c **** *
1213:Generated_Source\PSoC4/CapSense_CSHL.c **** * Parameters:
1214:Generated_Source\PSoC4/CapSense_CSHL.c **** *  widget:  widget number.
1215:Generated_Source\PSoC4/CapSense_CSHL.c **** *
1216:Generated_Source\PSoC4/CapSense_CSHL.c **** * Return:
1217:Generated_Source\PSoC4/CapSense_CSHL.c **** *  Returns 1 if any widget is active, 0 none of widgets are active.
1218:Generated_Source\PSoC4/CapSense_CSHL.c **** *
1219:Generated_Source\PSoC4/CapSense_CSHL.c **** * Global Variables:
1220:Generated_Source\PSoC4/CapSense_CSHL.c **** *  None
1221:Generated_Source\PSoC4/CapSense_CSHL.c **** *
1222:Generated_Source\PSoC4/CapSense_CSHL.c **** * Side Effects:
1223:Generated_Source\PSoC4/CapSense_CSHL.c **** *  None
1224:Generated_Source\PSoC4/CapSense_CSHL.c **** *
1225:Generated_Source\PSoC4/CapSense_CSHL.c **** *******************************************************************************/
1226:Generated_Source\PSoC4/CapSense_CSHL.c **** uint32 CapSense_CheckIsAnyWidgetActive(void)
1227:Generated_Source\PSoC4/CapSense_CSHL.c **** {
 787              		.loc 1 1227 0
 788              		.cfi_startproc
 789              		@ args = 0, pretend = 0, frame = 0
 790              		@ frame_needed = 0, uses_anonymous_args = 0
 791 0000 70B5     		push	{r4, r5, r6, lr}
 792              		.cfi_def_cfa_offset 16
 793              		.cfi_offset 4, -16
 794              		.cfi_offset 5, -12
 795              		.cfi_offset 6, -8
 796              		.cfi_offset 14, -4
 797              	.LVL65:
1228:Generated_Source\PSoC4/CapSense_CSHL.c **** 
1229:Generated_Source\PSoC4/CapSense_CSHL.c ****         uint32 i;
1230:Generated_Source\PSoC4/CapSense_CSHL.c ****     uint32 state = 0u;
 798              		.loc 1 1230 0
 799 0002 0025     		movs	r5, #0
1231:Generated_Source\PSoC4/CapSense_CSHL.c ****     
1232:Generated_Source\PSoC4/CapSense_CSHL.c ****     for(i = 0u; i < CapSense_TOTAL_WIDGET_COUNT; i++)
 800              		.loc 1 1232 0
 801 0004 0024     		movs	r4, #0
 802 0006 06E0     		b	.L69
 803              	.LVL66:
 804              	.L71:
1233:Generated_Source\PSoC4/CapSense_CSHL.c ****     {
1234:Generated_Source\PSoC4/CapSense_CSHL.c ****         if (CapSense_CheckIsWidgetActive(i) != 0u)
 805              		.loc 1 1234 0
 806 0008 2000     		movs	r0, r4
 807 000a FFF7FEFF 		bl	CapSense_CheckIsWidgetActive
 808              	.LVL67:
 809 000e 0028     		cmp	r0, #0
 810 0010 00D0     		beq	.L70
1235:Generated_Source\PSoC4/CapSense_CSHL.c ****         {
1236:Generated_Source\PSoC4/CapSense_CSHL.c ****             state = CapSense_WIDGET_IS_ACTIVE;
 811              		.loc 1 1236 0
 812 0012 0125     		movs	r5, #1
ARM GAS  C:\Users\ZURUSH~1\AppData\Local\Temp\ccmil0rU.s 			page 37


 813              	.LVL68:
 814              	.L70:
1232:Generated_Source\PSoC4/CapSense_CSHL.c ****     {
 815              		.loc 1 1232 0 discriminator 2
 816 0014 0134     		adds	r4, r4, #1
 817              	.LVL69:
 818              	.L69:
1232:Generated_Source\PSoC4/CapSense_CSHL.c ****     {
 819              		.loc 1 1232 0 is_stmt 0 discriminator 1
 820 0016 002C     		cmp	r4, #0
 821 0018 F6D0     		beq	.L71
1237:Generated_Source\PSoC4/CapSense_CSHL.c ****         }
1238:Generated_Source\PSoC4/CapSense_CSHL.c ****     }
1239:Generated_Source\PSoC4/CapSense_CSHL.c ****     
1240:Generated_Source\PSoC4/CapSense_CSHL.c **** 
1241:Generated_Source\PSoC4/CapSense_CSHL.c **** 
1242:Generated_Source\PSoC4/CapSense_CSHL.c ****     return state;
1243:Generated_Source\PSoC4/CapSense_CSHL.c **** }
 822              		.loc 1 1243 0 is_stmt 1
 823 001a 2800     		movs	r0, r5
 824              		@ sp needed
 825              	.LVL70:
 826              	.LVL71:
 827 001c 70BD     		pop	{r4, r5, r6, pc}
 828              		.cfi_endproc
 829              	.LFE56:
 830              		.size	CapSense_CheckIsAnyWidgetActive, .-CapSense_CheckIsAnyWidgetActive
 831 001e C046     		.section	.text.CapSense_EnableWidget,"ax",%progbits
 832              		.align	2
 833              		.global	CapSense_EnableWidget
 834              		.code	16
 835              		.thumb_func
 836              		.type	CapSense_EnableWidget, %function
 837              	CapSense_EnableWidget:
 838              	.LFB57:
1244:Generated_Source\PSoC4/CapSense_CSHL.c **** 
1245:Generated_Source\PSoC4/CapSense_CSHL.c **** 
1246:Generated_Source\PSoC4/CapSense_CSHL.c **** /*******************************************************************************
1247:Generated_Source\PSoC4/CapSense_CSHL.c **** * Function Name: CapSense_EnableWidget
1248:Generated_Source\PSoC4/CapSense_CSHL.c **** ********************************************************************************
1249:Generated_Source\PSoC4/CapSense_CSHL.c **** *
1250:Generated_Source\PSoC4/CapSense_CSHL.c **** * Summary:
1251:Generated_Source\PSoC4/CapSense_CSHL.c **** *  Enables all the widget elements (sensors) to the scanning process.
1252:Generated_Source\PSoC4/CapSense_CSHL.c **** *
1253:Generated_Source\PSoC4/CapSense_CSHL.c **** * Parameters:
1254:Generated_Source\PSoC4/CapSense_CSHL.c **** *  widget:  widget number.
1255:Generated_Source\PSoC4/CapSense_CSHL.c **** *
1256:Generated_Source\PSoC4/CapSense_CSHL.c **** * Return:
1257:Generated_Source\PSoC4/CapSense_CSHL.c **** *  None
1258:Generated_Source\PSoC4/CapSense_CSHL.c **** *
1259:Generated_Source\PSoC4/CapSense_CSHL.c **** * Global Variables:
1260:Generated_Source\PSoC4/CapSense_CSHL.c **** *  CapSense_sensorEnableMask[] - used to store the sensor scanning
1261:Generated_Source\PSoC4/CapSense_CSHL.c **** *  state.
1262:Generated_Source\PSoC4/CapSense_CSHL.c **** *  CapSense_sensorEnableMask[0] contains the masked bits for sensors
1263:Generated_Source\PSoC4/CapSense_CSHL.c **** *  0 through 7 (sensor 0 is bit 0, sensor 1 is bit 1).
1264:Generated_Source\PSoC4/CapSense_CSHL.c **** *  CapSense_sensorEnableMask[1] contains the masked bits for
1265:Generated_Source\PSoC4/CapSense_CSHL.c **** *  sensors 8 through 15 (if needed), and so on.
ARM GAS  C:\Users\ZURUSH~1\AppData\Local\Temp\ccmil0rU.s 			page 38


1266:Generated_Source\PSoC4/CapSense_CSHL.c **** *  0 - sensor doesn't scan by CapSense_ScanEnabledWidgets().
1267:Generated_Source\PSoC4/CapSense_CSHL.c **** *  1 - sensor scans by CapSense_ScanEnabledWidgets().
1268:Generated_Source\PSoC4/CapSense_CSHL.c **** *
1269:Generated_Source\PSoC4/CapSense_CSHL.c **** * Side Effects:
1270:Generated_Source\PSoC4/CapSense_CSHL.c **** *  None
1271:Generated_Source\PSoC4/CapSense_CSHL.c **** *
1272:Generated_Source\PSoC4/CapSense_CSHL.c **** *******************************************************************************/
1273:Generated_Source\PSoC4/CapSense_CSHL.c **** void CapSense_EnableWidget(uint32 widget)
1274:Generated_Source\PSoC4/CapSense_CSHL.c **** {
 839              		.loc 1 1274 0
 840              		.cfi_startproc
 841              		@ args = 0, pretend = 0, frame = 0
 842              		@ frame_needed = 0, uses_anonymous_args = 0
 843              	.LVL72:
 844 0000 10B5     		push	{r4, lr}
 845              		.cfi_def_cfa_offset 8
 846              		.cfi_offset 4, -8
 847              		.cfi_offset 14, -4
 848              	.LVL73:
1275:Generated_Source\PSoC4/CapSense_CSHL.c **** 
1276:Generated_Source\PSoC4/CapSense_CSHL.c ****     uint8 rawIndex = CapSense_rawDataIndex[widget];
1277:Generated_Source\PSoC4/CapSense_CSHL.c ****     uint8 numOfSensors = CapSense_numberOfSensors[widget] + rawIndex;
1278:Generated_Source\PSoC4/CapSense_CSHL.c **** 
1279:Generated_Source\PSoC4/CapSense_CSHL.c ****     /* Enable all sensors of widget */
1280:Generated_Source\PSoC4/CapSense_CSHL.c ****     do
1281:Generated_Source\PSoC4/CapSense_CSHL.c ****     {
1282:Generated_Source\PSoC4/CapSense_CSHL.c ****         CapSense_SetBitValue(CapSense_sensorEnableMask, (uint32)rawIndex, 1u);
 849              		.loc 1 1282 0
 850 0002 0122     		movs	r2, #1
 851 0004 0021     		movs	r1, #0
 852 0006 0248     		ldr	r0, .L74
 853              	.LVL74:
 854 0008 FFF7FEFF 		bl	CapSense_SetBitValue
 855              	.LVL75:
1283:Generated_Source\PSoC4/CapSense_CSHL.c ****         rawIndex++;
1284:Generated_Source\PSoC4/CapSense_CSHL.c ****     }
1285:Generated_Source\PSoC4/CapSense_CSHL.c ****     while(rawIndex < numOfSensors);
1286:Generated_Source\PSoC4/CapSense_CSHL.c **** }
 856              		.loc 1 1286 0
 857              		@ sp needed
 858 000c 10BD     		pop	{r4, pc}
 859              	.L75:
 860 000e C046     		.align	2
 861              	.L74:
 862 0010 00000000 		.word	CapSense_sensorEnableMask
 863              		.cfi_endproc
 864              	.LFE57:
 865              		.size	CapSense_EnableWidget, .-CapSense_EnableWidget
 866              		.section	.text.CapSense_DisableWidget,"ax",%progbits
 867              		.align	2
 868              		.global	CapSense_DisableWidget
 869              		.code	16
 870              		.thumb_func
 871              		.type	CapSense_DisableWidget, %function
 872              	CapSense_DisableWidget:
 873              	.LFB58:
1287:Generated_Source\PSoC4/CapSense_CSHL.c **** 
ARM GAS  C:\Users\ZURUSH~1\AppData\Local\Temp\ccmil0rU.s 			page 39


1288:Generated_Source\PSoC4/CapSense_CSHL.c **** 
1289:Generated_Source\PSoC4/CapSense_CSHL.c **** /*******************************************************************************
1290:Generated_Source\PSoC4/CapSense_CSHL.c **** * Function Name: CapSense_DisableWidget
1291:Generated_Source\PSoC4/CapSense_CSHL.c **** ********************************************************************************
1292:Generated_Source\PSoC4/CapSense_CSHL.c **** *
1293:Generated_Source\PSoC4/CapSense_CSHL.c **** * Summary:
1294:Generated_Source\PSoC4/CapSense_CSHL.c **** *  Disables all the widget elements (sensors) from the scanning process.
1295:Generated_Source\PSoC4/CapSense_CSHL.c **** *
1296:Generated_Source\PSoC4/CapSense_CSHL.c **** * Parameters:
1297:Generated_Source\PSoC4/CapSense_CSHL.c **** *  widget:  widget number.
1298:Generated_Source\PSoC4/CapSense_CSHL.c **** *
1299:Generated_Source\PSoC4/CapSense_CSHL.c **** * Return:
1300:Generated_Source\PSoC4/CapSense_CSHL.c **** *  None
1301:Generated_Source\PSoC4/CapSense_CSHL.c **** *
1302:Generated_Source\PSoC4/CapSense_CSHL.c **** * Global Variables:
1303:Generated_Source\PSoC4/CapSense_CSHL.c **** *  CapSense_sensorEnableMask[] - used to store the sensor scanning
1304:Generated_Source\PSoC4/CapSense_CSHL.c **** *  state.
1305:Generated_Source\PSoC4/CapSense_CSHL.c **** *  CapSense_sensorEnableMask[0] contains the masked bits for sensors
1306:Generated_Source\PSoC4/CapSense_CSHL.c **** *  0 through 7 (sensor 0 is bit 0, sensor 1 is bit 1).
1307:Generated_Source\PSoC4/CapSense_CSHL.c **** *  CapSense_sensorEnableMask[1] contains the masked bits for
1308:Generated_Source\PSoC4/CapSense_CSHL.c **** *  sensors 8 through 15 (if needed), and so on.
1309:Generated_Source\PSoC4/CapSense_CSHL.c **** *  0 - sensor isn't scanned by CapSense_ScanEnabledWidgets().
1310:Generated_Source\PSoC4/CapSense_CSHL.c **** *  1 - sensor is scanned by CapSense_ScanEnabledWidgets().
1311:Generated_Source\PSoC4/CapSense_CSHL.c **** *
1312:Generated_Source\PSoC4/CapSense_CSHL.c **** * Side Effects:
1313:Generated_Source\PSoC4/CapSense_CSHL.c **** *  None
1314:Generated_Source\PSoC4/CapSense_CSHL.c **** *
1315:Generated_Source\PSoC4/CapSense_CSHL.c **** *******************************************************************************/
1316:Generated_Source\PSoC4/CapSense_CSHL.c **** void CapSense_DisableWidget(uint32 widget)
1317:Generated_Source\PSoC4/CapSense_CSHL.c **** {
 874              		.loc 1 1317 0
 875              		.cfi_startproc
 876              		@ args = 0, pretend = 0, frame = 0
 877              		@ frame_needed = 0, uses_anonymous_args = 0
 878              	.LVL76:
 879 0000 10B5     		push	{r4, lr}
 880              		.cfi_def_cfa_offset 8
 881              		.cfi_offset 4, -8
 882              		.cfi_offset 14, -4
 883              	.LVL77:
1318:Generated_Source\PSoC4/CapSense_CSHL.c ****     uint8 rawIndex = CapSense_rawDataIndex[widget];
1319:Generated_Source\PSoC4/CapSense_CSHL.c ****     uint8 numOfSensors = CapSense_numberOfSensors[widget] + rawIndex;
1320:Generated_Source\PSoC4/CapSense_CSHL.c **** 
1321:Generated_Source\PSoC4/CapSense_CSHL.c ****     /* Disable all sensors of widget */
1322:Generated_Source\PSoC4/CapSense_CSHL.c ****     do
1323:Generated_Source\PSoC4/CapSense_CSHL.c ****     {
1324:Generated_Source\PSoC4/CapSense_CSHL.c **** 
1325:Generated_Source\PSoC4/CapSense_CSHL.c ****         CapSense_SetBitValue(CapSense_sensorEnableMask, (uint32)rawIndex, 0u);
 884              		.loc 1 1325 0
 885 0002 0022     		movs	r2, #0
 886 0004 0021     		movs	r1, #0
 887 0006 0248     		ldr	r0, .L77
 888              	.LVL78:
 889 0008 FFF7FEFF 		bl	CapSense_SetBitValue
 890              	.LVL79:
1326:Generated_Source\PSoC4/CapSense_CSHL.c ****         rawIndex++;
1327:Generated_Source\PSoC4/CapSense_CSHL.c ****     }
ARM GAS  C:\Users\ZURUSH~1\AppData\Local\Temp\ccmil0rU.s 			page 40


1328:Generated_Source\PSoC4/CapSense_CSHL.c ****     while(rawIndex < numOfSensors);
1329:Generated_Source\PSoC4/CapSense_CSHL.c **** }
 891              		.loc 1 1329 0
 892              		@ sp needed
 893 000c 10BD     		pop	{r4, pc}
 894              	.L78:
 895 000e C046     		.align	2
 896              	.L77:
 897 0010 00000000 		.word	CapSense_sensorEnableMask
 898              		.cfi_endproc
 899              	.LFE58:
 900              		.size	CapSense_DisableWidget, .-CapSense_DisableWidget
 901              		.section	.text.CapSense_MedianFilter,"ax",%progbits
 902              		.align	2
 903              		.global	CapSense_MedianFilter
 904              		.code	16
 905              		.thumb_func
 906              		.type	CapSense_MedianFilter, %function
 907              	CapSense_MedianFilter:
 908              	.LFB59:
1330:Generated_Source\PSoC4/CapSense_CSHL.c **** 
1331:Generated_Source\PSoC4/CapSense_CSHL.c **** 
1332:Generated_Source\PSoC4/CapSense_CSHL.c **** #if(CapSense_TOTAL_CENTROIDS_BASIC_COUNT)
1333:Generated_Source\PSoC4/CapSense_CSHL.c ****     /*******************************************************************************
1334:Generated_Source\PSoC4/CapSense_CSHL.c ****     * Function Name: CapSense_FindMaximum
1335:Generated_Source\PSoC4/CapSense_CSHL.c ****     ********************************************************************************
1336:Generated_Source\PSoC4/CapSense_CSHL.c ****     *
1337:Generated_Source\PSoC4/CapSense_CSHL.c ****     * Summary:
1338:Generated_Source\PSoC4/CapSense_CSHL.c ****     *  Finds the index of the maximum element within a defined centroid. Checks
1339:Generated_Source\PSoC4/CapSense_CSHL.c ****     *  CapSense_sensorSignal[] within a defined centroid and
1340:Generated_Source\PSoC4/CapSense_CSHL.c ****     *  returns the index of the maximum element. The values below the finger threshold are
1341:Generated_Source\PSoC4/CapSense_CSHL.c ****     *  ignored.
1342:Generated_Source\PSoC4/CapSense_CSHL.c ****     *  The centroid is defined by offset of the first element and a number of elements - count.
1343:Generated_Source\PSoC4/CapSense_CSHL.c ****     *  The diplexed centroid requires at least two consecutive elements above
1344:Generated_Source\PSoC4/CapSense_CSHL.c ****     *  FingerThreshold to find the index of the maximum element.
1345:Generated_Source\PSoC4/CapSense_CSHL.c ****     *
1346:Generated_Source\PSoC4/CapSense_CSHL.c ****     * Parameters:
1347:Generated_Source\PSoC4/CapSense_CSHL.c ****     *  offset:  Start index of centroid in CapSense_sensorSignal[] array.
1348:Generated_Source\PSoC4/CapSense_CSHL.c ****     *  count:   number of elements within centroid.
1349:Generated_Source\PSoC4/CapSense_CSHL.c ****     *  fingerThreshold:  Finger threshold.
1350:Generated_Source\PSoC4/CapSense_CSHL.c ****     *  diplex:   pointer to diplex table.
1351:Generated_Source\PSoC4/CapSense_CSHL.c ****     *
1352:Generated_Source\PSoC4/CapSense_CSHL.c ****     * Return:
1353:Generated_Source\PSoC4/CapSense_CSHL.c ****     *  Returns the index of the maximum element within a defined centroid.
1354:Generated_Source\PSoC4/CapSense_CSHL.c ****     *  If the index of the maximum element isn't found it returns 0xFF.
1355:Generated_Source\PSoC4/CapSense_CSHL.c ****     *
1356:Generated_Source\PSoC4/CapSense_CSHL.c ****     * Global Variables:
1357:Generated_Source\PSoC4/CapSense_CSHL.c ****     *  CapSense_startOfSlider[] - contains the index of the first slider element
1358:Generated_Source\PSoC4/CapSense_CSHL.c ****     *
1359:Generated_Source\PSoC4/CapSense_CSHL.c ****     * Side Effects:
1360:Generated_Source\PSoC4/CapSense_CSHL.c ****     *  None
1361:Generated_Source\PSoC4/CapSense_CSHL.c ****     *
1362:Generated_Source\PSoC4/CapSense_CSHL.c ****     *******************************************************************************/
1363:Generated_Source\PSoC4/CapSense_CSHL.c ****     #if (CapSense_IS_DIPLEX_SLIDER)
1364:Generated_Source\PSoC4/CapSense_CSHL.c ****         uint8 CapSense_FindMaximum(uint8 offset, uint8 count, uint8 fingerThreshold, const uint8 *d
1365:Generated_Source\PSoC4/CapSense_CSHL.c ****     #else
1366:Generated_Source\PSoC4/CapSense_CSHL.c ****         uint8 CapSense_FindMaximum(uint8 offset, uint8 count, uint8 fingerThreshold)
ARM GAS  C:\Users\ZURUSH~1\AppData\Local\Temp\ccmil0rU.s 			page 41


1367:Generated_Source\PSoC4/CapSense_CSHL.c ****     #endif /* (CapSense_IS_DIPLEX_SLIDER) */
1368:Generated_Source\PSoC4/CapSense_CSHL.c ****     {
1369:Generated_Source\PSoC4/CapSense_CSHL.c ****         uint8 i;
1370:Generated_Source\PSoC4/CapSense_CSHL.c ****         #if (CapSense_IS_DIPLEX_SLIDER)
1371:Generated_Source\PSoC4/CapSense_CSHL.c ****             uint8 curPos = 0u;
1372:Generated_Source\PSoC4/CapSense_CSHL.c ****             /* No centroid at Start */
1373:Generated_Source\PSoC4/CapSense_CSHL.c ****             uint8 curCntrdSize = 0u;
1374:Generated_Source\PSoC4/CapSense_CSHL.c ****             uint8 curCtrdStartPos = CapSense_MAXIMUM_CENTROID;
1375:Generated_Source\PSoC4/CapSense_CSHL.c ****             /* Biggest centroid is zero */
1376:Generated_Source\PSoC4/CapSense_CSHL.c ****             uint8 biggestCtrdSize = 0u;
1377:Generated_Source\PSoC4/CapSense_CSHL.c ****             uint8 biggestCtrdStartPos = 0u;
1378:Generated_Source\PSoC4/CapSense_CSHL.c ****         #endif /* (CapSense_IS_DIPLEX_SLIDER) */
1379:Generated_Source\PSoC4/CapSense_CSHL.c ****         uint8 maximum = CapSense_MAXIMUM_CENTROID;
1380:Generated_Source\PSoC4/CapSense_CSHL.c **** 
1381:Generated_Source\PSoC4/CapSense_CSHL.c ****         uint8 temp = 0u;
1382:Generated_Source\PSoC4/CapSense_CSHL.c ****         uint8 *startOfSlider = &CapSense_sensorSignal[offset];
1383:Generated_Source\PSoC4/CapSense_CSHL.c **** 
1384:Generated_Source\PSoC4/CapSense_CSHL.c ****         #if (CapSense_IS_DIPLEX_SLIDER)
1385:Generated_Source\PSoC4/CapSense_CSHL.c ****             if(diplex != 0u)
1386:Generated_Source\PSoC4/CapSense_CSHL.c ****             {
1387:Generated_Source\PSoC4/CapSense_CSHL.c ****                 /* Initialize */
1388:Generated_Source\PSoC4/CapSense_CSHL.c ****                 i = 0u;
1389:Generated_Source\PSoC4/CapSense_CSHL.c **** 
1390:Generated_Source\PSoC4/CapSense_CSHL.c ****                 /* Make slider x2 as Diplexed */
1391:Generated_Source\PSoC4/CapSense_CSHL.c ****                 count <<= 1u;
1392:Generated_Source\PSoC4/CapSense_CSHL.c ****                 while(1u)
1393:Generated_Source\PSoC4/CapSense_CSHL.c ****                 {
1394:Generated_Source\PSoC4/CapSense_CSHL.c ****                     if (startOfSlider[curPos] > 0u)    /* Looking for centroids */
1395:Generated_Source\PSoC4/CapSense_CSHL.c ****                     {
1396:Generated_Source\PSoC4/CapSense_CSHL.c ****                         if (curCtrdStartPos == CapSense_MAXIMUM_CENTROID)
1397:Generated_Source\PSoC4/CapSense_CSHL.c ****                         {
1398:Generated_Source\PSoC4/CapSense_CSHL.c ****                             /* Start of centroid */
1399:Generated_Source\PSoC4/CapSense_CSHL.c ****                             curCtrdStartPos = i;
1400:Generated_Source\PSoC4/CapSense_CSHL.c ****                             curCntrdSize++;
1401:Generated_Source\PSoC4/CapSense_CSHL.c ****                         }
1402:Generated_Source\PSoC4/CapSense_CSHL.c ****                         else
1403:Generated_Source\PSoC4/CapSense_CSHL.c ****                         {
1404:Generated_Source\PSoC4/CapSense_CSHL.c ****                             curCntrdSize++;
1405:Generated_Source\PSoC4/CapSense_CSHL.c ****                         }
1406:Generated_Source\PSoC4/CapSense_CSHL.c ****                     }
1407:Generated_Source\PSoC4/CapSense_CSHL.c ****                     else   /* Select biggest and indicate zero start */
1408:Generated_Source\PSoC4/CapSense_CSHL.c ****                     {
1409:Generated_Source\PSoC4/CapSense_CSHL.c ****                         if(curCntrdSize > 0u)
1410:Generated_Source\PSoC4/CapSense_CSHL.c ****                         {
1411:Generated_Source\PSoC4/CapSense_CSHL.c ****                             /* We are at the end of current */
1412:Generated_Source\PSoC4/CapSense_CSHL.c ****                             if(curCntrdSize > biggestCtrdSize)
1413:Generated_Source\PSoC4/CapSense_CSHL.c ****                             {
1414:Generated_Source\PSoC4/CapSense_CSHL.c ****                                 biggestCtrdSize = curCntrdSize;
1415:Generated_Source\PSoC4/CapSense_CSHL.c ****                                 biggestCtrdStartPos = curCtrdStartPos;
1416:Generated_Source\PSoC4/CapSense_CSHL.c ****                             }
1417:Generated_Source\PSoC4/CapSense_CSHL.c **** 
1418:Generated_Source\PSoC4/CapSense_CSHL.c ****                             curCntrdSize = 0u;
1419:Generated_Source\PSoC4/CapSense_CSHL.c ****                             curCtrdStartPos = CapSense_MAXIMUM_CENTROID;
1420:Generated_Source\PSoC4/CapSense_CSHL.c ****                         }
1421:Generated_Source\PSoC4/CapSense_CSHL.c ****                     }
1422:Generated_Source\PSoC4/CapSense_CSHL.c **** 
1423:Generated_Source\PSoC4/CapSense_CSHL.c ****                     i++;
ARM GAS  C:\Users\ZURUSH~1\AppData\Local\Temp\ccmil0rU.s 			page 42


1424:Generated_Source\PSoC4/CapSense_CSHL.c ****                     curPos = diplex[i];
1425:Generated_Source\PSoC4/CapSense_CSHL.c ****                     if(i == count)
1426:Generated_Source\PSoC4/CapSense_CSHL.c ****                     {
1427:Generated_Source\PSoC4/CapSense_CSHL.c ****                         break;
1428:Generated_Source\PSoC4/CapSense_CSHL.c ****                     }
1429:Generated_Source\PSoC4/CapSense_CSHL.c ****                 }
1430:Generated_Source\PSoC4/CapSense_CSHL.c **** 
1431:Generated_Source\PSoC4/CapSense_CSHL.c ****                     /* Find biggest centroid if two are same size, last one wins
1432:Generated_Source\PSoC4/CapSense_CSHL.c ****                        We are at the end of current */
1433:Generated_Source\PSoC4/CapSense_CSHL.c ****                 if (curCntrdSize >= biggestCtrdSize)
1434:Generated_Source\PSoC4/CapSense_CSHL.c ****                 {
1435:Generated_Source\PSoC4/CapSense_CSHL.c ****                     biggestCtrdSize = curCntrdSize;
1436:Generated_Source\PSoC4/CapSense_CSHL.c ****                     biggestCtrdStartPos = curCtrdStartPos;
1437:Generated_Source\PSoC4/CapSense_CSHL.c ****                 }
1438:Generated_Source\PSoC4/CapSense_CSHL.c ****             }
1439:Generated_Source\PSoC4/CapSense_CSHL.c ****             else
1440:Generated_Source\PSoC4/CapSense_CSHL.c ****             {
1441:Generated_Source\PSoC4/CapSense_CSHL.c ****                 /* Without diplexing */
1442:Generated_Source\PSoC4/CapSense_CSHL.c ****                 biggestCtrdSize = count;
1443:Generated_Source\PSoC4/CapSense_CSHL.c ****             }
1444:Generated_Source\PSoC4/CapSense_CSHL.c **** 
1445:Generated_Source\PSoC4/CapSense_CSHL.c **** 
1446:Generated_Source\PSoC4/CapSense_CSHL.c ****             /* Check centroid size */
1447:Generated_Source\PSoC4/CapSense_CSHL.c ****             #if (CapSense_IS_NON_DIPLEX_SLIDER)
1448:Generated_Source\PSoC4/CapSense_CSHL.c ****                 if((biggestCtrdSize >= 2u) || ((biggestCtrdSize == 1u) && (diplex == 0u)))
1449:Generated_Source\PSoC4/CapSense_CSHL.c ****             #else
1450:Generated_Source\PSoC4/CapSense_CSHL.c ****                 if(biggestCtrdSize >= 2u)
1451:Generated_Source\PSoC4/CapSense_CSHL.c ****             #endif /* (CapSense_IS_NON_DIPLEX_SLIDER) */
1452:Generated_Source\PSoC4/CapSense_CSHL.c ****                 {
1453:Generated_Source\PSoC4/CapSense_CSHL.c ****                     for (i = biggestCtrdStartPos; i < (biggestCtrdStartPos + biggestCtrdSize); i++)
1454:Generated_Source\PSoC4/CapSense_CSHL.c ****                     {
1455:Generated_Source\PSoC4/CapSense_CSHL.c ****                         #if (CapSense_IS_DIPLEX_SLIDER && CapSense_IS_NON_DIPLEX_SLIDER)
1456:Generated_Source\PSoC4/CapSense_CSHL.c ****                             if (diplex == 0u)
1457:Generated_Source\PSoC4/CapSense_CSHL.c ****                             {
1458:Generated_Source\PSoC4/CapSense_CSHL.c ****                                 curPos = i;
1459:Generated_Source\PSoC4/CapSense_CSHL.c ****                             }
1460:Generated_Source\PSoC4/CapSense_CSHL.c ****                             else
1461:Generated_Source\PSoC4/CapSense_CSHL.c ****                             {
1462:Generated_Source\PSoC4/CapSense_CSHL.c ****                                 curPos = diplex[i];
1463:Generated_Source\PSoC4/CapSense_CSHL.c ****                             }
1464:Generated_Source\PSoC4/CapSense_CSHL.c ****                         #elif (CapSense_IS_DIPLEX_SLIDER)
1465:Generated_Source\PSoC4/CapSense_CSHL.c ****                             curPos = diplex[i];
1466:Generated_Source\PSoC4/CapSense_CSHL.c ****                         #endif /* (CapSense_IS_DIPLEX_SLIDER && CapSense_IS_NON_DIPLEX_SLIDER) */
1467:Generated_Source\PSoC4/CapSense_CSHL.c ****                         /* Looking for greater element within centroid */
1468:Generated_Source\PSoC4/CapSense_CSHL.c ****                         if(startOfSlider[curPos] > fingerThreshold)
1469:Generated_Source\PSoC4/CapSense_CSHL.c ****                         {
1470:Generated_Source\PSoC4/CapSense_CSHL.c ****                             if(startOfSlider[curPos] > temp)
1471:Generated_Source\PSoC4/CapSense_CSHL.c ****                             {
1472:Generated_Source\PSoC4/CapSense_CSHL.c ****                                 maximum = i;
1473:Generated_Source\PSoC4/CapSense_CSHL.c ****                                 temp = startOfSlider[curPos];
1474:Generated_Source\PSoC4/CapSense_CSHL.c ****                             }
1475:Generated_Source\PSoC4/CapSense_CSHL.c ****                         }
1476:Generated_Source\PSoC4/CapSense_CSHL.c ****                     }
1477:Generated_Source\PSoC4/CapSense_CSHL.c ****                 }
1478:Generated_Source\PSoC4/CapSense_CSHL.c ****         #else
1479:Generated_Source\PSoC4/CapSense_CSHL.c ****             for (i = 0u; i < count; i++)
1480:Generated_Source\PSoC4/CapSense_CSHL.c ****             {
ARM GAS  C:\Users\ZURUSH~1\AppData\Local\Temp\ccmil0rU.s 			page 43


1481:Generated_Source\PSoC4/CapSense_CSHL.c ****                 /* Looking for greater element within centroid */
1482:Generated_Source\PSoC4/CapSense_CSHL.c ****                 if(startOfSlider[i] > fingerThreshold)
1483:Generated_Source\PSoC4/CapSense_CSHL.c ****                 {
1484:Generated_Source\PSoC4/CapSense_CSHL.c ****                     if(startOfSlider[i] > temp)
1485:Generated_Source\PSoC4/CapSense_CSHL.c ****                     {
1486:Generated_Source\PSoC4/CapSense_CSHL.c ****                         maximum = i;
1487:Generated_Source\PSoC4/CapSense_CSHL.c ****                         temp = startOfSlider[i];
1488:Generated_Source\PSoC4/CapSense_CSHL.c ****                     }
1489:Generated_Source\PSoC4/CapSense_CSHL.c ****                 }
1490:Generated_Source\PSoC4/CapSense_CSHL.c ****             }
1491:Generated_Source\PSoC4/CapSense_CSHL.c ****         #endif /* (CapSense_IS_DIPLEX_SLIDER) */
1492:Generated_Source\PSoC4/CapSense_CSHL.c ****         return (maximum);
1493:Generated_Source\PSoC4/CapSense_CSHL.c ****     }
1494:Generated_Source\PSoC4/CapSense_CSHL.c **** 
1495:Generated_Source\PSoC4/CapSense_CSHL.c **** 
1496:Generated_Source\PSoC4/CapSense_CSHL.c ****     /*******************************************************************************
1497:Generated_Source\PSoC4/CapSense_CSHL.c ****     * Function Name: CapSense_CalcCentroid
1498:Generated_Source\PSoC4/CapSense_CSHL.c ****     ********************************************************************************
1499:Generated_Source\PSoC4/CapSense_CSHL.c ****     *
1500:Generated_Source\PSoC4/CapSense_CSHL.c ****     * Summary:
1501:Generated_Source\PSoC4/CapSense_CSHL.c ****     *  Returns a position value calculated according to the index of the maximum element and API
1502:Generated_Source\PSoC4/CapSense_CSHL.c ****     *  resolution.
1503:Generated_Source\PSoC4/CapSense_CSHL.c ****     *
1504:Generated_Source\PSoC4/CapSense_CSHL.c ****     * Parameters:
1505:Generated_Source\PSoC4/CapSense_CSHL.c ****     *  type:  widget type.
1506:Generated_Source\PSoC4/CapSense_CSHL.c ****     *  diplex:  pointer to diplex table.
1507:Generated_Source\PSoC4/CapSense_CSHL.c ****     *  maximum:  Index of maximum element within centroid.
1508:Generated_Source\PSoC4/CapSense_CSHL.c ****     *  offset:   Start index of centroid in CapSense_sensorSignal[] array.
1509:Generated_Source\PSoC4/CapSense_CSHL.c ****     *  count:    Number of elements within centroid.
1510:Generated_Source\PSoC4/CapSense_CSHL.c ****     *  resolution:  multiplicator calculated according to centroid type and
1511:Generated_Source\PSoC4/CapSense_CSHL.c ****     *  API resolution.
1512:Generated_Source\PSoC4/CapSense_CSHL.c ****     *  noiseThreshold:  Noise threshold.
1513:Generated_Source\PSoC4/CapSense_CSHL.c ****     *
1514:Generated_Source\PSoC4/CapSense_CSHL.c ****     * Return:
1515:Generated_Source\PSoC4/CapSense_CSHL.c ****     *  Returns a position value of the slider.
1516:Generated_Source\PSoC4/CapSense_CSHL.c ****     *
1517:Generated_Source\PSoC4/CapSense_CSHL.c ****     * Side Effects:
1518:Generated_Source\PSoC4/CapSense_CSHL.c ****     *  None
1519:Generated_Source\PSoC4/CapSense_CSHL.c ****     *
1520:Generated_Source\PSoC4/CapSense_CSHL.c ****     *******************************************************************************/
1521:Generated_Source\PSoC4/CapSense_CSHL.c **** #if (CapSense_TOTAL_TRACKPAD_GESTURES_COUNT > 0u)
1522:Generated_Source\PSoC4/CapSense_CSHL.c ****     uint8 CapSense_CalcCentroid(uint8 maximum, uint8 offset,
1523:Generated_Source\PSoC4/CapSense_CSHL.c ****                                         uint8 count, uint32 resolution, uint8 noiseThreshold)
1524:Generated_Source\PSoC4/CapSense_CSHL.c **** #else
1525:Generated_Source\PSoC4/CapSense_CSHL.c ****     uint8 CapSense_CalcCentroid(uint8 maximum, uint8 offset,
1526:Generated_Source\PSoC4/CapSense_CSHL.c ****                                         uint8 count, uint16 resolution, uint8 noiseThreshold)
1527:Generated_Source\PSoC4/CapSense_CSHL.c **** #endif /* (CapSense_TOTAL_TRACKPAD_GESTURES_COUNT > 0u) */
1528:Generated_Source\PSoC4/CapSense_CSHL.c ****     {
1529:Generated_Source\PSoC4/CapSense_CSHL.c ****         #if ((CapSense_TOTAL_LINEAR_SLIDERS_COUNT > 0u) || (CapSense_TOTAL_TOUCH_PADS_BASIC_COUNT >
1530:Generated_Source\PSoC4/CapSense_CSHL.c ****             uint8 posPrev;
1531:Generated_Source\PSoC4/CapSense_CSHL.c ****             uint8 posNext;
1532:Generated_Source\PSoC4/CapSense_CSHL.c ****         #endif /* ((CapSense_TOTAL_LINEAR_SLIDERS_COUNT>0u) || (CapSense_TOTAL_TOUCH_PADS_BASIC_COU
1533:Generated_Source\PSoC4/CapSense_CSHL.c **** 
1534:Generated_Source\PSoC4/CapSense_CSHL.c ****         /* Helps during centroid calculation */
1535:Generated_Source\PSoC4/CapSense_CSHL.c ****         #if (CapSense_TOTAL_CENTROIDS_BASIC_COUNT)
1536:Generated_Source\PSoC4/CapSense_CSHL.c ****             static uint8 CapSense_centroid[3u];
1537:Generated_Source\PSoC4/CapSense_CSHL.c ****         #endif  /* (CapSense_TOTAL_CENTROIDS_BASIC_COUNT) */
ARM GAS  C:\Users\ZURUSH~1\AppData\Local\Temp\ccmil0rU.s 			page 44


1538:Generated_Source\PSoC4/CapSense_CSHL.c **** 
1539:Generated_Source\PSoC4/CapSense_CSHL.c ****         #if (CapSense_IS_DIPLEX_SLIDER)
1540:Generated_Source\PSoC4/CapSense_CSHL.c ****             uint8 pos;
1541:Generated_Source\PSoC4/CapSense_CSHL.c ****         #endif /* (CapSense_IS_DIPLEX_SLIDER) */
1542:Generated_Source\PSoC4/CapSense_CSHL.c **** 
1543:Generated_Source\PSoC4/CapSense_CSHL.c ****         uint8 position;
1544:Generated_Source\PSoC4/CapSense_CSHL.c ****         uint32 numerator;
1545:Generated_Source\PSoC4/CapSense_CSHL.c ****         int32 denominator;
1546:Generated_Source\PSoC4/CapSense_CSHL.c **** 
1547:Generated_Source\PSoC4/CapSense_CSHL.c ****         uint8  *startOfSlider = &CapSense_sensorSignal[offset];
1548:Generated_Source\PSoC4/CapSense_CSHL.c **** 
1549:Generated_Source\PSoC4/CapSense_CSHL.c ****         #if ((CapSense_TOTAL_LINEAR_SLIDERS_COUNT > 0u) || (CapSense_TOTAL_TOUCH_PADS_BASIC_COUNT >
1550:Generated_Source\PSoC4/CapSense_CSHL.c ****             posPrev = 0u;
1551:Generated_Source\PSoC4/CapSense_CSHL.c ****         #endif /* ((CapSense_TOTAL_LINEAR_SLIDERS_COUNT>0u) || (CapSense_TOTAL_TOUCH_PADS_BASIC_COU
1552:Generated_Source\PSoC4/CapSense_CSHL.c **** 
1553:Generated_Source\PSoC4/CapSense_CSHL.c ****         #if (CapSense_ADD_SLIDER_TYPE)
1554:Generated_Source\PSoC4/CapSense_CSHL.c ****             if(type == CapSense_TYPE_RADIAL_SLIDER)
1555:Generated_Source\PSoC4/CapSense_CSHL.c ****             {
1556:Generated_Source\PSoC4/CapSense_CSHL.c ****         #endif /* (CapSense_ADD_SLIDER_TYPE) */
1557:Generated_Source\PSoC4/CapSense_CSHL.c **** 
1558:Generated_Source\PSoC4/CapSense_CSHL.c ****             #if (CapSense_TOTAL_RADIAL_SLIDERS_COUNT > 0u)
1559:Generated_Source\PSoC4/CapSense_CSHL.c ****                 /* Copy Signal to the centroid array */
1560:Generated_Source\PSoC4/CapSense_CSHL.c ****                 CapSense_centroid[CapSense_POS] = startOfSlider[maximum];
1561:Generated_Source\PSoC4/CapSense_CSHL.c **** 
1562:Generated_Source\PSoC4/CapSense_CSHL.c ****                 /* Check borders for ROTARY Slider */
1563:Generated_Source\PSoC4/CapSense_CSHL.c ****                 if (maximum == 0u)                   /* Start of centroid */
1564:Generated_Source\PSoC4/CapSense_CSHL.c ****                 {
1565:Generated_Source\PSoC4/CapSense_CSHL.c ****                     CapSense_centroid[CapSense_POS_PREV] = startOfSlider[count - 1u];
1566:Generated_Source\PSoC4/CapSense_CSHL.c ****                     CapSense_centroid[CapSense_POS_NEXT] = startOfSlider[1u];
1567:Generated_Source\PSoC4/CapSense_CSHL.c ****                 }
1568:Generated_Source\PSoC4/CapSense_CSHL.c ****                 else if (maximum == (count - 1u))    /* End of centroid */
1569:Generated_Source\PSoC4/CapSense_CSHL.c ****                 {
1570:Generated_Source\PSoC4/CapSense_CSHL.c ****                     CapSense_centroid[CapSense_POS_PREV] = startOfSlider[maximum - 1u];
1571:Generated_Source\PSoC4/CapSense_CSHL.c ****                     CapSense_centroid[CapSense_POS_NEXT] = startOfSlider[0u];
1572:Generated_Source\PSoC4/CapSense_CSHL.c ****                 }
1573:Generated_Source\PSoC4/CapSense_CSHL.c ****                 else                                /* Not first Not last */
1574:Generated_Source\PSoC4/CapSense_CSHL.c ****                 {
1575:Generated_Source\PSoC4/CapSense_CSHL.c ****                     CapSense_centroid[CapSense_POS_PREV] = startOfSlider[maximum - 1u];
1576:Generated_Source\PSoC4/CapSense_CSHL.c ****                     CapSense_centroid[CapSense_POS_NEXT] = startOfSlider[maximum + 1u];
1577:Generated_Source\PSoC4/CapSense_CSHL.c ****                 }
1578:Generated_Source\PSoC4/CapSense_CSHL.c ****             #endif /* (CapSense_TOTAL_RADIAL_SLIDERS_COUNT > 0u) */
1579:Generated_Source\PSoC4/CapSense_CSHL.c **** 
1580:Generated_Source\PSoC4/CapSense_CSHL.c ****         #if (CapSense_ADD_SLIDER_TYPE)
1581:Generated_Source\PSoC4/CapSense_CSHL.c ****             }
1582:Generated_Source\PSoC4/CapSense_CSHL.c ****             else
1583:Generated_Source\PSoC4/CapSense_CSHL.c ****             {
1584:Generated_Source\PSoC4/CapSense_CSHL.c ****         #endif /* (CapSense_ADD_SLIDER_TYPE) */
1585:Generated_Source\PSoC4/CapSense_CSHL.c **** 
1586:Generated_Source\PSoC4/CapSense_CSHL.c ****             #if ((CapSense_TOTAL_LINEAR_SLIDERS_COUNT > 0u) || (CapSense_TOTAL_TOUCH_PADS_BASIC_COU
1587:Generated_Source\PSoC4/CapSense_CSHL.c ****                 #if (CapSense_IS_DIPLEX_SLIDER && CapSense_IS_NON_DIPLEX_SLIDER)
1588:Generated_Source\PSoC4/CapSense_CSHL.c ****                     /* Calculate next and previous near to maximum */
1589:Generated_Source\PSoC4/CapSense_CSHL.c ****                     if(diplex == 0u)
1590:Generated_Source\PSoC4/CapSense_CSHL.c ****                     {
1591:Generated_Source\PSoC4/CapSense_CSHL.c ****                         pos     = maximum;
1592:Generated_Source\PSoC4/CapSense_CSHL.c ****                         posPrev = maximum - 1u;
1593:Generated_Source\PSoC4/CapSense_CSHL.c ****                         posNext = maximum + 1u;
1594:Generated_Source\PSoC4/CapSense_CSHL.c ****                     }
ARM GAS  C:\Users\ZURUSH~1\AppData\Local\Temp\ccmil0rU.s 			page 45


1595:Generated_Source\PSoC4/CapSense_CSHL.c ****                     else
1596:Generated_Source\PSoC4/CapSense_CSHL.c ****                     {
1597:Generated_Source\PSoC4/CapSense_CSHL.c ****                         pos     = diplex[maximum];
1598:Generated_Source\PSoC4/CapSense_CSHL.c ****                         posPrev = diplex[maximum - 1u];
1599:Generated_Source\PSoC4/CapSense_CSHL.c ****                         posNext = diplex[maximum + 1u];
1600:Generated_Source\PSoC4/CapSense_CSHL.c ****                         count <<= 1u;
1601:Generated_Source\PSoC4/CapSense_CSHL.c ****                     }
1602:Generated_Source\PSoC4/CapSense_CSHL.c ****                 #elif (CapSense_IS_DIPLEX_SLIDER)
1603:Generated_Source\PSoC4/CapSense_CSHL.c ****                     /* Calculate next and previous near to maximum */
1604:Generated_Source\PSoC4/CapSense_CSHL.c ****                     pos     = diplex[maximum];
1605:Generated_Source\PSoC4/CapSense_CSHL.c ****                     posPrev = diplex[maximum - 1u];
1606:Generated_Source\PSoC4/CapSense_CSHL.c ****                     posNext = diplex[maximum + 1u];
1607:Generated_Source\PSoC4/CapSense_CSHL.c ****                     count <<= 1u;
1608:Generated_Source\PSoC4/CapSense_CSHL.c ****                 #else
1609:Generated_Source\PSoC4/CapSense_CSHL.c ****                     /* Calculate next and previous near to maximum */
1610:Generated_Source\PSoC4/CapSense_CSHL.c ****                     if (maximum >= 1u)
1611:Generated_Source\PSoC4/CapSense_CSHL.c ****                     {
1612:Generated_Source\PSoC4/CapSense_CSHL.c ****                         posPrev = maximum - 1u;
1613:Generated_Source\PSoC4/CapSense_CSHL.c ****                     }
1614:Generated_Source\PSoC4/CapSense_CSHL.c ****                     posNext = maximum + 1u;
1615:Generated_Source\PSoC4/CapSense_CSHL.c ****                 #endif /* (CapSense_IS_DIPLEX_SLIDER && CapSense_IS_NON_DIPLEX_SLIDER) */
1616:Generated_Source\PSoC4/CapSense_CSHL.c **** 
1617:Generated_Source\PSoC4/CapSense_CSHL.c ****                 /* Copy Signal to the centroid array */
1618:Generated_Source\PSoC4/CapSense_CSHL.c ****                 #if (CapSense_IS_DIPLEX_SLIDER)
1619:Generated_Source\PSoC4/CapSense_CSHL.c ****                     CapSense_centroid[CapSense_POS] = startOfSlider[pos];
1620:Generated_Source\PSoC4/CapSense_CSHL.c ****                 #else
1621:Generated_Source\PSoC4/CapSense_CSHL.c ****                     CapSense_centroid[CapSense_POS] = startOfSlider[maximum];
1622:Generated_Source\PSoC4/CapSense_CSHL.c ****                 #endif /* (CapSense_IS_DIPLEX_SLIDER) */
1623:Generated_Source\PSoC4/CapSense_CSHL.c **** 
1624:Generated_Source\PSoC4/CapSense_CSHL.c ****                 /* Check borders for LINEAR Slider */
1625:Generated_Source\PSoC4/CapSense_CSHL.c ****                 if (maximum == 0u)                   /* Start of centroid */
1626:Generated_Source\PSoC4/CapSense_CSHL.c ****                 {
1627:Generated_Source\PSoC4/CapSense_CSHL.c ****                     CapSense_centroid[CapSense_POS_PREV] = 0u;
1628:Generated_Source\PSoC4/CapSense_CSHL.c ****                     CapSense_centroid[CapSense_POS_NEXT] = startOfSlider[posNext];
1629:Generated_Source\PSoC4/CapSense_CSHL.c ****                 }
1630:Generated_Source\PSoC4/CapSense_CSHL.c ****                 else if (maximum == ((count) - 1u)) /* End of centroid */
1631:Generated_Source\PSoC4/CapSense_CSHL.c ****                 {
1632:Generated_Source\PSoC4/CapSense_CSHL.c ****                     CapSense_centroid[CapSense_POS_PREV] = startOfSlider[posPrev];
1633:Generated_Source\PSoC4/CapSense_CSHL.c ****                     CapSense_centroid[CapSense_POS_NEXT] = 0u;
1634:Generated_Source\PSoC4/CapSense_CSHL.c ****                 }
1635:Generated_Source\PSoC4/CapSense_CSHL.c ****                 else                                /* Not first Not last */
1636:Generated_Source\PSoC4/CapSense_CSHL.c ****                 {
1637:Generated_Source\PSoC4/CapSense_CSHL.c ****                     CapSense_centroid[CapSense_POS_PREV] = startOfSlider[posPrev];
1638:Generated_Source\PSoC4/CapSense_CSHL.c ****                     CapSense_centroid[CapSense_POS_NEXT] = startOfSlider[posNext];
1639:Generated_Source\PSoC4/CapSense_CSHL.c ****                 }
1640:Generated_Source\PSoC4/CapSense_CSHL.c ****             #endif /* ((CapSense_TOTAL_LINEAR_SLIDERS_COUNT>0u)||(CapSense_TOTAL_TOUCH_PADS_BASIC_C
1641:Generated_Source\PSoC4/CapSense_CSHL.c **** 
1642:Generated_Source\PSoC4/CapSense_CSHL.c ****         #if (CapSense_ADD_SLIDER_TYPE)
1643:Generated_Source\PSoC4/CapSense_CSHL.c ****             }
1644:Generated_Source\PSoC4/CapSense_CSHL.c ****         #endif /* (CapSense_ADD_SLIDER_TYPE) */
1645:Generated_Source\PSoC4/CapSense_CSHL.c **** 
1646:Generated_Source\PSoC4/CapSense_CSHL.c ****         /* Subtract noiseThreshold */
1647:Generated_Source\PSoC4/CapSense_CSHL.c ****         if(CapSense_centroid[CapSense_POS_PREV] > noiseThreshold)
1648:Generated_Source\PSoC4/CapSense_CSHL.c ****         {
1649:Generated_Source\PSoC4/CapSense_CSHL.c ****             CapSense_centroid[CapSense_POS_PREV] -= noiseThreshold;
1650:Generated_Source\PSoC4/CapSense_CSHL.c ****         }
1651:Generated_Source\PSoC4/CapSense_CSHL.c ****         else
ARM GAS  C:\Users\ZURUSH~1\AppData\Local\Temp\ccmil0rU.s 			page 46


1652:Generated_Source\PSoC4/CapSense_CSHL.c ****         {
1653:Generated_Source\PSoC4/CapSense_CSHL.c ****             CapSense_centroid[CapSense_POS_PREV] = 0u;
1654:Generated_Source\PSoC4/CapSense_CSHL.c ****         }
1655:Generated_Source\PSoC4/CapSense_CSHL.c **** 
1656:Generated_Source\PSoC4/CapSense_CSHL.c ****         /* Maximum always greater than fingerThreshold, so greater than noiseThreshold */
1657:Generated_Source\PSoC4/CapSense_CSHL.c ****         CapSense_centroid[CapSense_POS] -= noiseThreshold;
1658:Generated_Source\PSoC4/CapSense_CSHL.c **** 
1659:Generated_Source\PSoC4/CapSense_CSHL.c ****         /* Subtract noiseThreshold */
1660:Generated_Source\PSoC4/CapSense_CSHL.c ****         if(CapSense_centroid[CapSense_POS_NEXT] > noiseThreshold)
1661:Generated_Source\PSoC4/CapSense_CSHL.c ****         {
1662:Generated_Source\PSoC4/CapSense_CSHL.c ****             CapSense_centroid[CapSense_POS_NEXT] -= noiseThreshold;
1663:Generated_Source\PSoC4/CapSense_CSHL.c ****         }
1664:Generated_Source\PSoC4/CapSense_CSHL.c ****         else
1665:Generated_Source\PSoC4/CapSense_CSHL.c ****         {
1666:Generated_Source\PSoC4/CapSense_CSHL.c ****             CapSense_centroid[CapSense_POS_NEXT] = 0u;
1667:Generated_Source\PSoC4/CapSense_CSHL.c ****         }
1668:Generated_Source\PSoC4/CapSense_CSHL.c **** 
1669:Generated_Source\PSoC4/CapSense_CSHL.c **** 
1670:Generated_Source\PSoC4/CapSense_CSHL.c ****         /* Si+1 - Si-1 */
1671:Generated_Source\PSoC4/CapSense_CSHL.c ****         numerator = (uint32) CapSense_centroid[CapSense_POS_NEXT] -
1672:Generated_Source\PSoC4/CapSense_CSHL.c ****                     (uint32) CapSense_centroid[CapSense_POS_PREV];
1673:Generated_Source\PSoC4/CapSense_CSHL.c **** 
1674:Generated_Source\PSoC4/CapSense_CSHL.c ****         /* Si+1 + Si + Si-1 */
1675:Generated_Source\PSoC4/CapSense_CSHL.c ****         denominator = (int32) CapSense_centroid[CapSense_POS_PREV] +
1676:Generated_Source\PSoC4/CapSense_CSHL.c ****                       (int32) CapSense_centroid[CapSense_POS] +
1677:Generated_Source\PSoC4/CapSense_CSHL.c ****                       (int32) CapSense_centroid[CapSense_POS_NEXT];
1678:Generated_Source\PSoC4/CapSense_CSHL.c **** 
1679:Generated_Source\PSoC4/CapSense_CSHL.c ****         /* (numerator/denominator) + maximum */
1680:Generated_Source\PSoC4/CapSense_CSHL.c ****         denominator = (((int32)(uint32)((uint32)numerator << 8u)/denominator) + (int32)(uint32)((ui
1681:Generated_Source\PSoC4/CapSense_CSHL.c **** 
1682:Generated_Source\PSoC4/CapSense_CSHL.c ****         #if(CapSense_TOTAL_RADIAL_SLIDERS_COUNT > 0u)
1683:Generated_Source\PSoC4/CapSense_CSHL.c ****             /* Only required for RADIAL Slider */
1684:Generated_Source\PSoC4/CapSense_CSHL.c ****             if(denominator < 0)
1685:Generated_Source\PSoC4/CapSense_CSHL.c ****             {
1686:Generated_Source\PSoC4/CapSense_CSHL.c ****                 denominator += (int32)((uint16)((uint16) count << 8u));
1687:Generated_Source\PSoC4/CapSense_CSHL.c ****             }
1688:Generated_Source\PSoC4/CapSense_CSHL.c ****         #endif /* (CapSense_TOTAL_RADIAL_SLIDERS_COUNT > 0u) */
1689:Generated_Source\PSoC4/CapSense_CSHL.c **** 
1690:Generated_Source\PSoC4/CapSense_CSHL.c ****         denominator *= (int16)resolution;
1691:Generated_Source\PSoC4/CapSense_CSHL.c **** 
1692:Generated_Source\PSoC4/CapSense_CSHL.c ****         /* Round result and put it to uint8 */
1693:Generated_Source\PSoC4/CapSense_CSHL.c ****         position = ((uint8) HI16((uint32)denominator + CapSense_CENTROID_ROUND_VALUE));
1694:Generated_Source\PSoC4/CapSense_CSHL.c **** 
1695:Generated_Source\PSoC4/CapSense_CSHL.c ****         return (position);
1696:Generated_Source\PSoC4/CapSense_CSHL.c ****     }
1697:Generated_Source\PSoC4/CapSense_CSHL.c **** #endif /* (CapSense_TOTAL_CENTROIDS_BASIC_COUNT) */
1698:Generated_Source\PSoC4/CapSense_CSHL.c **** 
1699:Generated_Source\PSoC4/CapSense_CSHL.c **** 
1700:Generated_Source\PSoC4/CapSense_CSHL.c **** #if((CapSense_TOTAL_RADIAL_SLIDERS_COUNT > 0u) || (CapSense_TOTAL_LINEAR_SLIDERS_COUNT > 0u))
1701:Generated_Source\PSoC4/CapSense_CSHL.c ****     /*******************************************************************************
1702:Generated_Source\PSoC4/CapSense_CSHL.c ****     * Function Name: CapSense_GetCentroidPos
1703:Generated_Source\PSoC4/CapSense_CSHL.c ****     ********************************************************************************
1704:Generated_Source\PSoC4/CapSense_CSHL.c ****     *
1705:Generated_Source\PSoC4/CapSense_CSHL.c ****     * Summary:
1706:Generated_Source\PSoC4/CapSense_CSHL.c ****     *  Checks the CapSense_Signal[ ] array for a centroid within
1707:Generated_Source\PSoC4/CapSense_CSHL.c ****     *  a slider specified range. The centroid position is calculated according to the resolution
1708:Generated_Source\PSoC4/CapSense_CSHL.c ****     *  specified in the CapSense customizer. The position filters are applied to the
ARM GAS  C:\Users\ZURUSH~1\AppData\Local\Temp\ccmil0rU.s 			page 47


1709:Generated_Source\PSoC4/CapSense_CSHL.c ****     *  result if enabled.
1710:Generated_Source\PSoC4/CapSense_CSHL.c ****     *
1711:Generated_Source\PSoC4/CapSense_CSHL.c ****     * Parameters:
1712:Generated_Source\PSoC4/CapSense_CSHL.c ****     *  widget:  Widget number.
1713:Generated_Source\PSoC4/CapSense_CSHL.c ****     *  For every linear slider widget there are defines in this format:
1714:Generated_Source\PSoC4/CapSense_CSHL.c ****     *  #define CapSense_"widget_name"__LS           5
1715:Generated_Source\PSoC4/CapSense_CSHL.c ****     *
1716:Generated_Source\PSoC4/CapSense_CSHL.c ****     * Return:
1717:Generated_Source\PSoC4/CapSense_CSHL.c ****     *  Returns a position value of the linear slider.
1718:Generated_Source\PSoC4/CapSense_CSHL.c ****     *
1719:Generated_Source\PSoC4/CapSense_CSHL.c ****     * Global Variables:
1720:Generated_Source\PSoC4/CapSense_CSHL.c ****     *  None
1721:Generated_Source\PSoC4/CapSense_CSHL.c ****     *
1722:Generated_Source\PSoC4/CapSense_CSHL.c ****     * Side Effects:
1723:Generated_Source\PSoC4/CapSense_CSHL.c ****     *  If any sensor within the slider widget is active, the function returns values
1724:Generated_Source\PSoC4/CapSense_CSHL.c ****     *  from zero to the API resolution value set in the CapSense customizer. If no
1725:Generated_Source\PSoC4/CapSense_CSHL.c ****     *  sensors are active, the function returns 0xFFFF. If an error occurs during
1726:Generated_Source\PSoC4/CapSense_CSHL.c ****     *  execution of the centroid/diplexing algorithm, the function returns 0xFFFF.
1727:Generated_Source\PSoC4/CapSense_CSHL.c ****     *  There are no checks of the widget type argument provided to this function.
1728:Generated_Source\PSoC4/CapSense_CSHL.c ****     *  The unproper widget type provided will cause unexpected position calculations.
1729:Generated_Source\PSoC4/CapSense_CSHL.c ****     *
1730:Generated_Source\PSoC4/CapSense_CSHL.c ****     * Note:
1731:Generated_Source\PSoC4/CapSense_CSHL.c ****     *  If noise counts on the slider segments are greater than the noise
1732:Generated_Source\PSoC4/CapSense_CSHL.c ****     *  threshold, this subroutine may generate a false centroid result. The noise
1733:Generated_Source\PSoC4/CapSense_CSHL.c ****     *  threshold should be set carefully (high enough above the noise level) so
1734:Generated_Source\PSoC4/CapSense_CSHL.c ****     *  that noise will not generate a false centroid.
1735:Generated_Source\PSoC4/CapSense_CSHL.c ****     *******************************************************************************/
1736:Generated_Source\PSoC4/CapSense_CSHL.c ****     uint16 CapSense_GetCentroidPos(uint32 widget)
1737:Generated_Source\PSoC4/CapSense_CSHL.c ****     {
1738:Generated_Source\PSoC4/CapSense_CSHL.c ****         #if (CapSense_IS_DIPLEX_SLIDER)
1739:Generated_Source\PSoC4/CapSense_CSHL.c ****             const uint8 *diplex;
1740:Generated_Source\PSoC4/CapSense_CSHL.c ****         #endif /* (CapSense_IS_DIPLEX_SLIDER) */
1741:Generated_Source\PSoC4/CapSense_CSHL.c **** 
1742:Generated_Source\PSoC4/CapSense_CSHL.c ****         #if (0u != CapSense_LINEAR_SLIDERS_POS_FILTERS_MASK)
1743:Generated_Source\PSoC4/CapSense_CSHL.c ****             uint8 posIndex;
1744:Generated_Source\PSoC4/CapSense_CSHL.c ****             uint8 firstTimeIndex = CapSense_posFiltersData[widget];
1745:Generated_Source\PSoC4/CapSense_CSHL.c ****             uint8 posFiltersMask = CapSense_posFiltersMask[widget];
1746:Generated_Source\PSoC4/CapSense_CSHL.c ****         #endif /* (0u != CapSense_LINEAR_SLIDERS_POS_FILTERS_MASK) */
1747:Generated_Source\PSoC4/CapSense_CSHL.c **** 
1748:Generated_Source\PSoC4/CapSense_CSHL.c ****         #if ((0u != (CapSense_MEDIAN_FILTER & CapSense_LINEAR_SLIDERS_POS_FILTERS_MASK)) || \
1749:Generated_Source\PSoC4/CapSense_CSHL.c ****              (0u != (CapSense_AVERAGING_FILTER & CapSense_LINEAR_SLIDERS_POS_FILTERS_MASK)))
1750:Generated_Source\PSoC4/CapSense_CSHL.c ****             uint8 tempPos;
1751:Generated_Source\PSoC4/CapSense_CSHL.c ****         #endif /* ((0u != (CapSense_MEDIAN_FILTER & CapSense_LINEAR_SLIDERS_POS_FILTERS_MASK)) || \
1752:Generated_Source\PSoC4/CapSense_CSHL.c ****                *   (0u != (CapSense_AVERAGING_FILTER & CapSense_LINEAR_SLIDERS_POS_FILTERS_MASK)))
1753:Generated_Source\PSoC4/CapSense_CSHL.c ****                */
1754:Generated_Source\PSoC4/CapSense_CSHL.c **** 
1755:Generated_Source\PSoC4/CapSense_CSHL.c ****         uint8 maximum;
1756:Generated_Source\PSoC4/CapSense_CSHL.c ****         uint16 position;
1757:Generated_Source\PSoC4/CapSense_CSHL.c ****         uint8 offset = CapSense_rawDataIndex[widget];
1758:Generated_Source\PSoC4/CapSense_CSHL.c ****         uint8 count = CapSense_numberOfSensors[widget];
1759:Generated_Source\PSoC4/CapSense_CSHL.c **** 
1760:Generated_Source\PSoC4/CapSense_CSHL.c ****         #if (CapSense_IS_DIPLEX_SLIDER)
1761:Generated_Source\PSoC4/CapSense_CSHL.c ****             if(widget < CapSense_TOTAL_DIPLEXED_SLIDERS_COUNT)
1762:Generated_Source\PSoC4/CapSense_CSHL.c ****             {
1763:Generated_Source\PSoC4/CapSense_CSHL.c ****                 maximum = CapSense_diplexTable[widget];
1764:Generated_Source\PSoC4/CapSense_CSHL.c ****                 diplex = &CapSense_diplexTable[maximum];
1765:Generated_Source\PSoC4/CapSense_CSHL.c ****             }
ARM GAS  C:\Users\ZURUSH~1\AppData\Local\Temp\ccmil0rU.s 			page 48


1766:Generated_Source\PSoC4/CapSense_CSHL.c ****             else
1767:Generated_Source\PSoC4/CapSense_CSHL.c ****             {
1768:Generated_Source\PSoC4/CapSense_CSHL.c ****                 diplex = 0u;
1769:Generated_Source\PSoC4/CapSense_CSHL.c ****             }
1770:Generated_Source\PSoC4/CapSense_CSHL.c ****         #endif /* (CapSense_IS_DIPLEX_SLIDER) */
1771:Generated_Source\PSoC4/CapSense_CSHL.c **** 
1772:Generated_Source\PSoC4/CapSense_CSHL.c ****         /* Find Maximum within centroid */
1773:Generated_Source\PSoC4/CapSense_CSHL.c ****         #if (CapSense_IS_DIPLEX_SLIDER)
1774:Generated_Source\PSoC4/CapSense_CSHL.c ****             maximum = CapSense_FindMaximum(offset, count, (uint8)CapSense_fingerThreshold[widget], 
1775:Generated_Source\PSoC4/CapSense_CSHL.c ****         #else
1776:Generated_Source\PSoC4/CapSense_CSHL.c ****             maximum = CapSense_FindMaximum(offset, count, (uint8)CapSense_fingerThreshold[widget]);
1777:Generated_Source\PSoC4/CapSense_CSHL.c ****         #endif /* (CapSense_IS_DIPLEX_SLIDER) */
1778:Generated_Source\PSoC4/CapSense_CSHL.c **** 
1779:Generated_Source\PSoC4/CapSense_CSHL.c ****         if (maximum != 0xFFu)
1780:Generated_Source\PSoC4/CapSense_CSHL.c ****         {
1781:Generated_Source\PSoC4/CapSense_CSHL.c ****             /* Calculate centroid */
1782:Generated_Source\PSoC4/CapSense_CSHL.c ****             position = (uint16) CapSense_CalcCentroid(maximum,
1783:Generated_Source\PSoC4/CapSense_CSHL.c ****                          offset, count, CapSense_centroidMult[widget], CapSense_noiseThreshold[widg
1784:Generated_Source\PSoC4/CapSense_CSHL.c **** 
1785:Generated_Source\PSoC4/CapSense_CSHL.c ****             #if (0u != CapSense_LINEAR_SLIDERS_POS_FILTERS_MASK)
1786:Generated_Source\PSoC4/CapSense_CSHL.c ****                 /* Check if this linear slider has enabled filters */
1787:Generated_Source\PSoC4/CapSense_CSHL.c ****                 if (0u != (posFiltersMask & CapSense_ANY_POS_FILTER))
1788:Generated_Source\PSoC4/CapSense_CSHL.c ****                 {
1789:Generated_Source\PSoC4/CapSense_CSHL.c ****                     /* Calculate position to store filters data */
1790:Generated_Source\PSoC4/CapSense_CSHL.c ****                     posIndex  = firstTimeIndex + 1u;
1791:Generated_Source\PSoC4/CapSense_CSHL.c **** 
1792:Generated_Source\PSoC4/CapSense_CSHL.c ****                     if (0u == CapSense_posFiltersData[firstTimeIndex])
1793:Generated_Source\PSoC4/CapSense_CSHL.c ****                     {
1794:Generated_Source\PSoC4/CapSense_CSHL.c ****                         /* Init filters */
1795:Generated_Source\PSoC4/CapSense_CSHL.c ****                         CapSense_posFiltersData[posIndex] = (uint8) position;
1796:Generated_Source\PSoC4/CapSense_CSHL.c ****                         #if ((0u != (CapSense_MEDIAN_FILTER & \
1797:Generated_Source\PSoC4/CapSense_CSHL.c ****                                      CapSense_LINEAR_SLIDERS_POS_FILTERS_MASK)) || \
1798:Generated_Source\PSoC4/CapSense_CSHL.c ****                              (0u != (CapSense_AVERAGING_FILTER & \
1799:Generated_Source\PSoC4/CapSense_CSHL.c ****                                      CapSense_LINEAR_SLIDERS_POS_FILTERS_MASK)))
1800:Generated_Source\PSoC4/CapSense_CSHL.c **** 
1801:Generated_Source\PSoC4/CapSense_CSHL.c ****                             if ( (0u != (posFiltersMask & CapSense_MEDIAN_FILTER)) ||
1802:Generated_Source\PSoC4/CapSense_CSHL.c ****                                  (0u != (posFiltersMask & CapSense_AVERAGING_FILTER)) )
1803:Generated_Source\PSoC4/CapSense_CSHL.c ****                             {
1804:Generated_Source\PSoC4/CapSense_CSHL.c ****                                 CapSense_posFiltersData[posIndex + 1u] = (uint8) position;
1805:Generated_Source\PSoC4/CapSense_CSHL.c ****                             }
1806:Generated_Source\PSoC4/CapSense_CSHL.c ****                         #endif /* ((0u != (CapSense_MEDIAN_FILTER & \
1807:Generated_Source\PSoC4/CapSense_CSHL.c ****                                *           CapSense_LINEAR_SLIDERS_POS_FILTERS_MASK)) || \
1808:Generated_Source\PSoC4/CapSense_CSHL.c ****                                *   (0u != (CapSense_AVERAGING_FILTER & \
1809:Generated_Source\PSoC4/CapSense_CSHL.c ****                                *           CapSense_LINEAR_SLIDERS_POS_FILTERS_MASK)))
1810:Generated_Source\PSoC4/CapSense_CSHL.c ****                                */
1811:Generated_Source\PSoC4/CapSense_CSHL.c **** 
1812:Generated_Source\PSoC4/CapSense_CSHL.c ****                         CapSense_posFiltersData[firstTimeIndex] = 1u;
1813:Generated_Source\PSoC4/CapSense_CSHL.c ****                     }
1814:Generated_Source\PSoC4/CapSense_CSHL.c ****                     else
1815:Generated_Source\PSoC4/CapSense_CSHL.c ****                     {
1816:Generated_Source\PSoC4/CapSense_CSHL.c ****                         /* Do filtering */
1817:Generated_Source\PSoC4/CapSense_CSHL.c ****                         #if (0u != (CapSense_MEDIAN_FILTER & CapSense_LINEAR_SLIDERS_POS_FILTERS_MA
1818:Generated_Source\PSoC4/CapSense_CSHL.c ****                             if (0u != (posFiltersMask & CapSense_MEDIAN_FILTER))
1819:Generated_Source\PSoC4/CapSense_CSHL.c ****                             {
1820:Generated_Source\PSoC4/CapSense_CSHL.c ****                                 tempPos = (uint8) position;
1821:Generated_Source\PSoC4/CapSense_CSHL.c ****                                 position = CapSense_MedianFilter(position,
1822:Generated_Source\PSoC4/CapSense_CSHL.c ****                                                                 (uint16)CapSense_posFiltersData[pos
ARM GAS  C:\Users\ZURUSH~1\AppData\Local\Temp\ccmil0rU.s 			page 49


1823:Generated_Source\PSoC4/CapSense_CSHL.c ****                                                                 (uint16)CapSense_posFiltersData[pos
1824:Generated_Source\PSoC4/CapSense_CSHL.c ****                                 CapSense_posFiltersData[posIndex + 1u] =
1825:Generated_Source\PSoC4/CapSense_CSHL.c ****                                                                              CapSense_posFiltersDat
1826:Generated_Source\PSoC4/CapSense_CSHL.c ****                                 CapSense_posFiltersData[posIndex] = tempPos;
1827:Generated_Source\PSoC4/CapSense_CSHL.c ****                             }
1828:Generated_Source\PSoC4/CapSense_CSHL.c ****                         #endif /*(0u != (CapSense_MEDIAN_FILTER &
1829:Generated_Source\PSoC4/CapSense_CSHL.c ****                                *         CapSense_LINEAR_SLIDERS_POS_FILTERS_MASK))
1830:Generated_Source\PSoC4/CapSense_CSHL.c ****                                */
1831:Generated_Source\PSoC4/CapSense_CSHL.c **** 
1832:Generated_Source\PSoC4/CapSense_CSHL.c ****                         #if(0u!=(CapSense_AVERAGING_FILTER & CapSense_LINEAR_SLIDERS_POS_FILTERS_MA
1833:Generated_Source\PSoC4/CapSense_CSHL.c ****                             if (0u != (posFiltersMask & CapSense_AVERAGING_FILTER))
1834:Generated_Source\PSoC4/CapSense_CSHL.c ****                             {
1835:Generated_Source\PSoC4/CapSense_CSHL.c ****                                 tempPos = (uint8) position;
1836:Generated_Source\PSoC4/CapSense_CSHL.c ****                                 position = CapSense_AveragingFilter(position,
1837:Generated_Source\PSoC4/CapSense_CSHL.c ****                                                                 (uint16)CapSense_posFiltersData[pos
1838:Generated_Source\PSoC4/CapSense_CSHL.c ****                                                                 (uint16)CapSense_posFiltersData[pos
1839:Generated_Source\PSoC4/CapSense_CSHL.c ****                                 CapSense_posFiltersData[posIndex+1u]=CapSense_posFiltersData[posInd
1840:Generated_Source\PSoC4/CapSense_CSHL.c ****                                 CapSense_posFiltersData[posIndex] = tempPos;
1841:Generated_Source\PSoC4/CapSense_CSHL.c ****                             }
1842:Generated_Source\PSoC4/CapSense_CSHL.c ****                         #endif /* (0u != (CapSense_AVERAGING_FILTER & \
1843:Generated_Source\PSoC4/CapSense_CSHL.c ****                                *           CapSense_LINEAR_SLIDERS_POS_FILTERS_MASK))
1844:Generated_Source\PSoC4/CapSense_CSHL.c ****                                */
1845:Generated_Source\PSoC4/CapSense_CSHL.c **** 
1846:Generated_Source\PSoC4/CapSense_CSHL.c ****                         #if (0u != (CapSense_IIR2_FILTER & CapSense_LINEAR_SLIDERS_POS_FILTERS_MASK
1847:Generated_Source\PSoC4/CapSense_CSHL.c ****                             if (0u != (posFiltersMask & CapSense_IIR2_FILTER))
1848:Generated_Source\PSoC4/CapSense_CSHL.c ****                             {
1849:Generated_Source\PSoC4/CapSense_CSHL.c ****                                 position = CapSense_IIR2Filter(position,
1850:Generated_Source\PSoC4/CapSense_CSHL.c ****                                                                     (uint16)CapSense_posFiltersData
1851:Generated_Source\PSoC4/CapSense_CSHL.c ****                                 CapSense_posFiltersData[posIndex] = (uint8) position;
1852:Generated_Source\PSoC4/CapSense_CSHL.c ****                             }
1853:Generated_Source\PSoC4/CapSense_CSHL.c ****                         #endif /* (0u != (CapSense_IIR2_FILTER & \
1854:Generated_Source\PSoC4/CapSense_CSHL.c ****                                *          CapSense_LINEAR_SLIDERS_POS_FILTERS_MASK))
1855:Generated_Source\PSoC4/CapSense_CSHL.c ****                                */
1856:Generated_Source\PSoC4/CapSense_CSHL.c **** 
1857:Generated_Source\PSoC4/CapSense_CSHL.c ****                         #if (0u != (CapSense_IIR4_FILTER & CapSense_LINEAR_SLIDERS_POS_FILTERS_MASK
1858:Generated_Source\PSoC4/CapSense_CSHL.c ****                             if (0u != (posFiltersMask & CapSense_IIR4_FILTER))
1859:Generated_Source\PSoC4/CapSense_CSHL.c ****                             {
1860:Generated_Source\PSoC4/CapSense_CSHL.c ****                                 position = CapSense_IIR4Filter(position,
1861:Generated_Source\PSoC4/CapSense_CSHL.c ****                                                                     (uint16)CapSense_posFiltersData
1862:Generated_Source\PSoC4/CapSense_CSHL.c ****                                 CapSense_posFiltersData[posIndex] = (uint8) position;
1863:Generated_Source\PSoC4/CapSense_CSHL.c ****                             }
1864:Generated_Source\PSoC4/CapSense_CSHL.c ****                         #endif /* (0u != (CapSense_IIR4_FILTER & \
1865:Generated_Source\PSoC4/CapSense_CSHL.c ****                                *          CapSense_LINEAR_SLIDERS_POS_FILTERS_MASK))
1866:Generated_Source\PSoC4/CapSense_CSHL.c ****                                */
1867:Generated_Source\PSoC4/CapSense_CSHL.c **** 
1868:Generated_Source\PSoC4/CapSense_CSHL.c ****                         #if (0u != (CapSense_JITTER_FILTER & CapSense_LINEAR_SLIDERS_POS_FILTERS_MA
1869:Generated_Source\PSoC4/CapSense_CSHL.c ****                             if (0u != (posFiltersMask & CapSense_JITTER_FILTER))
1870:Generated_Source\PSoC4/CapSense_CSHL.c ****                             {
1871:Generated_Source\PSoC4/CapSense_CSHL.c ****                                 position = CapSense_JitterFilter(position,
1872:Generated_Source\PSoC4/CapSense_CSHL.c ****                                                                     (uint16)CapSense_posFiltersData
1873:Generated_Source\PSoC4/CapSense_CSHL.c ****                                 CapSense_posFiltersData[posIndex] = (uint8) position;
1874:Generated_Source\PSoC4/CapSense_CSHL.c ****                             }
1875:Generated_Source\PSoC4/CapSense_CSHL.c ****                         #endif /* (0u != (CapSense_JITTER_FILTER & \
1876:Generated_Source\PSoC4/CapSense_CSHL.c ****                                *           CapSense_LINEAR_SLIDERS_POS_FILTERS_MASK))
1877:Generated_Source\PSoC4/CapSense_CSHL.c ****                                */
1878:Generated_Source\PSoC4/CapSense_CSHL.c ****                     }
1879:Generated_Source\PSoC4/CapSense_CSHL.c ****                 }
ARM GAS  C:\Users\ZURUSH~1\AppData\Local\Temp\ccmil0rU.s 			page 50


1880:Generated_Source\PSoC4/CapSense_CSHL.c ****             #endif /* (0u != CapSense_LINEAR_SLIDERS_POS_FILTERS_MASK) */
1881:Generated_Source\PSoC4/CapSense_CSHL.c **** 
1882:Generated_Source\PSoC4/CapSense_CSHL.c ****         }
1883:Generated_Source\PSoC4/CapSense_CSHL.c ****         else
1884:Generated_Source\PSoC4/CapSense_CSHL.c ****         {
1885:Generated_Source\PSoC4/CapSense_CSHL.c ****             /* Maximum wasn't found */
1886:Generated_Source\PSoC4/CapSense_CSHL.c ****             position = 0xFFFFu;
1887:Generated_Source\PSoC4/CapSense_CSHL.c **** 
1888:Generated_Source\PSoC4/CapSense_CSHL.c ****             #if(0u != CapSense_LINEAR_SLIDERS_POS_FILTERS_MASK)
1889:Generated_Source\PSoC4/CapSense_CSHL.c ****                 /* Reset filters */
1890:Generated_Source\PSoC4/CapSense_CSHL.c ****                 if(0u != (posFiltersMask & CapSense_ANY_POS_FILTER))
1891:Generated_Source\PSoC4/CapSense_CSHL.c ****                 {
1892:Generated_Source\PSoC4/CapSense_CSHL.c ****                     CapSense_posFiltersData[firstTimeIndex] = 0u;
1893:Generated_Source\PSoC4/CapSense_CSHL.c ****                 }
1894:Generated_Source\PSoC4/CapSense_CSHL.c ****             #endif /* (0u != CapSense_LINEAR_SLIDERS_POS_FILTERS_MASK) */
1895:Generated_Source\PSoC4/CapSense_CSHL.c ****         }
1896:Generated_Source\PSoC4/CapSense_CSHL.c **** 
1897:Generated_Source\PSoC4/CapSense_CSHL.c **** 
1898:Generated_Source\PSoC4/CapSense_CSHL.c ****         return (position);
1899:Generated_Source\PSoC4/CapSense_CSHL.c ****     }
1900:Generated_Source\PSoC4/CapSense_CSHL.c **** #endif /* ((CapSense_TOTAL_RADIAL_SLIDERS_COUNT > 0u) || (CapSense_TOTAL_LINEAR_SLIDERS_COUNT > 0u)
1901:Generated_Source\PSoC4/CapSense_CSHL.c **** 
1902:Generated_Source\PSoC4/CapSense_CSHL.c **** 
1903:Generated_Source\PSoC4/CapSense_CSHL.c **** #if((CapSense_TOTAL_RADIAL_SLIDERS_COUNT > 0u) || (CapSense_TOTAL_LINEAR_SLIDERS_COUNT > 0u))
1904:Generated_Source\PSoC4/CapSense_CSHL.c ****     /*******************************************************************************
1905:Generated_Source\PSoC4/CapSense_CSHL.c ****     * Function Name: CapSense_GetRadialCentroidPos
1906:Generated_Source\PSoC4/CapSense_CSHL.c ****     ********************************************************************************
1907:Generated_Source\PSoC4/CapSense_CSHL.c ****     *
1908:Generated_Source\PSoC4/CapSense_CSHL.c ****     * Summary:
1909:Generated_Source\PSoC4/CapSense_CSHL.c ****     *  Checks the CapSense_Signal[ ] array for a centroid within
1910:Generated_Source\PSoC4/CapSense_CSHL.c ****     *  a slider specified range. The centroid position is calculated according to the resolution
1911:Generated_Source\PSoC4/CapSense_CSHL.c ****     *  specified in the CapSense customizer. The position filters are applied to the
1912:Generated_Source\PSoC4/CapSense_CSHL.c ****     *  result if enabled.
1913:Generated_Source\PSoC4/CapSense_CSHL.c ****     *
1914:Generated_Source\PSoC4/CapSense_CSHL.c ****     * Parameters:
1915:Generated_Source\PSoC4/CapSense_CSHL.c ****     *  widget:  Widget number.
1916:Generated_Source\PSoC4/CapSense_CSHL.c ****     *  For every radial slider widget there are defines in this format:
1917:Generated_Source\PSoC4/CapSense_CSHL.c ****     *  #define CapSense_"widget_name"__RS           5
1918:Generated_Source\PSoC4/CapSense_CSHL.c ****     *
1919:Generated_Source\PSoC4/CapSense_CSHL.c ****     * Return:
1920:Generated_Source\PSoC4/CapSense_CSHL.c ****     *  Returns a position value of the radial slider.
1921:Generated_Source\PSoC4/CapSense_CSHL.c ****     *
1922:Generated_Source\PSoC4/CapSense_CSHL.c ****     * Global Variables:
1923:Generated_Source\PSoC4/CapSense_CSHL.c ****     *  None.
1924:Generated_Source\PSoC4/CapSense_CSHL.c ****     *
1925:Generated_Source\PSoC4/CapSense_CSHL.c ****     * Side Effects:
1926:Generated_Source\PSoC4/CapSense_CSHL.c ****     *  If any sensor within the slider widget is active, the function returns values
1927:Generated_Source\PSoC4/CapSense_CSHL.c ****     *  from zero to the API resolution value set in the CapSense customizer. If no
1928:Generated_Source\PSoC4/CapSense_CSHL.c ****     *  sensors are active, the function returns 0xFFFF.
1929:Generated_Source\PSoC4/CapSense_CSHL.c ****     *  There are no checks of the widget type argument provided to this function.
1930:Generated_Source\PSoC4/CapSense_CSHL.c ****     *  The unproper widget type provided will cause unexpected position calculations.
1931:Generated_Source\PSoC4/CapSense_CSHL.c ****     *
1932:Generated_Source\PSoC4/CapSense_CSHL.c ****     * Note:
1933:Generated_Source\PSoC4/CapSense_CSHL.c ****     *  If noise counts on the slider segments are greater than the noise
1934:Generated_Source\PSoC4/CapSense_CSHL.c ****     *  threshold, this subroutine may generate a false centroid result. The noise
1935:Generated_Source\PSoC4/CapSense_CSHL.c ****     *  threshold should be set carefully (high enough above the noise level) so
1936:Generated_Source\PSoC4/CapSense_CSHL.c ****     *  that noise will not generate a false centroid.
ARM GAS  C:\Users\ZURUSH~1\AppData\Local\Temp\ccmil0rU.s 			page 51


1937:Generated_Source\PSoC4/CapSense_CSHL.c ****     *
1938:Generated_Source\PSoC4/CapSense_CSHL.c ****     *******************************************************************************/
1939:Generated_Source\PSoC4/CapSense_CSHL.c ****      uint16 CapSense_GetRadialCentroidPos(uint32 widget)
1940:Generated_Source\PSoC4/CapSense_CSHL.c ****     {
1941:Generated_Source\PSoC4/CapSense_CSHL.c ****         #if (0u != CapSense_RADIAL_SLIDERS_POS_FILTERS_MASK)
1942:Generated_Source\PSoC4/CapSense_CSHL.c ****             uint8 posIndex;
1943:Generated_Source\PSoC4/CapSense_CSHL.c ****             uint8 firstTimeIndex = CapSense_posFiltersData[widget];
1944:Generated_Source\PSoC4/CapSense_CSHL.c ****             uint8 posFiltersMask = CapSense_posFiltersMask[widget];
1945:Generated_Source\PSoC4/CapSense_CSHL.c ****         #endif /* (0u != CapSense_RADIAL_SLIDERS_POS_FILTERS_MASK) */
1946:Generated_Source\PSoC4/CapSense_CSHL.c **** 
1947:Generated_Source\PSoC4/CapSense_CSHL.c ****         #if ((0u != (CapSense_MEDIAN_FILTER & CapSense_RADIAL_SLIDERS_POS_FILTERS_MASK)) || \
1948:Generated_Source\PSoC4/CapSense_CSHL.c ****              (0u != (CapSense_AVERAGING_FILTER & CapSense_RADIAL_SLIDERS_POS_FILTERS_MASK)))
1949:Generated_Source\PSoC4/CapSense_CSHL.c ****             uint8 tempPos;
1950:Generated_Source\PSoC4/CapSense_CSHL.c ****         #endif /* ((0u != (CapSense_MEDIAN_FILTER & CapSense_RADIAL_SLIDERS_POS_FILTERS_MASK)) || \
1951:Generated_Source\PSoC4/CapSense_CSHL.c ****                *   (0u != (CapSense_AVERAGING_FILTER & CapSense_RADIAL_SLIDERS_POS_FILTERS_MASK)))
1952:Generated_Source\PSoC4/CapSense_CSHL.c ****                */
1953:Generated_Source\PSoC4/CapSense_CSHL.c **** 
1954:Generated_Source\PSoC4/CapSense_CSHL.c ****         uint8 maximum;
1955:Generated_Source\PSoC4/CapSense_CSHL.c ****         uint16 position;
1956:Generated_Source\PSoC4/CapSense_CSHL.c ****         uint8 offset = CapSense_rawDataIndex[widget];
1957:Generated_Source\PSoC4/CapSense_CSHL.c ****         uint8 count = CapSense_numberOfSensors[widget];
1958:Generated_Source\PSoC4/CapSense_CSHL.c **** 
1959:Generated_Source\PSoC4/CapSense_CSHL.c ****         /* Find Maximum within centroid */
1960:Generated_Source\PSoC4/CapSense_CSHL.c ****         #if (CapSense_IS_DIPLEX_SLIDER)
1961:Generated_Source\PSoC4/CapSense_CSHL.c ****             maximum = CapSense_FindMaximum(offset, count, (uint8)CapSense_fingerThreshold[widget], 
1962:Generated_Source\PSoC4/CapSense_CSHL.c ****         #else
1963:Generated_Source\PSoC4/CapSense_CSHL.c ****             maximum = CapSense_FindMaximum(offset, count, (uint8)CapSense_fingerThreshold[widget]);
1964:Generated_Source\PSoC4/CapSense_CSHL.c ****         #endif /* (CapSense_IS_DIPLEX_SLIDER) */
1965:Generated_Source\PSoC4/CapSense_CSHL.c **** 
1966:Generated_Source\PSoC4/CapSense_CSHL.c ****         if (maximum != CapSense_MAXIMUM_CENTROID)
1967:Generated_Source\PSoC4/CapSense_CSHL.c ****         {
1968:Generated_Source\PSoC4/CapSense_CSHL.c ****             /* Calculate centroid */
1969:Generated_Source\PSoC4/CapSense_CSHL.c ****             position = (uint16) CapSense_CalcCentroid(maximum,
1970:Generated_Source\PSoC4/CapSense_CSHL.c ****                          offset, count, CapSense_centroidMult[widget], CapSense_noiseThreshold[widg
1971:Generated_Source\PSoC4/CapSense_CSHL.c **** 
1972:Generated_Source\PSoC4/CapSense_CSHL.c ****             #if (0u != CapSense_RADIAL_SLIDERS_POS_FILTERS_MASK)
1973:Generated_Source\PSoC4/CapSense_CSHL.c ****                 /* Check if this Radial slider has enabled filters */
1974:Generated_Source\PSoC4/CapSense_CSHL.c ****                 if (0u != (posFiltersMask & CapSense_ANY_POS_FILTER))
1975:Generated_Source\PSoC4/CapSense_CSHL.c ****                 {
1976:Generated_Source\PSoC4/CapSense_CSHL.c ****                     /* Calculate position to store filters data */
1977:Generated_Source\PSoC4/CapSense_CSHL.c ****                     posIndex  = firstTimeIndex + 1u;
1978:Generated_Source\PSoC4/CapSense_CSHL.c **** 
1979:Generated_Source\PSoC4/CapSense_CSHL.c ****                     if (0u == CapSense_posFiltersData[firstTimeIndex])
1980:Generated_Source\PSoC4/CapSense_CSHL.c ****                     {
1981:Generated_Source\PSoC4/CapSense_CSHL.c ****                         /* Init filters */
1982:Generated_Source\PSoC4/CapSense_CSHL.c ****                         CapSense_posFiltersData[posIndex] = (uint8) position;
1983:Generated_Source\PSoC4/CapSense_CSHL.c ****                         #if ((0u != (CapSense_MEDIAN_FILTER & \
1984:Generated_Source\PSoC4/CapSense_CSHL.c ****                                      CapSense_RADIAL_SLIDERS_POS_FILTERS_MASK)) || \
1985:Generated_Source\PSoC4/CapSense_CSHL.c ****                              (0u != (CapSense_AVERAGING_FILTER & \
1986:Generated_Source\PSoC4/CapSense_CSHL.c ****                                      CapSense_RADIAL_SLIDERS_POS_FILTERS_MASK)))
1987:Generated_Source\PSoC4/CapSense_CSHL.c **** 
1988:Generated_Source\PSoC4/CapSense_CSHL.c ****                             if ( (0u != (posFiltersMask & CapSense_MEDIAN_FILTER))  ||
1989:Generated_Source\PSoC4/CapSense_CSHL.c ****                                  (0u != (posFiltersMask & CapSense_AVERAGING_FILTER)) )
1990:Generated_Source\PSoC4/CapSense_CSHL.c ****                             {
1991:Generated_Source\PSoC4/CapSense_CSHL.c ****                                 CapSense_posFiltersData[posIndex + 1u] = (uint8) position;
1992:Generated_Source\PSoC4/CapSense_CSHL.c ****                             }
1993:Generated_Source\PSoC4/CapSense_CSHL.c ****                         #endif /* ((0u != (CapSense_MEDIAN_FILTER & \
ARM GAS  C:\Users\ZURUSH~1\AppData\Local\Temp\ccmil0rU.s 			page 52


1994:Generated_Source\PSoC4/CapSense_CSHL.c ****                                *           CapSense_RADIAL_SLIDERS_POS_FILTERS_MASK)) || \
1995:Generated_Source\PSoC4/CapSense_CSHL.c ****                                *   (0u != (CapSense_AVERAGING_FILTER & \
1996:Generated_Source\PSoC4/CapSense_CSHL.c ****                                *           CapSense_RADIAL_SLIDERS_POS_FILTERS_MASK)))
1997:Generated_Source\PSoC4/CapSense_CSHL.c ****                                */
1998:Generated_Source\PSoC4/CapSense_CSHL.c **** 
1999:Generated_Source\PSoC4/CapSense_CSHL.c ****                         CapSense_posFiltersData[firstTimeIndex] = 1u;
2000:Generated_Source\PSoC4/CapSense_CSHL.c ****                     }
2001:Generated_Source\PSoC4/CapSense_CSHL.c ****                     else
2002:Generated_Source\PSoC4/CapSense_CSHL.c ****                     {
2003:Generated_Source\PSoC4/CapSense_CSHL.c ****                         /* Do filtering */
2004:Generated_Source\PSoC4/CapSense_CSHL.c ****                         #if (0u != (CapSense_MEDIAN_FILTER & CapSense_RADIAL_SLIDERS_POS_FILTERS_MA
2005:Generated_Source\PSoC4/CapSense_CSHL.c ****                             if (0u != (posFiltersMask & CapSense_MEDIAN_FILTER))
2006:Generated_Source\PSoC4/CapSense_CSHL.c ****                             {
2007:Generated_Source\PSoC4/CapSense_CSHL.c ****                                 tempPos = (uint8) position;
2008:Generated_Source\PSoC4/CapSense_CSHL.c ****                                 position = CapSense_MedianFilter(position,
2009:Generated_Source\PSoC4/CapSense_CSHL.c ****                                                                         CapSense_posFiltersData[pos
2010:Generated_Source\PSoC4/CapSense_CSHL.c ****                                                                         CapSense_posFiltersData[pos
2011:Generated_Source\PSoC4/CapSense_CSHL.c ****                                 CapSense_posFiltersData[posIndex + 1u] =
2012:Generated_Source\PSoC4/CapSense_CSHL.c ****                                                                               CapSense_posFiltersDa
2013:Generated_Source\PSoC4/CapSense_CSHL.c ****                                 CapSense_posFiltersData[posIndex] = tempPos;
2014:Generated_Source\PSoC4/CapSense_CSHL.c ****                             }
2015:Generated_Source\PSoC4/CapSense_CSHL.c ****                         #endif /* (0u != (CapSense_MEDIAN_FILTER &
2016:Generated_Source\PSoC4/CapSense_CSHL.c ****                                *          CapSense_RADIAL_SLIDERS_POS_FILTERS_MASK))
2017:Generated_Source\PSoC4/CapSense_CSHL.c ****                                */
2018:Generated_Source\PSoC4/CapSense_CSHL.c **** 
2019:Generated_Source\PSoC4/CapSense_CSHL.c ****                         #if (0u != (CapSense_AVERAGING_FILTER & \
2020:Generated_Source\PSoC4/CapSense_CSHL.c ****                                     CapSense_RADIAL_SLIDERS_POS_FILTERS_MASK))
2021:Generated_Source\PSoC4/CapSense_CSHL.c ****                             if (0u != (posFiltersMask & CapSense_AVERAGING_FILTER))
2022:Generated_Source\PSoC4/CapSense_CSHL.c ****                             {
2023:Generated_Source\PSoC4/CapSense_CSHL.c ****                                 tempPos = (uint8) position;
2024:Generated_Source\PSoC4/CapSense_CSHL.c ****                                 position = CapSense_AveragingFilter(position,
2025:Generated_Source\PSoC4/CapSense_CSHL.c ****                                                                        CapSense_posFiltersData[posI
2026:Generated_Source\PSoC4/CapSense_CSHL.c ****                                                                        CapSense_posFiltersData[posI
2027:Generated_Source\PSoC4/CapSense_CSHL.c ****                                 CapSense_posFiltersData[posIndex+1u]= CapSense_posFiltersData[posIn
2028:Generated_Source\PSoC4/CapSense_CSHL.c ****                                 CapSense_posFiltersData[posIndex] = tempPos;
2029:Generated_Source\PSoC4/CapSense_CSHL.c ****                             }
2030:Generated_Source\PSoC4/CapSense_CSHL.c ****                         #endif /* (0u != (CapSense_AVERAGING_FILTER & \
2031:Generated_Source\PSoC4/CapSense_CSHL.c ****                                *          CapSense_RADIAL_SLIDERS_POS_FILTERS_MASK))
2032:Generated_Source\PSoC4/CapSense_CSHL.c ****                                */
2033:Generated_Source\PSoC4/CapSense_CSHL.c **** 
2034:Generated_Source\PSoC4/CapSense_CSHL.c ****                         #if (0u != (CapSense_IIR2_FILTER & CapSense_RADIAL_SLIDERS_POS_FILTERS_MASK
2035:Generated_Source\PSoC4/CapSense_CSHL.c ****                             if (0u != (posFiltersMask & CapSense_IIR2_FILTER))
2036:Generated_Source\PSoC4/CapSense_CSHL.c ****                             {
2037:Generated_Source\PSoC4/CapSense_CSHL.c ****                                 position = CapSense_IIR2Filter(position,
2038:Generated_Source\PSoC4/CapSense_CSHL.c ****                                                                     (uint16)CapSense_posFiltersData
2039:Generated_Source\PSoC4/CapSense_CSHL.c ****                                 CapSense_posFiltersData[posIndex] = (uint8) position;
2040:Generated_Source\PSoC4/CapSense_CSHL.c ****                             }
2041:Generated_Source\PSoC4/CapSense_CSHL.c ****                         #endif /* (0u != (CapSense_IIR2_FILTER &
2042:Generated_Source\PSoC4/CapSense_CSHL.c ****                                *          CapSense_RADIAL_SLIDERS_POS_FILTERS_MASK))
2043:Generated_Source\PSoC4/CapSense_CSHL.c ****                                */
2044:Generated_Source\PSoC4/CapSense_CSHL.c **** 
2045:Generated_Source\PSoC4/CapSense_CSHL.c ****                         #if (0u != (CapSense_IIR4_FILTER & CapSense_RADIAL_SLIDERS_POS_FILTERS_MASK
2046:Generated_Source\PSoC4/CapSense_CSHL.c ****                             if (0u != (posFiltersMask & CapSense_IIR4_FILTER))
2047:Generated_Source\PSoC4/CapSense_CSHL.c ****                             {
2048:Generated_Source\PSoC4/CapSense_CSHL.c ****                                 position = CapSense_IIR4Filter(position,
2049:Generated_Source\PSoC4/CapSense_CSHL.c ****                                                                     (uint16)CapSense_posFiltersData
2050:Generated_Source\PSoC4/CapSense_CSHL.c ****                                 CapSense_posFiltersData[posIndex] = (uint8) position;
ARM GAS  C:\Users\ZURUSH~1\AppData\Local\Temp\ccmil0rU.s 			page 53


2051:Generated_Source\PSoC4/CapSense_CSHL.c ****                             }
2052:Generated_Source\PSoC4/CapSense_CSHL.c ****                         #endif /* (0u != (CapSense_IIR4_FILTER &
2053:Generated_Source\PSoC4/CapSense_CSHL.c ****                                *          CapSense_RADIAL_SLIDERS_POS_FILTERS_MASK))
2054:Generated_Source\PSoC4/CapSense_CSHL.c ****                                */
2055:Generated_Source\PSoC4/CapSense_CSHL.c **** 
2056:Generated_Source\PSoC4/CapSense_CSHL.c ****                         #if (0u != (CapSense_JITTER_FILTER & CapSense_RADIAL_SLIDERS_POS_FILTERS_MA
2057:Generated_Source\PSoC4/CapSense_CSHL.c ****                             if (0u != (posFiltersMask & CapSense_JITTER_FILTER))
2058:Generated_Source\PSoC4/CapSense_CSHL.c ****                             {
2059:Generated_Source\PSoC4/CapSense_CSHL.c ****                                 position = CapSense_JitterFilter(position,
2060:Generated_Source\PSoC4/CapSense_CSHL.c ****                                                                          CapSense_posFiltersData[po
2061:Generated_Source\PSoC4/CapSense_CSHL.c ****                                 CapSense_posFiltersData[posIndex] = (uint8) position;
2062:Generated_Source\PSoC4/CapSense_CSHL.c ****                             }
2063:Generated_Source\PSoC4/CapSense_CSHL.c ****                         #endif /* (0u != (CapSense_JITTER_FILTER &
2064:Generated_Source\PSoC4/CapSense_CSHL.c ****                                *           CapSense_RADIAL_SLIDERS_POS_FILTERS_MASK))
2065:Generated_Source\PSoC4/CapSense_CSHL.c ****                                */
2066:Generated_Source\PSoC4/CapSense_CSHL.c ****                     }
2067:Generated_Source\PSoC4/CapSense_CSHL.c ****                 }
2068:Generated_Source\PSoC4/CapSense_CSHL.c ****             #endif /* (0u != CapSense_RADIAL_SLIDERS_POS_FILTERS_MASK) */
2069:Generated_Source\PSoC4/CapSense_CSHL.c **** 
2070:Generated_Source\PSoC4/CapSense_CSHL.c ****         }
2071:Generated_Source\PSoC4/CapSense_CSHL.c ****         else
2072:Generated_Source\PSoC4/CapSense_CSHL.c ****         {
2073:Generated_Source\PSoC4/CapSense_CSHL.c ****             /* Maximum was not found */
2074:Generated_Source\PSoC4/CapSense_CSHL.c ****             position = 0xFFFFu;
2075:Generated_Source\PSoC4/CapSense_CSHL.c **** 
2076:Generated_Source\PSoC4/CapSense_CSHL.c ****             #if (0u != CapSense_RADIAL_SLIDERS_POS_FILTERS_MASK)
2077:Generated_Source\PSoC4/CapSense_CSHL.c ****                 /* Reset filters */
2078:Generated_Source\PSoC4/CapSense_CSHL.c ****                 if((posFiltersMask & CapSense_ANY_POS_FILTER) != 0u)
2079:Generated_Source\PSoC4/CapSense_CSHL.c ****                 {
2080:Generated_Source\PSoC4/CapSense_CSHL.c ****                     CapSense_posFiltersData[firstTimeIndex] = 0u;
2081:Generated_Source\PSoC4/CapSense_CSHL.c ****                 }
2082:Generated_Source\PSoC4/CapSense_CSHL.c ****             #endif /* (0u != CapSense_RADIAL_SLIDERS_POS_FILTERS_MASK) */
2083:Generated_Source\PSoC4/CapSense_CSHL.c ****         }
2084:Generated_Source\PSoC4/CapSense_CSHL.c **** 
2085:Generated_Source\PSoC4/CapSense_CSHL.c ****         return (position);
2086:Generated_Source\PSoC4/CapSense_CSHL.c ****     }
2087:Generated_Source\PSoC4/CapSense_CSHL.c **** #endif /* ((CapSense_TOTAL_RADIAL_SLIDERS_COUNT > 0u) || (CapSense_TOTAL_LINEAR_SLIDERS_COUNT > 0u)
2088:Generated_Source\PSoC4/CapSense_CSHL.c **** 
2089:Generated_Source\PSoC4/CapSense_CSHL.c **** 
2090:Generated_Source\PSoC4/CapSense_CSHL.c **** #if(CapSense_TOTAL_TOUCH_PADS_BASIC_COUNT > 0u)
2091:Generated_Source\PSoC4/CapSense_CSHL.c ****     /*******************************************************************************
2092:Generated_Source\PSoC4/CapSense_CSHL.c ****     * Function Name: CapSense_GetTouchCentroidPos
2093:Generated_Source\PSoC4/CapSense_CSHL.c ****     ********************************************************************************
2094:Generated_Source\PSoC4/CapSense_CSHL.c ****     *
2095:Generated_Source\PSoC4/CapSense_CSHL.c ****     * Summary:
2096:Generated_Source\PSoC4/CapSense_CSHL.c ****     *  If a finger is present on a touchpad, this function calculates the X and Y
2097:Generated_Source\PSoC4/CapSense_CSHL.c ****     *  position of the finger by calculating the centroids within touchpad specified
2098:Generated_Source\PSoC4/CapSense_CSHL.c ****     *  range. The X and Y positions are calculated according to the API resolutions set in the
2099:Generated_Source\PSoC4/CapSense_CSHL.c ****     *  CapSense customizer. Returns 1 if a finger is on the touchpad.
2100:Generated_Source\PSoC4/CapSense_CSHL.c ****     *  The position filter is applied to the result if enabled.
2101:Generated_Source\PSoC4/CapSense_CSHL.c ****     *  This function is available only if a touch pad is defined by the CapSense
2102:Generated_Source\PSoC4/CapSense_CSHL.c ****     *  customizer.
2103:Generated_Source\PSoC4/CapSense_CSHL.c ****     *
2104:Generated_Source\PSoC4/CapSense_CSHL.c ****     * Parameters:
2105:Generated_Source\PSoC4/CapSense_CSHL.c ****     *  widget:  Widget number.
2106:Generated_Source\PSoC4/CapSense_CSHL.c ****     *  For every touchpad widget there are defines in this format:
2107:Generated_Source\PSoC4/CapSense_CSHL.c ****     *  #define CapSense_"widget_name"__TP            5
ARM GAS  C:\Users\ZURUSH~1\AppData\Local\Temp\ccmil0rU.s 			page 54


2108:Generated_Source\PSoC4/CapSense_CSHL.c ****     *
2109:Generated_Source\PSoC4/CapSense_CSHL.c ****     *  pos:     Pointer to the array of two uint16 elements, where result
2110:Generated_Source\PSoC4/CapSense_CSHL.c ****     *  result of calculation of X and Y position are stored.
2111:Generated_Source\PSoC4/CapSense_CSHL.c ****     *  pos[0u]  - position of X
2112:Generated_Source\PSoC4/CapSense_CSHL.c ****     *  pos[1u]  - position of Y
2113:Generated_Source\PSoC4/CapSense_CSHL.c ****     *
2114:Generated_Source\PSoC4/CapSense_CSHL.c ****     * Return:
2115:Generated_Source\PSoC4/CapSense_CSHL.c ****     *  Returns a 1 if a finger is on the touch pad, 0 - if not.
2116:Generated_Source\PSoC4/CapSense_CSHL.c ****     *
2117:Generated_Source\PSoC4/CapSense_CSHL.c ****     * Global Variables:
2118:Generated_Source\PSoC4/CapSense_CSHL.c ****     *  None.
2119:Generated_Source\PSoC4/CapSense_CSHL.c ****     *
2120:Generated_Source\PSoC4/CapSense_CSHL.c ****     * Side Effects:
2121:Generated_Source\PSoC4/CapSense_CSHL.c ****     *   There are no checks of the widget type argument provided to this function.
2122:Generated_Source\PSoC4/CapSense_CSHL.c ****     *   The unproper widget type provided will cause unexpected position
2123:Generated_Source\PSoC4/CapSense_CSHL.c ****     *   calculations.
2124:Generated_Source\PSoC4/CapSense_CSHL.c ****     *
2125:Generated_Source\PSoC4/CapSense_CSHL.c ****     *******************************************************************************/
2126:Generated_Source\PSoC4/CapSense_CSHL.c ****     uint32 CapSense_GetTouchCentroidPos(uint32 widget, uint16* pos)
2127:Generated_Source\PSoC4/CapSense_CSHL.c ****     {
2128:Generated_Source\PSoC4/CapSense_CSHL.c ****         #if (0u != CapSense_TOUCH_PADS_POS_FILTERS_MASK)
2129:Generated_Source\PSoC4/CapSense_CSHL.c ****             uint8 posXIndex;
2130:Generated_Source\PSoC4/CapSense_CSHL.c ****             uint8 posYIndex;
2131:Generated_Source\PSoC4/CapSense_CSHL.c ****             uint8 firstTimeIndex = CapSense_posFiltersData[widget];
2132:Generated_Source\PSoC4/CapSense_CSHL.c ****             uint8 posFiltersMask = CapSense_posFiltersMask[widget];
2133:Generated_Source\PSoC4/CapSense_CSHL.c ****         #endif /* (0u != CapSense_TOUCH_PADS_POS_FILTERS_MASK) */
2134:Generated_Source\PSoC4/CapSense_CSHL.c **** 
2135:Generated_Source\PSoC4/CapSense_CSHL.c ****         #if ((0u != (CapSense_MEDIAN_FILTER & CapSense_TOUCH_PADS_POS_FILTERS_MASK)) || \
2136:Generated_Source\PSoC4/CapSense_CSHL.c ****              (0u != (CapSense_AVERAGING_FILTER & CapSense_TOUCH_PADS_POS_FILTERS_MASK)))
2137:Generated_Source\PSoC4/CapSense_CSHL.c ****             uint16 tempPos;
2138:Generated_Source\PSoC4/CapSense_CSHL.c ****         #endif /* ((0u != (CapSense_MEDIAN_FILTER & CapSense_TOUCH_PADS_POS_FILTERS_MASK)) || \
2139:Generated_Source\PSoC4/CapSense_CSHL.c ****                *   (0u != (CapSense_AVERAGING_FILTER & CapSense_TOUCH_PADS_POS_FILTERS_MASK)))
2140:Generated_Source\PSoC4/CapSense_CSHL.c ****                */
2141:Generated_Source\PSoC4/CapSense_CSHL.c **** 
2142:Generated_Source\PSoC4/CapSense_CSHL.c ****         uint8 MaxX;
2143:Generated_Source\PSoC4/CapSense_CSHL.c ****         uint8 MaxY;
2144:Generated_Source\PSoC4/CapSense_CSHL.c ****         uint8 posX;
2145:Generated_Source\PSoC4/CapSense_CSHL.c ****         uint8 posY;
2146:Generated_Source\PSoC4/CapSense_CSHL.c ****         uint32 touch = 0u;
2147:Generated_Source\PSoC4/CapSense_CSHL.c ****         uint8 offset = CapSense_rawDataIndex[widget];
2148:Generated_Source\PSoC4/CapSense_CSHL.c ****         uint8 count = CapSense_numberOfSensors[widget];
2149:Generated_Source\PSoC4/CapSense_CSHL.c **** 
2150:Generated_Source\PSoC4/CapSense_CSHL.c ****         /* Find Maximum within X centroid */
2151:Generated_Source\PSoC4/CapSense_CSHL.c ****         #if (CapSense_IS_DIPLEX_SLIDER)
2152:Generated_Source\PSoC4/CapSense_CSHL.c ****             MaxX = CapSense_FindMaximum(offset, count, CapSense_fingerThreshold[widget], 0u);
2153:Generated_Source\PSoC4/CapSense_CSHL.c ****         #else
2154:Generated_Source\PSoC4/CapSense_CSHL.c ****             MaxX = CapSense_FindMaximum(offset, count, CapSense_fingerThreshold[widget]);
2155:Generated_Source\PSoC4/CapSense_CSHL.c ****         #endif /* (CapSense_IS_DIPLEX_SLIDER) */
2156:Generated_Source\PSoC4/CapSense_CSHL.c **** 
2157:Generated_Source\PSoC4/CapSense_CSHL.c ****         if (MaxX != CapSense_MAXIMUM_CENTROID)
2158:Generated_Source\PSoC4/CapSense_CSHL.c ****         {
2159:Generated_Source\PSoC4/CapSense_CSHL.c ****             offset = CapSense_rawDataIndex[widget + 1u];
2160:Generated_Source\PSoC4/CapSense_CSHL.c ****             count = CapSense_numberOfSensors[widget + 1u];
2161:Generated_Source\PSoC4/CapSense_CSHL.c **** 
2162:Generated_Source\PSoC4/CapSense_CSHL.c ****             /* Find Maximum within Y centroid */
2163:Generated_Source\PSoC4/CapSense_CSHL.c ****             #if (CapSense_IS_DIPLEX_SLIDER)
2164:Generated_Source\PSoC4/CapSense_CSHL.c ****                 MaxY = CapSense_FindMaximum(offset, count, CapSense_fingerThreshold[widget + 1u], 0
ARM GAS  C:\Users\ZURUSH~1\AppData\Local\Temp\ccmil0rU.s 			page 55


2165:Generated_Source\PSoC4/CapSense_CSHL.c ****             #else
2166:Generated_Source\PSoC4/CapSense_CSHL.c ****                 MaxY = CapSense_FindMaximum(offset, count, CapSense_fingerThreshold[widget + 1u]);
2167:Generated_Source\PSoC4/CapSense_CSHL.c ****             #endif /* (CapSense_IS_DIPLEX_SLIDER) */
2168:Generated_Source\PSoC4/CapSense_CSHL.c **** 
2169:Generated_Source\PSoC4/CapSense_CSHL.c ****             if (MaxY != CapSense_MAXIMUM_CENTROID)
2170:Generated_Source\PSoC4/CapSense_CSHL.c ****             {
2171:Generated_Source\PSoC4/CapSense_CSHL.c ****                 /* X and Y maximums are found = true touch */
2172:Generated_Source\PSoC4/CapSense_CSHL.c ****                 touch = 1u;
2173:Generated_Source\PSoC4/CapSense_CSHL.c **** 
2174:Generated_Source\PSoC4/CapSense_CSHL.c ****                 /* Calculate Y centroid */
2175:Generated_Source\PSoC4/CapSense_CSHL.c ****                 posY = CapSense_CalcCentroid(MaxY, offset, count,
2176:Generated_Source\PSoC4/CapSense_CSHL.c ****                             CapSense_centroidMult[widget + 1u], CapSense_noiseThreshold[widget + 1u
2177:Generated_Source\PSoC4/CapSense_CSHL.c **** 
2178:Generated_Source\PSoC4/CapSense_CSHL.c ****                 /* Calculate X centroid */
2179:Generated_Source\PSoC4/CapSense_CSHL.c ****                 offset = CapSense_rawDataIndex[widget];
2180:Generated_Source\PSoC4/CapSense_CSHL.c ****                 count = CapSense_numberOfSensors[widget];
2181:Generated_Source\PSoC4/CapSense_CSHL.c **** 
2182:Generated_Source\PSoC4/CapSense_CSHL.c ****                 posX = CapSense_CalcCentroid(MaxX, offset, count,
2183:Generated_Source\PSoC4/CapSense_CSHL.c ****                             CapSense_centroidMult[widget],CapSense_noiseThreshold[widget]);
2184:Generated_Source\PSoC4/CapSense_CSHL.c **** 
2185:Generated_Source\PSoC4/CapSense_CSHL.c ****                 #if (0u != CapSense_TOUCH_PADS_POS_FILTERS_MASK)
2186:Generated_Source\PSoC4/CapSense_CSHL.c ****                     /* Check if this TP has enabled filters */
2187:Generated_Source\PSoC4/CapSense_CSHL.c ****                     if (0u != (posFiltersMask & CapSense_ANY_POS_FILTER))
2188:Generated_Source\PSoC4/CapSense_CSHL.c ****                     {
2189:Generated_Source\PSoC4/CapSense_CSHL.c ****                         /* Calculate position to store filters data */
2190:Generated_Source\PSoC4/CapSense_CSHL.c ****                         posXIndex  = firstTimeIndex + 1u;
2191:Generated_Source\PSoC4/CapSense_CSHL.c ****                         posYIndex  = CapSense_posFiltersData[widget + 1u];
2192:Generated_Source\PSoC4/CapSense_CSHL.c **** 
2193:Generated_Source\PSoC4/CapSense_CSHL.c ****                         if (0u == CapSense_posFiltersData[firstTimeIndex])
2194:Generated_Source\PSoC4/CapSense_CSHL.c ****                         {
2195:Generated_Source\PSoC4/CapSense_CSHL.c ****                             /* Init filters */
2196:Generated_Source\PSoC4/CapSense_CSHL.c ****                             CapSense_posFiltersData[posXIndex] = posX;
2197:Generated_Source\PSoC4/CapSense_CSHL.c ****                             CapSense_posFiltersData[posYIndex] = posY;
2198:Generated_Source\PSoC4/CapSense_CSHL.c **** 
2199:Generated_Source\PSoC4/CapSense_CSHL.c ****                             #if((0u != (CapSense_MEDIAN_FILTER & \
2200:Generated_Source\PSoC4/CapSense_CSHL.c ****                                         CapSense_TOUCH_PADS_POS_FILTERS_MASK))|| \
2201:Generated_Source\PSoC4/CapSense_CSHL.c ****                                 (0u != (CapSense_AVERAGING_FILTER & \
2202:Generated_Source\PSoC4/CapSense_CSHL.c ****                                         CapSense_TOUCH_PADS_POS_FILTERS_MASK)))
2203:Generated_Source\PSoC4/CapSense_CSHL.c **** 
2204:Generated_Source\PSoC4/CapSense_CSHL.c ****                                 if ( (0u != (posFiltersMask & CapSense_MEDIAN_FILTER)) ||
2205:Generated_Source\PSoC4/CapSense_CSHL.c ****                                      (0u != (posFiltersMask & CapSense_AVERAGING_FILTER)) )
2206:Generated_Source\PSoC4/CapSense_CSHL.c ****                                 {
2207:Generated_Source\PSoC4/CapSense_CSHL.c ****                                     CapSense_posFiltersData[posXIndex + 1u] = posX;
2208:Generated_Source\PSoC4/CapSense_CSHL.c ****                                     CapSense_posFiltersData[posYIndex + 1u] = posY;
2209:Generated_Source\PSoC4/CapSense_CSHL.c ****                                 }
2210:Generated_Source\PSoC4/CapSense_CSHL.c ****                             #endif /* ((0u != (CapSense_MEDIAN_FILTER & \
2211:Generated_Source\PSoC4/CapSense_CSHL.c ****                                    *           CapSense_TOUCH_PADS_POS_FILTERS_MASK)) || \
2212:Generated_Source\PSoC4/CapSense_CSHL.c ****                                    *    (0u != (CapSense_AVERAGING_FILTER & \
2213:Generated_Source\PSoC4/CapSense_CSHL.c ****                                    *            CapSense_TOUCH_PADS_POS_FILTERS_MASK)))
2214:Generated_Source\PSoC4/CapSense_CSHL.c ****                                    */
2215:Generated_Source\PSoC4/CapSense_CSHL.c **** 
2216:Generated_Source\PSoC4/CapSense_CSHL.c ****                             CapSense_posFiltersData[firstTimeIndex] = 1u;
2217:Generated_Source\PSoC4/CapSense_CSHL.c ****                         }
2218:Generated_Source\PSoC4/CapSense_CSHL.c ****                         else
2219:Generated_Source\PSoC4/CapSense_CSHL.c ****                         {
2220:Generated_Source\PSoC4/CapSense_CSHL.c ****                             /* Do filtering */
2221:Generated_Source\PSoC4/CapSense_CSHL.c ****                             #if (0u != (CapSense_MEDIAN_FILTER & CapSense_TOUCH_PADS_POS_FILTERS_MA
ARM GAS  C:\Users\ZURUSH~1\AppData\Local\Temp\ccmil0rU.s 			page 56


2222:Generated_Source\PSoC4/CapSense_CSHL.c ****                                 if (0u != (posFiltersMask & CapSense_MEDIAN_FILTER))
2223:Generated_Source\PSoC4/CapSense_CSHL.c ****                                 {
2224:Generated_Source\PSoC4/CapSense_CSHL.c ****                                     tempPos = posX;
2225:Generated_Source\PSoC4/CapSense_CSHL.c ****                                     posX = (uint8) CapSense_MedianFilter(posX,
2226:Generated_Source\PSoC4/CapSense_CSHL.c ****                                                                       CapSense_posFiltersData[posXI
2227:Generated_Source\PSoC4/CapSense_CSHL.c ****                                                                       CapSense_posFiltersData[posXI
2228:Generated_Source\PSoC4/CapSense_CSHL.c ****                                     CapSense_posFiltersData[posXIndex + 1u] =
2229:Generated_Source\PSoC4/CapSense_CSHL.c ****                                                                              CapSense_posFiltersDat
2230:Generated_Source\PSoC4/CapSense_CSHL.c ****                                     CapSense_posFiltersData[posXIndex] = tempPos;
2231:Generated_Source\PSoC4/CapSense_CSHL.c **** 
2232:Generated_Source\PSoC4/CapSense_CSHL.c ****                                     tempPos = posY;
2233:Generated_Source\PSoC4/CapSense_CSHL.c ****                                     posY = (uint8) CapSense_MedianFilter(posY,
2234:Generated_Source\PSoC4/CapSense_CSHL.c ****                                                                        CapSense_posFiltersData[posY
2235:Generated_Source\PSoC4/CapSense_CSHL.c ****                                                                        CapSense_posFiltersData[posY
2236:Generated_Source\PSoC4/CapSense_CSHL.c ****                                     CapSense_posFiltersData[posYIndex + 1u] =
2237:Generated_Source\PSoC4/CapSense_CSHL.c ****                                                                              CapSense_posFiltersDat
2238:Generated_Source\PSoC4/CapSense_CSHL.c ****                                     CapSense_posFiltersData[posYIndex] = tempPos;
2239:Generated_Source\PSoC4/CapSense_CSHL.c ****                                 }
2240:Generated_Source\PSoC4/CapSense_CSHL.c **** 
2241:Generated_Source\PSoC4/CapSense_CSHL.c ****                             #endif /* (0u != (CapSense_MEDIAN_FILTER & \
2242:Generated_Source\PSoC4/CapSense_CSHL.c ****                                    *          CapSense_TOUCH_PADS_POS_FILTERS_MASK))
2243:Generated_Source\PSoC4/CapSense_CSHL.c ****                                    */
2244:Generated_Source\PSoC4/CapSense_CSHL.c **** 
2245:Generated_Source\PSoC4/CapSense_CSHL.c ****                             #if(0u !=(CapSense_AVERAGING_FILTER & CapSense_TOUCH_PADS_POS_FILTERS_M
2246:Generated_Source\PSoC4/CapSense_CSHL.c ****                                 if (0u != (posFiltersMask & CapSense_AVERAGING_FILTER))
2247:Generated_Source\PSoC4/CapSense_CSHL.c ****                                 {
2248:Generated_Source\PSoC4/CapSense_CSHL.c ****                                     tempPos = posX;
2249:Generated_Source\PSoC4/CapSense_CSHL.c ****                                     posX = (uint8) CapSense_AveragingFilter(posX,
2250:Generated_Source\PSoC4/CapSense_CSHL.c ****                                                                        CapSense_posFiltersData[posX
2251:Generated_Source\PSoC4/CapSense_CSHL.c ****                                                                        CapSense_posFiltersData[posX
2252:Generated_Source\PSoC4/CapSense_CSHL.c ****                                     CapSense_posFiltersData[posXIndex + 1u] =
2253:Generated_Source\PSoC4/CapSense_CSHL.c ****                                                                              CapSense_posFiltersDat
2254:Generated_Source\PSoC4/CapSense_CSHL.c ****                                     CapSense_posFiltersData[posXIndex] = tempPos;
2255:Generated_Source\PSoC4/CapSense_CSHL.c **** 
2256:Generated_Source\PSoC4/CapSense_CSHL.c ****                                     tempPos = posY;
2257:Generated_Source\PSoC4/CapSense_CSHL.c ****                                     posY = (uint8) CapSense_AveragingFilter(posY,
2258:Generated_Source\PSoC4/CapSense_CSHL.c ****                                                                       CapSense_posFiltersData[posYI
2259:Generated_Source\PSoC4/CapSense_CSHL.c ****                                                                       CapSense_posFiltersData[posYI
2260:Generated_Source\PSoC4/CapSense_CSHL.c ****                                     CapSense_posFiltersData[posYIndex + 1u] =
2261:Generated_Source\PSoC4/CapSense_CSHL.c ****                                                                             CapSense_posFiltersData
2262:Generated_Source\PSoC4/CapSense_CSHL.c ****                                     CapSense_posFiltersData[posYIndex] = tempPos;
2263:Generated_Source\PSoC4/CapSense_CSHL.c ****                                 }
2264:Generated_Source\PSoC4/CapSense_CSHL.c **** 
2265:Generated_Source\PSoC4/CapSense_CSHL.c ****                             #endif /* (0u != (CapSense_AVERAGING_FILTER & \
2266:Generated_Source\PSoC4/CapSense_CSHL.c ****                                    *           CapSense_TOUCH_PADS_POS_FILTERS_MASK))
2267:Generated_Source\PSoC4/CapSense_CSHL.c ****                                    */
2268:Generated_Source\PSoC4/CapSense_CSHL.c **** 
2269:Generated_Source\PSoC4/CapSense_CSHL.c ****                             #if (0u != (CapSense_IIR2_FILTER & CapSense_TOUCH_PADS_POS_FILTERS_MASK
2270:Generated_Source\PSoC4/CapSense_CSHL.c ****                                 if (0u != (posFiltersMask & CapSense_IIR2_FILTER))
2271:Generated_Source\PSoC4/CapSense_CSHL.c ****                                 {
2272:Generated_Source\PSoC4/CapSense_CSHL.c ****                                     posX = (uint8) CapSense_IIR2Filter(posX,
2273:Generated_Source\PSoC4/CapSense_CSHL.c ****                                                                            CapSense_posFiltersData[
2274:Generated_Source\PSoC4/CapSense_CSHL.c ****                                     CapSense_posFiltersData[posXIndex] = posX;
2275:Generated_Source\PSoC4/CapSense_CSHL.c **** 
2276:Generated_Source\PSoC4/CapSense_CSHL.c ****                                     posY = (uint8) CapSense_IIR2Filter(posY,
2277:Generated_Source\PSoC4/CapSense_CSHL.c ****                                                                             CapSense_posFiltersData
2278:Generated_Source\PSoC4/CapSense_CSHL.c ****                                     CapSense_posFiltersData[posYIndex] = posY;
ARM GAS  C:\Users\ZURUSH~1\AppData\Local\Temp\ccmil0rU.s 			page 57


2279:Generated_Source\PSoC4/CapSense_CSHL.c ****                                 }
2280:Generated_Source\PSoC4/CapSense_CSHL.c **** 
2281:Generated_Source\PSoC4/CapSense_CSHL.c ****                             #endif /* (0u != (CapSense_IIR2_FILTER & \
2282:Generated_Source\PSoC4/CapSense_CSHL.c ****                                    *          CapSense_TOUCH_PADS_POS_FILTERS_MASK))
2283:Generated_Source\PSoC4/CapSense_CSHL.c ****                                    */
2284:Generated_Source\PSoC4/CapSense_CSHL.c **** 
2285:Generated_Source\PSoC4/CapSense_CSHL.c ****                             #if (0u != (CapSense_IIR4_FILTER & CapSense_TOUCH_PADS_POS_FILTERS_MASK
2286:Generated_Source\PSoC4/CapSense_CSHL.c ****                                 if (0u != (posFiltersMask & CapSense_IIR4_FILTER))
2287:Generated_Source\PSoC4/CapSense_CSHL.c ****                                 {
2288:Generated_Source\PSoC4/CapSense_CSHL.c ****                                     posX = (uint8) CapSense_IIR4Filter((uint16)posX,
2289:Generated_Source\PSoC4/CapSense_CSHL.c ****                                                                     (uint16)CapSense_posFiltersData
2290:Generated_Source\PSoC4/CapSense_CSHL.c ****                                     CapSense_posFiltersData[posXIndex] = posX;
2291:Generated_Source\PSoC4/CapSense_CSHL.c **** 
2292:Generated_Source\PSoC4/CapSense_CSHL.c ****                                     posY = (uint8) CapSense_IIR4Filter((uint16)posY,
2293:Generated_Source\PSoC4/CapSense_CSHL.c ****                                                                     (uint16)CapSense_posFiltersData
2294:Generated_Source\PSoC4/CapSense_CSHL.c ****                                     CapSense_posFiltersData[posYIndex] = posY;
2295:Generated_Source\PSoC4/CapSense_CSHL.c ****                                 }
2296:Generated_Source\PSoC4/CapSense_CSHL.c **** 
2297:Generated_Source\PSoC4/CapSense_CSHL.c ****                             #endif /* (0u != (CapSense_IIR4_FILTER & \
2298:Generated_Source\PSoC4/CapSense_CSHL.c ****                                    *           CapSense_TOUCH_PADS_POS_FILTERS_MASK))
2299:Generated_Source\PSoC4/CapSense_CSHL.c ****                                    */
2300:Generated_Source\PSoC4/CapSense_CSHL.c **** 
2301:Generated_Source\PSoC4/CapSense_CSHL.c ****                             #if (0u != (CapSense_JITTER_FILTER & CapSense_TOUCH_PADS_POS_FILTERS_MA
2302:Generated_Source\PSoC4/CapSense_CSHL.c ****                                 if (0u != (posFiltersMask & CapSense_JITTER_FILTER))
2303:Generated_Source\PSoC4/CapSense_CSHL.c ****                                     {
2304:Generated_Source\PSoC4/CapSense_CSHL.c ****                                         posX = (uint8) CapSense_JitterFilter(posX,
2305:Generated_Source\PSoC4/CapSense_CSHL.c ****                                                                             CapSense_posFiltersData
2306:Generated_Source\PSoC4/CapSense_CSHL.c ****                                         CapSense_posFiltersData[posXIndex] = posX;
2307:Generated_Source\PSoC4/CapSense_CSHL.c **** 
2308:Generated_Source\PSoC4/CapSense_CSHL.c ****                                         posY = (uint8) CapSense_JitterFilter(posY,
2309:Generated_Source\PSoC4/CapSense_CSHL.c ****                                                                             CapSense_posFiltersData
2310:Generated_Source\PSoC4/CapSense_CSHL.c ****                                         CapSense_posFiltersData[posYIndex] = posY;
2311:Generated_Source\PSoC4/CapSense_CSHL.c ****                                     }
2312:Generated_Source\PSoC4/CapSense_CSHL.c ****                             #endif /* (0u != (CapSense_JITTER_FILTER & \
2313:Generated_Source\PSoC4/CapSense_CSHL.c ****                                    *           CapSense_TOUCH_PADS_POS_FILTERS_MASK))
2314:Generated_Source\PSoC4/CapSense_CSHL.c ****                                    */
2315:Generated_Source\PSoC4/CapSense_CSHL.c ****                         }
2316:Generated_Source\PSoC4/CapSense_CSHL.c ****                     }
2317:Generated_Source\PSoC4/CapSense_CSHL.c ****                 #endif /* (0u != CapSense_TOUCH_PADS_POS_FILTERS_MASK) */
2318:Generated_Source\PSoC4/CapSense_CSHL.c **** 
2319:Generated_Source\PSoC4/CapSense_CSHL.c ****                 /* Save positions */
2320:Generated_Source\PSoC4/CapSense_CSHL.c ****                 pos[0u] = posX;
2321:Generated_Source\PSoC4/CapSense_CSHL.c ****                 pos[1u] = posY;
2322:Generated_Source\PSoC4/CapSense_CSHL.c ****             }
2323:Generated_Source\PSoC4/CapSense_CSHL.c ****         }
2324:Generated_Source\PSoC4/CapSense_CSHL.c **** 
2325:Generated_Source\PSoC4/CapSense_CSHL.c ****         #if (0u != CapSense_TOUCH_PADS_POS_FILTERS_MASK)
2326:Generated_Source\PSoC4/CapSense_CSHL.c ****             if(touch == 0u)
2327:Generated_Source\PSoC4/CapSense_CSHL.c ****             {
2328:Generated_Source\PSoC4/CapSense_CSHL.c ****                 /* Reset filters */
2329:Generated_Source\PSoC4/CapSense_CSHL.c ****                 if ((posFiltersMask & CapSense_ANY_POS_FILTER) != 0u)
2330:Generated_Source\PSoC4/CapSense_CSHL.c ****                 {
2331:Generated_Source\PSoC4/CapSense_CSHL.c ****                     CapSense_posFiltersData[firstTimeIndex] = 0u;
2332:Generated_Source\PSoC4/CapSense_CSHL.c ****                 }
2333:Generated_Source\PSoC4/CapSense_CSHL.c ****             }
2334:Generated_Source\PSoC4/CapSense_CSHL.c ****         #endif /* (0u != CapSense_TOUCH_PADS_POS_FILTERS_MASK) */
2335:Generated_Source\PSoC4/CapSense_CSHL.c **** 
ARM GAS  C:\Users\ZURUSH~1\AppData\Local\Temp\ccmil0rU.s 			page 58


2336:Generated_Source\PSoC4/CapSense_CSHL.c ****         return (touch);
2337:Generated_Source\PSoC4/CapSense_CSHL.c ****     }
2338:Generated_Source\PSoC4/CapSense_CSHL.c **** #endif /* (CapSense_TOTAL_TOUCH_PADS_BASIC_COUNT > 0u) */
2339:Generated_Source\PSoC4/CapSense_CSHL.c **** 
2340:Generated_Source\PSoC4/CapSense_CSHL.c **** 
2341:Generated_Source\PSoC4/CapSense_CSHL.c **** #if ( (0u != (CapSense_RAW_FILTER_MASK & CapSense_MEDIAN_FILTER)) || \
2342:Generated_Source\PSoC4/CapSense_CSHL.c ****       (0u != (CapSense_POS_FILTERS_MASK & CapSense_MEDIAN_FILTER)) || \
2343:Generated_Source\PSoC4/CapSense_CSHL.c ****       ((CapSense_TUNING_METHOD == CapSense__TUNING_AUTO)) )
2344:Generated_Source\PSoC4/CapSense_CSHL.c ****     /*******************************************************************************
2345:Generated_Source\PSoC4/CapSense_CSHL.c ****     * Function Name: CapSense_MedianFilter
2346:Generated_Source\PSoC4/CapSense_CSHL.c ****     ********************************************************************************
2347:Generated_Source\PSoC4/CapSense_CSHL.c ****     *
2348:Generated_Source\PSoC4/CapSense_CSHL.c ****     * Summary:
2349:Generated_Source\PSoC4/CapSense_CSHL.c ****     *  This is the Median filter function.
2350:Generated_Source\PSoC4/CapSense_CSHL.c ****     *  The median filter looks at the three most recent samples and reports the
2351:Generated_Source\PSoC4/CapSense_CSHL.c ****     *  median value.
2352:Generated_Source\PSoC4/CapSense_CSHL.c ****     *
2353:Generated_Source\PSoC4/CapSense_CSHL.c ****     * Parameters:
2354:Generated_Source\PSoC4/CapSense_CSHL.c ****     *  x1:  Current value.
2355:Generated_Source\PSoC4/CapSense_CSHL.c ****     *  x2:  Previous value.
2356:Generated_Source\PSoC4/CapSense_CSHL.c ****     *  x3:  Before previous value.
2357:Generated_Source\PSoC4/CapSense_CSHL.c ****     *
2358:Generated_Source\PSoC4/CapSense_CSHL.c ****     * Return:
2359:Generated_Source\PSoC4/CapSense_CSHL.c ****     *  Returns filtered value.
2360:Generated_Source\PSoC4/CapSense_CSHL.c ****     *
2361:Generated_Source\PSoC4/CapSense_CSHL.c ****     * Global Variables:
2362:Generated_Source\PSoC4/CapSense_CSHL.c ****     *  None.
2363:Generated_Source\PSoC4/CapSense_CSHL.c ****     *
2364:Generated_Source\PSoC4/CapSense_CSHL.c ****     * Side Effects:
2365:Generated_Source\PSoC4/CapSense_CSHL.c ****     *  None
2366:Generated_Source\PSoC4/CapSense_CSHL.c ****     *
2367:Generated_Source\PSoC4/CapSense_CSHL.c ****     *******************************************************************************/
2368:Generated_Source\PSoC4/CapSense_CSHL.c ****     uint16 CapSense_MedianFilter(uint16 x1, uint16 x2, uint16 x3)
2369:Generated_Source\PSoC4/CapSense_CSHL.c ****     {
 909              		.loc 1 2369 0
 910              		.cfi_startproc
 911              		@ args = 0, pretend = 0, frame = 0
 912              		@ frame_needed = 0, uses_anonymous_args = 0
 913              		@ link register save eliminated.
 914              	.LVL80:
2370:Generated_Source\PSoC4/CapSense_CSHL.c ****         uint16 tmp;
2371:Generated_Source\PSoC4/CapSense_CSHL.c **** 
2372:Generated_Source\PSoC4/CapSense_CSHL.c ****         if (x1 > x2)
 915              		.loc 1 2372 0
 916 0000 8842     		cmp	r0, r1
 917 0002 02D9     		bls	.L80
 918 0004 0300     		movs	r3, r0
2373:Generated_Source\PSoC4/CapSense_CSHL.c ****         {
2374:Generated_Source\PSoC4/CapSense_CSHL.c ****             tmp = x2;
2375:Generated_Source\PSoC4/CapSense_CSHL.c ****             x2 = x1;
2376:Generated_Source\PSoC4/CapSense_CSHL.c ****             x1 = tmp;
 919              		.loc 1 2376 0
 920 0006 0800     		movs	r0, r1
 921              	.LVL81:
2375:Generated_Source\PSoC4/CapSense_CSHL.c ****             x1 = tmp;
 922              		.loc 1 2375 0
 923 0008 1900     		movs	r1, r3
ARM GAS  C:\Users\ZURUSH~1\AppData\Local\Temp\ccmil0rU.s 			page 59


 924              	.LVL82:
 925              	.L80:
2377:Generated_Source\PSoC4/CapSense_CSHL.c ****         }
2378:Generated_Source\PSoC4/CapSense_CSHL.c **** 
2379:Generated_Source\PSoC4/CapSense_CSHL.c ****         if (x2 > x3)
 926              		.loc 1 2379 0
 927 000a 9142     		cmp	r1, r2
 928 000c 00D9     		bls	.L81
