ARM GAS  C:\Users\ZTIPRI~1\AppData\Local\Temp\cc4LKIPf.s 			page 1


   1              		.syntax unified
   2              		.cpu cortex-m0
   3              		.fpu softvfp
   4              		.eabi_attribute 20, 1
   5              		.eabi_attribute 21, 1
   6              		.eabi_attribute 23, 3
   7              		.eabi_attribute 24, 1
   8              		.eabi_attribute 25, 1
   9              		.eabi_attribute 26, 1
  10              		.eabi_attribute 30, 1
  11              		.eabi_attribute 34, 0
  12              		.eabi_attribute 18, 4
  13              		.thumb
  14              		.syntax unified
  15              		.file	"main.c"
  16              		.text
  17              	.Ltext0:
  18              		.cfi_sections	.debug_frame
  19              		.section	.text.level0,"ax",%progbits
  20              		.align	2
  21              		.global	level0
  22              		.code	16
  23              		.thumb_func
  24              		.type	level0, %function
  25              	level0:
  26              	.LFB33:
  27              		.file 1 "main.c"
   1:main.c        **** 
   2:main.c        **** #include "project.h"
   3:main.c        **** 
   4:main.c        **** int flag=0;
   5:main.c        **** 
   6:main.c        **** void level_up_2();
   7:main.c        **** void level_up_1();
   8:main.c        **** void level_down_2();
   9:main.c        **** void level_down_1();
  10:main.c        **** void level0();
  11:main.c        **** 
  12:main.c        **** int main(void)
  13:main.c        **** {
  14:main.c        ****     CyGlobalIntEnable; /* Enable global interrupts. */
  15:main.c        ****     
  16:main.c        ****     CapSense_CSD_Start();	
  17:main.c        ****     CapSense_CSD_InitializeAllBaselines();
  18:main.c        ****     
  19:main.c        ****     for(;;)
  20:main.c        ****     {
  21:main.c        ****      CapSense_CSD_UpdateEnabledBaselines();
  22:main.c        ****         CapSense_CSD_ScanEnabledWidgets();
  23:main.c        ****         while(CapSense_CSD_IsBusy() != 0)
  24:main.c        **** 		{
  25:main.c        **** 		}
  26:main.c        ****        
  27:main.c        ****     uint32 state1= CapSense_CSD_CheckIsWidgetActive(CapSense_CSD_SENSOR_BUTTON0__BTN);
  28:main.c        ****     uint32 state2= CapSense_CSD_CheckIsWidgetActive(CapSense_CSD_SENSOR_BUTTON1__BTN);
  29:main.c        ****     uint32 state3= CapSense_CSD_CheckIsWidgetActive(CapSense_CSD_SENSOR_BUTTON2__BTN);
  30:main.c        ****     uint32 state4= CapSense_CSD_CheckIsWidgetActive(CapSense_CSD_SENSOR_BUTTON3__BTN);
ARM GAS  C:\Users\ZTIPRI~1\AppData\Local\Temp\cc4LKIPf.s 			page 2


  31:main.c        ****     uint32 state5= CapSense_CSD_CheckIsWidgetActive(CapSense_CSD_SENSOR_BUTTON4__BTN);
  32:main.c        ****        
  33:main.c        ****     if(state1==1u){  level_up_2(); }
  34:main.c        ****     if(state2==1u){  level_up_1(); }
  35:main.c        ****     if(state3==1u){  level0(); }
  36:main.c        ****     if(state4==1u){  level_down_1(); }
  37:main.c        ****     if(state5==1u){  level_down_2(); }
  38:main.c        ****         
  39:main.c        ****     }
  40:main.c        **** 
  41:main.c        **** }
  42:main.c        **** 
  43:main.c        **** void level0(){ 
  28              		.loc 1 43 0
  29              		.cfi_startproc
  30              		@ args = 0, pretend = 0, frame = 0
  31              		@ frame_needed = 0, uses_anonymous_args = 0
  32 0000 10B5     		push	{r4, lr}
  33              		.cfi_def_cfa_offset 8
  34              		.cfi_offset 4, -8
  35              		.cfi_offset 14, -4
  44:main.c        ****     LED_1_Write(0u);
  36              		.loc 1 44 0
  37 0002 0020     		movs	r0, #0
  38 0004 FFF7FEFF 		bl	LED_1_Write
  39              	.LVL0:
  45:main.c        ****     LED_2_Write(0u);
  40              		.loc 1 45 0
  41 0008 0020     		movs	r0, #0
  42 000a FFF7FEFF 		bl	LED_2_Write
  43              	.LVL1:
  46:main.c        ****     LED_3_Write(0u);
  44              		.loc 1 46 0
  45 000e 0020     		movs	r0, #0
  46 0010 FFF7FEFF 		bl	LED_3_Write
  47              	.LVL2:
  47:main.c        ****     LED_4_Write(0u);
  48              		.loc 1 47 0
  49 0014 0020     		movs	r0, #0
  50 0016 FFF7FEFF 		bl	LED_4_Write
  51              	.LVL3:
  48:main.c        **** }
  52              		.loc 1 48 0
  53              		@ sp needed
  54 001a 10BD     		pop	{r4, pc}
  55              		.cfi_endproc
  56              	.LFE33:
  57              		.size	level0, .-level0
  58              		.section	.text.level_up_1,"ax",%progbits
  59              		.align	2
  60              		.global	level_up_1
  61              		.code	16
  62              		.thumb_func
  63              		.type	level_up_1, %function
  64              	level_up_1:
  65              	.LFB34:
  49:main.c        **** 
ARM GAS  C:\Users\ZTIPRI~1\AppData\Local\Temp\cc4LKIPf.s 			page 3


  50:main.c        **** void level_up_1(){
  66              		.loc 1 50 0
  67              		.cfi_startproc
  68              		@ args = 0, pretend = 0, frame = 0
  69              		@ frame_needed = 0, uses_anonymous_args = 0
  70 0000 10B5     		push	{r4, lr}
  71              		.cfi_def_cfa_offset 8
  72              		.cfi_offset 4, -8
  73              		.cfi_offset 14, -4
  51:main.c        ****  LED_3_Write(1u);
  74              		.loc 1 51 0
  75 0002 0120     		movs	r0, #1
  76 0004 FFF7FEFF 		bl	LED_3_Write
  77              	.LVL4:
  52:main.c        ****  LED_4_Write(0u);
  78              		.loc 1 52 0
  79 0008 0020     		movs	r0, #0
  80 000a FFF7FEFF 		bl	LED_4_Write
  81              	.LVL5:
  53:main.c        **** }
  82              		.loc 1 53 0
  83              		@ sp needed
  84 000e 10BD     		pop	{r4, pc}
  85              		.cfi_endproc
  86              	.LFE34:
  87              		.size	level_up_1, .-level_up_1
  88              		.section	.text.level_up_2,"ax",%progbits
  89              		.align	2
  90              		.global	level_up_2
  91              		.code	16
  92              		.thumb_func
  93              		.type	level_up_2, %function
  94              	level_up_2:
  95              	.LFB35:
  54:main.c        **** void level_up_2(){
  96              		.loc 1 54 0
  97              		.cfi_startproc
  98              		@ args = 0, pretend = 0, frame = 0
  99              		@ frame_needed = 0, uses_anonymous_args = 0
 100 0000 10B5     		push	{r4, lr}
 101              		.cfi_def_cfa_offset 8
 102              		.cfi_offset 4, -8
 103              		.cfi_offset 14, -4
  55:main.c        ****  LED_3_Write(1u);
 104              		.loc 1 55 0
 105 0002 0120     		movs	r0, #1
 106 0004 FFF7FEFF 		bl	LED_3_Write
 107              	.LVL6:
  56:main.c        ****  LED_4_Write(1u);
 108              		.loc 1 56 0
 109 0008 0120     		movs	r0, #1
 110 000a FFF7FEFF 		bl	LED_4_Write
 111              	.LVL7:
  57:main.c        **** }
 112              		.loc 1 57 0
 113              		@ sp needed
 114 000e 10BD     		pop	{r4, pc}
ARM GAS  C:\Users\ZTIPRI~1\AppData\Local\Temp\cc4LKIPf.s 			page 4


 115              		.cfi_endproc
 116              	.LFE35:
 117              		.size	level_up_2, .-level_up_2
 118              		.section	.text.level_down_1,"ax",%progbits
 119              		.align	2
 120              		.global	level_down_1
 121              		.code	16
 122              		.thumb_func
 123              		.type	level_down_1, %function
 124              	level_down_1:
 125              	.LFB36:
  58:main.c        **** 
  59:main.c        **** void level_down_1(){
 126              		.loc 1 59 0
 127              		.cfi_startproc
 128              		@ args = 0, pretend = 0, frame = 0
 129              		@ frame_needed = 0, uses_anonymous_args = 0
 130 0000 10B5     		push	{r4, lr}
 131              		.cfi_def_cfa_offset 8
 132              		.cfi_offset 4, -8
 133              		.cfi_offset 14, -4
  60:main.c        ****     LED_2_Write(1u);
 134              		.loc 1 60 0
 135 0002 0120     		movs	r0, #1
 136 0004 FFF7FEFF 		bl	LED_2_Write
 137              	.LVL8:
  61:main.c        ****     LED_1_Write(0u);
 138              		.loc 1 61 0
 139 0008 0020     		movs	r0, #0
 140 000a FFF7FEFF 		bl	LED_1_Write
 141              	.LVL9:
  62:main.c        **** }
 142              		.loc 1 62 0
 143              		@ sp needed
 144 000e 10BD     		pop	{r4, pc}
 145              		.cfi_endproc
 146              	.LFE36:
 147              		.size	level_down_1, .-level_down_1
 148              		.section	.text.level_down_2,"ax",%progbits
 149              		.align	2
 150              		.global	level_down_2
 151              		.code	16
 152              		.thumb_func
 153              		.type	level_down_2, %function
 154              	level_down_2:
 155              	.LFB37:
  63:main.c        **** void level_down_2(){
 156              		.loc 1 63 0
 157              		.cfi_startproc
 158              		@ args = 0, pretend = 0, frame = 0
 159              		@ frame_needed = 0, uses_anonymous_args = 0
 160 0000 10B5     		push	{r4, lr}
 161              		.cfi_def_cfa_offset 8
 162              		.cfi_offset 4, -8
 163              		.cfi_offset 14, -4
  64:main.c        ****     LED_2_Write(1u);
 164              		.loc 1 64 0
ARM GAS  C:\Users\ZTIPRI~1\AppData\Local\Temp\cc4LKIPf.s 			page 5


 165 0002 0120     		movs	r0, #1
 166 0004 FFF7FEFF 		bl	LED_2_Write
 167              	.LVL10:
  65:main.c        ****     LED_1_Write(1u);    
 168              		.loc 1 65 0
 169 0008 0120     		movs	r0, #1
 170 000a FFF7FEFF 		bl	LED_1_Write
 171              	.LVL11:
  66:main.c        **** }
 172              		.loc 1 66 0
 173              		@ sp needed
 174 000e 10BD     		pop	{r4, pc}
 175              		.cfi_endproc
 176              	.LFE37:
 177              		.size	level_down_2, .-level_down_2
 178              		.section	.text.main,"ax",%progbits
 179              		.align	2
 180              		.global	main
 181              		.code	16
 182              		.thumb_func
 183              		.type	main, %function
 184              	main:
 185              	.LFB32:
  13:main.c        ****     CyGlobalIntEnable; /* Enable global interrupts. */
 186              		.loc 1 13 0
 187              		.cfi_startproc
 188              		@ args = 0, pretend = 0, frame = 0
 189              		@ frame_needed = 0, uses_anonymous_args = 0
 190 0000 F0B5     		push	{r4, r5, r6, r7, lr}
 191              		.cfi_def_cfa_offset 20
 192              		.cfi_offset 4, -20
 193              		.cfi_offset 5, -16
 194              		.cfi_offset 6, -12
 195              		.cfi_offset 7, -8
 196              		.cfi_offset 14, -4
 197 0002 4746     		mov	r7, r8
 198 0004 80B4     		push	{r7}
 199              		.cfi_def_cfa_offset 24
 200              		.cfi_offset 8, -24
  14:main.c        ****     
 201              		.loc 1 14 0
 202              		.syntax divided
 203              	@ 14 "main.c" 1
 204 0006 62B6     		CPSIE   i
 205              	@ 0 "" 2
  16:main.c        ****     CapSense_CSD_InitializeAllBaselines();
 206              		.loc 1 16 0
 207              		.thumb
 208              		.syntax unified
 209 0008 FFF7FEFF 		bl	CapSense_CSD_Start
 210              	.LVL12:
  17:main.c        ****     
 211              		.loc 1 17 0
 212 000c FFF7FEFF 		bl	CapSense_CSD_InitializeAllBaselines
 213              	.LVL13:
 214              	.L12:
 215              	.LBB2:
ARM GAS  C:\Users\ZTIPRI~1\AppData\Local\Temp\cc4LKIPf.s 			page 6


  21:main.c        ****         CapSense_CSD_ScanEnabledWidgets();
 216              		.loc 1 21 0
 217 0010 FFF7FEFF 		bl	CapSense_CSD_UpdateEnabledBaselines
 218              	.LVL14:
  22:main.c        ****         while(CapSense_CSD_IsBusy() != 0)
 219              		.loc 1 22 0
 220 0014 FFF7FEFF 		bl	CapSense_CSD_ScanEnabledWidgets
 221              	.LVL15:
 222              	.L7:
  23:main.c        **** 		{
 223              		.loc 1 23 0 discriminator 1
 224 0018 FFF7FEFF 		bl	CapSense_CSD_IsBusy
 225              	.LVL16:
 226 001c 0028     		cmp	r0, #0
 227 001e FBD1     		bne	.L7
  27:main.c        ****     uint32 state2= CapSense_CSD_CheckIsWidgetActive(CapSense_CSD_SENSOR_BUTTON1__BTN);
 228              		.loc 1 27 0
 229 0020 FFF7FEFF 		bl	CapSense_CSD_CheckIsWidgetActive
 230              	.LVL17:
 231 0024 8046     		mov	r8, r0
 232              	.LVL18:
  28:main.c        ****     uint32 state3= CapSense_CSD_CheckIsWidgetActive(CapSense_CSD_SENSOR_BUTTON2__BTN);
 233              		.loc 1 28 0
 234 0026 0120     		movs	r0, #1
 235              	.LVL19:
 236 0028 FFF7FEFF 		bl	CapSense_CSD_CheckIsWidgetActive
 237              	.LVL20:
 238 002c 0700     		movs	r7, r0
 239              	.LVL21:
  29:main.c        ****     uint32 state4= CapSense_CSD_CheckIsWidgetActive(CapSense_CSD_SENSOR_BUTTON3__BTN);
 240              		.loc 1 29 0
 241 002e 0220     		movs	r0, #2
 242              	.LVL22:
 243 0030 FFF7FEFF 		bl	CapSense_CSD_CheckIsWidgetActive
 244              	.LVL23:
 245 0034 0600     		movs	r6, r0
 246              	.LVL24:
  30:main.c        ****     uint32 state5= CapSense_CSD_CheckIsWidgetActive(CapSense_CSD_SENSOR_BUTTON4__BTN);
 247              		.loc 1 30 0
 248 0036 0320     		movs	r0, #3
 249              	.LVL25:
 250 0038 FFF7FEFF 		bl	CapSense_CSD_CheckIsWidgetActive
 251              	.LVL26:
 252 003c 0500     		movs	r5, r0
 253              	.LVL27:
  31:main.c        ****        
 254              		.loc 1 31 0
 255 003e 0420     		movs	r0, #4
 256              	.LVL28:
 257 0040 FFF7FEFF 		bl	CapSense_CSD_CheckIsWidgetActive
 258              	.LVL29:
 259 0044 0400     		movs	r4, r0
 260              	.LVL30:
  33:main.c        ****     if(state2==1u){  level_up_1(); }
 261              		.loc 1 33 0
 262 0046 4346     		mov	r3, r8
 263 0048 012B     		cmp	r3, #1
ARM GAS  C:\Users\ZTIPRI~1\AppData\Local\Temp\cc4LKIPf.s 			page 7


 264 004a 01D1     		bne	.L8
  33:main.c        ****     if(state2==1u){  level_up_1(); }
 265              		.loc 1 33 0 is_stmt 0 discriminator 1
 266 004c FFF7FEFF 		bl	level_up_2
 267              	.LVL31:
 268              	.L8:
  34:main.c        ****     if(state3==1u){  level0(); }
 269              		.loc 1 34 0 is_stmt 1
 270 0050 012F     		cmp	r7, #1
 271 0052 01D1     		bne	.L9
  34:main.c        ****     if(state3==1u){  level0(); }
 272              		.loc 1 34 0 is_stmt 0 discriminator 1
 273 0054 FFF7FEFF 		bl	level_up_1
 274              	.LVL32:
 275              	.L9:
  35:main.c        ****     if(state4==1u){  level_down_1(); }
 276              		.loc 1 35 0 is_stmt 1
 277 0058 012E     		cmp	r6, #1
 278 005a 01D1     		bne	.L10
  35:main.c        ****     if(state4==1u){  level_down_1(); }
 279              		.loc 1 35 0 is_stmt 0 discriminator 1
 280 005c FFF7FEFF 		bl	level0
 281              	.LVL33:
 282              	.L10:
  36:main.c        ****     if(state5==1u){  level_down_2(); }
 283              		.loc 1 36 0 is_stmt 1
 284 0060 012D     		cmp	r5, #1
 285 0062 01D1     		bne	.L11
  36:main.c        ****     if(state5==1u){  level_down_2(); }
 286              		.loc 1 36 0 is_stmt 0 discriminator 1
 287 0064 FFF7FEFF 		bl	level_down_1
 288              	.LVL34:
 289              	.L11:
  37:main.c        ****         
 290              		.loc 1 37 0 is_stmt 1
 291 0068 012C     		cmp	r4, #1
 292 006a D1D1     		bne	.L12
  37:main.c        ****         
 293              		.loc 1 37 0 is_stmt 0 discriminator 1
 294 006c FFF7FEFF 		bl	level_down_2
 295              	.LVL35:
 296 0070 CEE7     		b	.L12
 297              	.LBE2:
 298              		.cfi_endproc
 299              	.LFE32:
 300              		.size	main, .-main
 301              		.global	flag
 302              		.bss
 303              		.align	2
 304              		.type	flag, %object
 305              		.size	flag, 4
 306              	flag:
 307 0000 00000000 		.space	4
 308              		.text
 309              	.Letext0:
 310              		.file 2 "Generated_Source\\PSoC4/LED_1.h"
 311              		.file 3 "Generated_Source\\PSoC4/LED_2.h"
ARM GAS  C:\Users\ZTIPRI~1\AppData\Local\Temp\cc4LKIPf.s 			page 8


 312              		.file 4 "Generated_Source\\PSoC4/LED_3.h"
 313              		.file 5 "Generated_Source\\PSoC4/LED_4.h"
 314              		.file 6 "Generated_Source\\PSoC4/CapSense_CSD_CSHL.h"
 315              		.file 7 "Generated_Source\\PSoC4/CapSense_CSD.h"
 316              		.file 8 "Generated_Source\\PSoC4/cytypes.h"